	.text
	.file	"llvm-link"
	.globl	audio_init_input        # -- Begin function audio_init_input
	.p2align	4, 0x90
	.type	audio_init_input,@function
audio_init_input:                       # @audio_init_input
	.cfi_startproc
# %bb.0:                                # %entry
	pushq	%rbp
	.cfi_def_cfa_offset 16
	.cfi_offset %rbp, -16
	movq	%rsp, %rbp
	.cfi_def_cfa_register %rbp
	subq	$32, %rsp
	movq	in, %rdi
	callq	fgetc
	cmpl	$46, %eax
	jne	.LBB0_8
# %bb.1:                                # %lor.lhs.false
	movq	in, %rdi
	callq	fgetc
	cmpl	$115, %eax
	jne	.LBB0_8
# %bb.2:                                # %lor.lhs.false3
	movq	in, %rdi
	callq	fgetc
	cmpl	$110, %eax
	jne	.LBB0_8
# %bb.3:                                # %lor.lhs.false6
	movq	in, %rdi
	callq	fgetc
	cmpl	$100, %eax
	jne	.LBB0_8
# %bb.4:                                # %lor.lhs.false9
	leaq	-24(%rbp), %rsi
	movq	in, %rdi
	callq	get_u32
	cmpl	$0, %eax
	jne	.LBB0_8
# %bb.5:                                # %lor.lhs.false11
	leaq	-16(%rbp), %rsi
	movq	in, %rdi
	callq	get_u32
	cmpl	$0, %eax
	jne	.LBB0_8
# %bb.6:                                # %lor.lhs.false14
	leaq	-16(%rbp), %rsi
	movq	in, %rdi
	callq	get_u32
	cmpl	$0, %eax
	jne	.LBB0_8
# %bb.7:                                # %lor.lhs.false17
	movq	in, %rdi
	movq	-24(%rbp), %rsi
	subq	$16, %rsi
	movl	$1, %edx
	callq	fseek
	cmpl	$0, %eax
	jge	.LBB0_12
.LBB0_8:                                # %if.then
	movq	stderr, %rdi
	movq	progname, %rdx
	cmpq	$0, inname
	je	.LBB0_10
# %bb.9:                                # %cond.true
	movq	inname, %rcx
	jmp	.LBB0_11
.LBB0_10:                               # %cond.false
	movabsq	$.L.str.1.15, %rcx
	jmp	.LBB0_11
.LBB0_11:                               # %cond.end
	movabsq	$.L.str.61, %rsi
	movq	progname, %r8
	movb	$0, %al
	callq	fprintf
	movl	$-1, -4(%rbp)
	jmp	.LBB0_20
.LBB0_12:                               # %if.end
	movq	-16(%rbp), %rax
	movq	%rax, %rcx
	subq	$1, %rcx
	je	.LBB0_15
	jmp	.LBB0_13
.LBB0_13:                               # %if.end
	movq	%rax, %rcx
	subq	$2, %rcx
	je	.LBB0_16
	jmp	.LBB0_14
.LBB0_14:                               # %if.end
	subq	$3, %rax
	je	.LBB0_17
	jmp	.LBB0_18
.LBB0_15:                               # %sw.bb
	movabsq	$ulaw_input, %rax
	movq	%rax, input
	jmp	.LBB0_19
.LBB0_16:                               # %sw.bb22
	movabsq	$alaw_input, %rax
	movq	%rax, input
	jmp	.LBB0_19
.LBB0_17:                               # %sw.bb23
	movabsq	$linear_input, %rax
	movq	%rax, input
	jmp	.LBB0_19
.LBB0_18:                               # %sw.default
	leaq	-16(%rbp), %rdi
	callq	audio_init_input0
	movabsq	$ulaw_input, %rax
	movq	%rax, input
.LBB0_19:                               # %sw.epilog
	movl	$0, -4(%rbp)
.LBB0_20:                               # %return
	movl	-4(%rbp), %eax
	addq	$32, %rsp
	popq	%rbp
	retq
.Lfunc_end0:
	.size	audio_init_input, .Lfunc_end0-audio_init_input
	.cfi_endproc
                                        # -- End function
	.globl	audio_init_output       # -- Begin function audio_init_output
	.p2align	4, 0x90
	.type	audio_init_output,@function
audio_init_output:                      # @audio_init_output
	.cfi_startproc
# %bb.0:                                # %entry
	pushq	%rbp
	.cfi_def_cfa_offset 16
	.cfi_offset %rbp, -16
	movq	%rsp, %rbp
	.cfi_def_cfa_register %rbp
	subq	$16, %rsp
	movl	$222222234, -16(%rbp)   # imm = 0xD3ED79A
	movl	$555555567, -12(%rbp)   # imm = 0x211D1AEF
	movl	$444444456, -8(%rbp)    # imm = 0x1A7DAF28
	movl	-16(%rbp), %edi
	movl	-12(%rbp), %esi
	movl	-8(%rbp), %edx
	callq	guardMe
	movabsq	$.L.str.3.65, %rdi
	movq	out, %rsi
	callq	fputs
	cmpl	$-1, %eax
	je	.LBB1_8
# %bb.1:                                # %lor.lhs.false
	movq	out, %rdi
	movl	$32, %esi
	callq	put_u32
	cmpl	$0, %eax
	jne	.LBB1_8
# %bb.2:                                # %lor.lhs.false2
	movq	out, %rdi
	movq	$-1, %rsi
	callq	put_u32
	cmpl	$0, %eax
	jne	.LBB1_8
# %bb.3:                                # %lor.lhs.false5
	movq	out, %rdi
	movl	$1, %esi
	callq	put_u32
	cmpl	$0, %eax
	jne	.LBB1_8
# %bb.4:                                # %lor.lhs.false8
	movq	out, %rdi
	movl	$8000, %esi             # imm = 0x1F40
	callq	put_u32
	cmpl	$0, %eax
	jne	.LBB1_8
# %bb.5:                                # %lor.lhs.false11
	movq	out, %rdi
	movl	$1, %esi
	callq	put_u32
	cmpl	$0, %eax
	jne	.LBB1_8
# %bb.6:                                # %lor.lhs.false14
	movq	out, %rdi
	xorl	%esi, %esi
	callq	put_u32
	cmpl	$0, %eax
	jne	.LBB1_8
# %bb.7:                                # %lor.lhs.false17
	movq	out, %rdi
	xorl	%esi, %esi
	callq	put_u32
	cmpl	$0, %eax
	je	.LBB1_9
.LBB1_8:                                # %if.then
	movl	$-1, -4(%rbp)
	jmp	.LBB1_10
.LBB1_9:                                # %if.end
	movl	$0, -4(%rbp)
.LBB1_10:                               # %return
	movl	-4(%rbp), %eax
	addq	$16, %rsp
	popq	%rbp
	retq
.Lfunc_end1:
	.size	audio_init_output, .Lfunc_end1-audio_init_output
	.cfi_endproc
                                        # -- End function
	.globl	ulaw_input              # -- Begin function ulaw_input
	.p2align	4, 0x90
	.type	ulaw_input,@function
ulaw_input:                             # @ulaw_input
	.cfi_startproc
# %bb.0:                                # %entry
	pushq	%rbp
	.cfi_def_cfa_offset 16
	.cfi_offset %rbp, -16
	movq	%rsp, %rbp
	.cfi_def_cfa_register %rbp
	pushq	%rbx
	subq	$40, %rsp
	.cfi_offset %rbx, -24
	movq	%rdi, %rbx
	movl	$222222230, -32(%rbp)   # imm = 0xD3ED796
	movl	$555555563, -28(%rbp)   # imm = 0x211D1AEB
	movl	$444444452, -24(%rbp)   # imm = 0x1A7DAF24
	movl	-32(%rbp), %edi
	movl	-28(%rbp), %esi
	movl	-24(%rbp), %edx
	callq	guardMe
	movq	%rbx, -40(%rbp)
	movl	$0, -12(%rbp)
.LBB2_1:                                # %for.cond
                                        # =>This Inner Loop Header: Depth=1
	xorl	%eax, %eax
	cmpl	$160, -12(%rbp)
	jge	.LBB2_3
# %bb.2:                                # %land.rhs
                                        #   in Loop: Header=BB2_1 Depth=1
	movq	in, %rdi
	callq	fgetc
	movl	%eax, -16(%rbp)
	cmpl	$-1, %eax
	setne	%al
.LBB2_3:                                # %land.end
                                        #   in Loop: Header=BB2_1 Depth=1
	testb	$1, %al
	jne	.LBB2_4
	jmp	.LBB2_6
.LBB2_4:                                # %for.body
                                        #   in Loop: Header=BB2_1 Depth=1
	leaq	-12(%rbp), %rdi
	leaq	-40(%rbp), %rsi
	leaq	-16(%rbp), %rdx
	callq	ulaw_input0
# %bb.5:                                # %for.inc
                                        #   in Loop: Header=BB2_1 Depth=1
	leaq	-12(%rbp), %rdi
	callq	ulaw_input1
	jmp	.LBB2_1
.LBB2_6:                                # %for.end
	cmpl	$-1, -16(%rbp)
	jne	.LBB2_9
# %bb.7:                                # %land.lhs.true
	movq	in, %rdi
	callq	ferror
	cmpl	$0, %eax
	je	.LBB2_9
# %bb.8:                                # %if.then
	movl	$-1, -20(%rbp)
	jmp	.LBB2_10
.LBB2_9:                                # %if.end
	leaq	-20(%rbp), %rdi
	leaq	-12(%rbp), %rsi
	callq	ulaw_input2
.LBB2_10:                               # %return
	movl	-20(%rbp), %eax
	addq	$40, %rsp
	popq	%rbx
	popq	%rbp
	retq
.Lfunc_end2:
	.size	ulaw_input, .Lfunc_end2-ulaw_input
	.cfi_endproc
                                        # -- End function
	.globl	ulaw_output             # -- Begin function ulaw_output
	.p2align	4, 0x90
	.type	ulaw_output,@function
ulaw_output:                            # @ulaw_output
	.cfi_startproc
# %bb.0:                                # %entry
	pushq	%rbp
	.cfi_def_cfa_offset 16
	.cfi_offset %rbp, -16
	movq	%rsp, %rbp
	.cfi_def_cfa_register %rbp
	pushq	%rbx
	subq	$40, %rsp
	.cfi_offset %rbx, -24
	movq	%rdi, %rbx
	movl	$222222231, -28(%rbp)   # imm = 0xD3ED797
	movl	$555555564, -24(%rbp)   # imm = 0x211D1AEC
	movl	$444444453, -20(%rbp)   # imm = 0x1A7DAF25
	movl	-28(%rbp), %edi
	movl	-24(%rbp), %esi
	movl	-20(%rbp), %edx
	callq	guardMe
	movq	%rbx, -40(%rbp)
	movl	$0, -12(%rbp)
.LBB3_1:                                # %for.cond
                                        # =>This Inner Loop Header: Depth=1
	cmpl	$160, -12(%rbp)
	jge	.LBB3_6
# %bb.2:                                # %for.body
                                        #   in Loop: Header=BB3_1 Depth=1
	movq	-40(%rbp), %rax
	movzwl	(%rax), %eax
	sarl	$3, %eax
	cltq
	movsbl	s2u(,%rax), %edi
	movq	out, %rsi
	callq	fputc
	cmpl	$-1, %eax
	jne	.LBB3_4
# %bb.3:                                # %if.then
	movl	$-1, -16(%rbp)
	jmp	.LBB3_7
.LBB3_4:                                # %if.end
                                        #   in Loop: Header=BB3_1 Depth=1
	jmp	.LBB3_5
.LBB3_5:                                # %for.inc
                                        #   in Loop: Header=BB3_1 Depth=1
	leaq	-40(%rbp), %rdi
	leaq	-12(%rbp), %rsi
	callq	ulaw_output0
	jmp	.LBB3_1
.LBB3_6:                                # %for.end
	movl	$0, -16(%rbp)
.LBB3_7:                                # %return
	movl	-16(%rbp), %eax
	addq	$40, %rsp
	popq	%rbx
	popq	%rbp
	retq
.Lfunc_end3:
	.size	ulaw_output, .Lfunc_end3-ulaw_output
	.cfi_endproc
                                        # -- End function
	.globl	ulaw_output0            # -- Begin function ulaw_output0
	.p2align	4, 0x90
	.type	ulaw_output0,@function
ulaw_output0:                           # @ulaw_output0
	.cfi_startproc
# %bb.0:                                # %entry
	movq	%rdi, -24(%rsp)
	movq	(%rdi), %rax
	movq	%rax, -32(%rsp)
	movq	%rsi, -8(%rsp)
	movl	(%rsi), %ecx
	incl	%ecx
	movl	%ecx, -12(%rsp)
	addq	$2, %rax
	movq	%rax, -32(%rsp)
	movl	%ecx, (%rsi)
	movq	-24(%rsp), %rax
	movq	-32(%rsp), %rcx
	movq	%rcx, (%rax)
	retq
.Lfunc_end4:
	.size	ulaw_output0, .Lfunc_end4-ulaw_output0
	.cfi_endproc
                                        # -- End function
	.globl	ulaw_input0             # -- Begin function ulaw_input0
	.p2align	4, 0x90
	.type	ulaw_input0,@function
ulaw_input0:                            # @ulaw_input0
	.cfi_startproc
# %bb.0:                                # %entry
	movq	%rdi, -8(%rsp)
	movl	(%rdi), %eax
	movl	%eax, -36(%rsp)
	movq	%rsi, -16(%rsp)
	movq	(%rsi), %rax
	movq	%rax, -24(%rsp)
	movq	%rdx, -32(%rsp)
	movl	(%rdx), %ecx
	movl	%ecx, -40(%rsp)
	movzbl	-40(%rsp), %ecx
	movzwl	u2s(%rcx,%rcx), %ecx
	movslq	-36(%rsp), %rdx
	movw	%cx, (%rax,%rdx,2)
	movq	-32(%rsp), %rax
	movl	-40(%rsp), %ecx
	movl	%ecx, (%rax)
	movq	-16(%rsp), %rax
	movq	-24(%rsp), %rcx
	movq	%rcx, (%rax)
	movq	-8(%rsp), %rax
	movl	-36(%rsp), %ecx
	movl	%ecx, (%rax)
	retq
.Lfunc_end5:
	.size	ulaw_input0, .Lfunc_end5-ulaw_input0
	.cfi_endproc
                                        # -- End function
	.globl	ulaw_input1             # -- Begin function ulaw_input1
	.p2align	4, 0x90
	.type	ulaw_input1,@function
ulaw_input1:                            # @ulaw_input1
	.cfi_startproc
# %bb.0:                                # %entry
	movq	%rdi, -8(%rsp)
	movl	(%rdi), %eax
	incl	%eax
	movl	%eax, -12(%rsp)
	movl	%eax, (%rdi)
	retq
.Lfunc_end6:
	.size	ulaw_input1, .Lfunc_end6-ulaw_input1
	.cfi_endproc
                                        # -- End function
	.globl	ulaw_input2             # -- Begin function ulaw_input2
	.p2align	4, 0x90
	.type	ulaw_input2,@function
ulaw_input2:                            # @ulaw_input2
	.cfi_startproc
# %bb.0:                                # %entry
	movq	%rdi, -24(%rsp)
	movl	(%rdi), %eax
	movl	%eax, -28(%rsp)
	movq	%rsi, -8(%rsp)
	movl	(%rsi), %eax
	movl	%eax, -12(%rsp)
	movl	%eax, -28(%rsp)
	movl	%eax, (%rsi)
	movq	-24(%rsp), %rax
	movl	-28(%rsp), %ecx
	movl	%ecx, (%rax)
	retq
.Lfunc_end7:
	.size	ulaw_input2, .Lfunc_end7-ulaw_input2
	.cfi_endproc
                                        # -- End function
	.p2align	4, 0x90         # -- Begin function put_u32
	.type	put_u32,@function
put_u32:                                # @put_u32
	.cfi_startproc
# %bb.0:                                # %entry
	pushq	%rbp
	.cfi_def_cfa_offset 16
	.cfi_offset %rbp, -16
	movq	%rsp, %rbp
	.cfi_def_cfa_register %rbp
	subq	$32, %rsp
	movq	%rdi, -24(%rbp)
	movq	%rsi, -16(%rbp)
	movq	-16(%rbp), %rax
	shrq	$24, %rax
	andq	$255, %rax
	movsbl	%al, %edi
	movq	-24(%rbp), %rsi
	callq	_IO_putc
	cmpl	$-1, %eax
	je	.LBB8_4
# %bb.1:                                # %lor.lhs.false
	movq	-16(%rbp), %rax
	shrq	$16, %rax
	andq	$255, %rax
	movsbl	%al, %edi
	movq	-24(%rbp), %rsi
	callq	_IO_putc
	cmpl	$-1, %eax
	je	.LBB8_4
# %bb.2:                                # %lor.lhs.false10
	movq	-16(%rbp), %rax
	shrq	$8, %rax
	andq	$255, %rax
	movsbl	%al, %edi
	movq	-24(%rbp), %rsi
	callq	_IO_putc
	cmpl	$-1, %eax
	je	.LBB8_4
# %bb.3:                                # %lor.lhs.false18
	movq	-16(%rbp), %rax
	andq	$255, %rax
	movsbl	%al, %edi
	movq	-24(%rbp), %rsi
	callq	_IO_putc
	cmpl	$-1, %eax
	jne	.LBB8_5
.LBB8_4:                                # %if.then
	movl	$-1, -4(%rbp)
	jmp	.LBB8_6
.LBB8_5:                                # %if.end
	movl	$0, -4(%rbp)
.LBB8_6:                                # %return
	movl	-4(%rbp), %eax
	addq	$32, %rsp
	popq	%rbp
	retq
.Lfunc_end8:
	.size	put_u32, .Lfunc_end8-put_u32
	.cfi_endproc
                                        # -- End function
	.p2align	4, 0x90         # -- Begin function get_u32
	.type	get_u32,@function
get_u32:                                # @get_u32
	.cfi_startproc
# %bb.0:                                # %entry
	pushq	%rbp
	.cfi_def_cfa_offset 16
	.cfi_offset %rbp, -16
	movq	%rsp, %rbp
	.cfi_def_cfa_register %rbp
	subq	$48, %rsp
	movq	%rdi, -32(%rbp)
	movq	%rsi, -40(%rbp)
	movq	-32(%rbp), %rdi
	callq	_IO_getc
	movl	%eax, -4(%rbp)
	cmpl	$-1, %eax
	je	.LBB9_4
# %bb.1:                                # %lor.lhs.false
	movl	-4(%rbp), %eax
	movzbl	%al, %eax
	movq	%rax, -16(%rbp)
	movq	-32(%rbp), %rdi
	callq	_IO_getc
	movl	%eax, -4(%rbp)
	cmpl	$-1, %eax
	je	.LBB9_4
# %bb.2:                                # %lor.lhs.false5
	movq	-16(%rbp), %rax
	shlq	$8, %rax
	movl	-4(%rbp), %ecx
	movzbl	%cl, %ecx
	orq	%rcx, %rax
	movq	%rax, -16(%rbp)
	movq	-32(%rbp), %rdi
	callq	_IO_getc
	movl	%eax, -4(%rbp)
	cmpl	$-1, %eax
	je	.LBB9_4
# %bb.3:                                # %lor.lhs.false11
	movq	-16(%rbp), %rax
	shlq	$8, %rax
	movl	-4(%rbp), %ecx
	movzbl	%cl, %ecx
	orq	%rcx, %rax
	movq	%rax, -16(%rbp)
	movq	-32(%rbp), %rdi
	callq	_IO_getc
	movl	%eax, -4(%rbp)
	cmpl	$-1, %eax
	jne	.LBB9_5
.LBB9_4:                                # %if.then
	movl	$-1, -20(%rbp)
	jmp	.LBB9_6
.LBB9_5:                                # %if.end
	leaq	-40(%rbp), %rdi
	leaq	-4(%rbp), %rsi
	leaq	-16(%rbp), %rdx
	callq	get_u320
	movl	$0, -20(%rbp)
.LBB9_6:                                # %return
	movl	-20(%rbp), %eax
	addq	$48, %rsp
	popq	%rbp
	retq
.Lfunc_end9:
	.size	get_u32, .Lfunc_end9-get_u32
	.cfi_endproc
                                        # -- End function
	.globl	alaw_input              # -- Begin function alaw_input
	.p2align	4, 0x90
	.type	alaw_input,@function
alaw_input:                             # @alaw_input
	.cfi_startproc
# %bb.0:                                # %entry
	pushq	%rbp
	.cfi_def_cfa_offset 16
	.cfi_offset %rbp, -16
	movq	%rsp, %rbp
	.cfi_def_cfa_register %rbp
	subq	$32, %rsp
	movq	%rdi, -24(%rbp)
	movl	$0, -4(%rbp)
.LBB10_1:                               # %for.cond
                                        # =>This Inner Loop Header: Depth=1
	xorl	%eax, %eax
	cmpl	$160, -4(%rbp)
	jge	.LBB10_3
# %bb.2:                                # %land.rhs
                                        #   in Loop: Header=BB10_1 Depth=1
	movq	in, %rdi
	callq	fgetc
	movl	%eax, -8(%rbp)
	cmpl	$-1, %eax
	setne	%al
.LBB10_3:                               # %land.end
                                        #   in Loop: Header=BB10_1 Depth=1
	testb	$1, %al
	jne	.LBB10_4
	jmp	.LBB10_6
.LBB10_4:                               # %for.body
                                        #   in Loop: Header=BB10_1 Depth=1
	leaq	-4(%rbp), %rdi
	leaq	-24(%rbp), %rsi
	leaq	-8(%rbp), %rdx
	callq	alaw_input0
# %bb.5:                                # %for.inc
                                        #   in Loop: Header=BB10_1 Depth=1
	leaq	-4(%rbp), %rdi
	callq	alaw_input1
	jmp	.LBB10_1
.LBB10_6:                               # %for.end
	cmpl	$-1, -8(%rbp)
	jne	.LBB10_9
# %bb.7:                                # %land.lhs.true
	movq	in, %rdi
	callq	ferror
	cmpl	$0, %eax
	je	.LBB10_9
# %bb.8:                                # %if.then
	movl	$-1, -12(%rbp)
	jmp	.LBB10_10
.LBB10_9:                               # %if.end
	leaq	-12(%rbp), %rdi
	leaq	-4(%rbp), %rsi
	callq	alaw_input2
.LBB10_10:                              # %return
	movl	-12(%rbp), %eax
	addq	$32, %rsp
	popq	%rbp
	retq
.Lfunc_end10:
	.size	alaw_input, .Lfunc_end10-alaw_input
	.cfi_endproc
                                        # -- End function
	.globl	linear_input            # -- Begin function linear_input
	.p2align	4, 0x90
	.type	linear_input,@function
linear_input:                           # @linear_input
	.cfi_startproc
# %bb.0:                                # %entry
	pushq	%rbp
	.cfi_def_cfa_offset 16
	.cfi_offset %rbp, -16
	movq	%rsp, %rbp
	.cfi_def_cfa_register %rbp
	subq	$16, %rsp
	movq	%rdi, -8(%rbp)
	movq	-8(%rbp), %rdi
	movq	in, %rcx
	movl	$2, %esi
	movl	$160, %edx
	callq	fread
                                        # kill: def %eax killed %eax killed %rax
	addq	$16, %rsp
	popq	%rbp
	retq
.Lfunc_end11:
	.size	linear_input, .Lfunc_end11-linear_input
	.cfi_endproc
                                        # -- End function
	.globl	audio_init_input0       # -- Begin function audio_init_input0
	.p2align	4, 0x90
	.type	audio_init_input0,@function
audio_init_input0:                      # @audio_init_input0
	.cfi_startproc
# %bb.0:                                # %entry
	subq	$24, %rsp
	.cfi_def_cfa_offset 32
	movq	%rdi, 16(%rsp)
	movq	(%rdi), %rcx
	movq	%rcx, 8(%rsp)
	movq	stderr(%rip), %rdi
	movq	progname(%rip), %rdx
	movq	inname(%rip), %r8
	movl	$.L.str.2.62, %esi
	xorl	%eax, %eax
	callq	fprintf
	movq	16(%rsp), %rax
	movq	8(%rsp), %rcx
	movq	%rcx, (%rax)
	addq	$24, %rsp
	retq
.Lfunc_end12:
	.size	audio_init_input0, .Lfunc_end12-audio_init_input0
	.cfi_endproc
                                        # -- End function
	.globl	alaw_input0             # -- Begin function alaw_input0
	.p2align	4, 0x90
	.type	alaw_input0,@function
alaw_input0:                            # @alaw_input0
	.cfi_startproc
# %bb.0:                                # %entry
	movq	%rdi, -8(%rsp)
	movl	(%rdi), %eax
	movl	%eax, -36(%rsp)
	movq	%rsi, -16(%rsp)
	movq	(%rsi), %rax
	movq	%rax, -24(%rsp)
	movq	%rdx, -32(%rsp)
	movl	(%rdx), %ecx
	movl	%ecx, -40(%rsp)
	movzbl	-40(%rsp), %ecx
	movzwl	a2s(%rcx,%rcx), %ecx
	movslq	-36(%rsp), %rdx
	movw	%cx, (%rax,%rdx,2)
	movq	-32(%rsp), %rax
	movl	-40(%rsp), %ecx
	movl	%ecx, (%rax)
	movq	-16(%rsp), %rax
	movq	-24(%rsp), %rcx
	movq	%rcx, (%rax)
	movq	-8(%rsp), %rax
	movl	-36(%rsp), %ecx
	movl	%ecx, (%rax)
	retq
.Lfunc_end13:
	.size	alaw_input0, .Lfunc_end13-alaw_input0
	.cfi_endproc
                                        # -- End function
	.globl	alaw_input1             # -- Begin function alaw_input1
	.p2align	4, 0x90
	.type	alaw_input1,@function
alaw_input1:                            # @alaw_input1
	.cfi_startproc
# %bb.0:                                # %entry
	movq	%rdi, -8(%rsp)
	movl	(%rdi), %eax
	incl	%eax
	movl	%eax, -12(%rsp)
	movl	%eax, (%rdi)
	retq
.Lfunc_end14:
	.size	alaw_input1, .Lfunc_end14-alaw_input1
	.cfi_endproc
                                        # -- End function
	.globl	alaw_input2             # -- Begin function alaw_input2
	.p2align	4, 0x90
	.type	alaw_input2,@function
alaw_input2:                            # @alaw_input2
	.cfi_startproc
# %bb.0:                                # %entry
	movq	%rdi, -24(%rsp)
	movl	(%rdi), %eax
	movl	%eax, -28(%rsp)
	movq	%rsi, -8(%rsp)
	movl	(%rsi), %eax
	movl	%eax, -12(%rsp)
	movl	%eax, -28(%rsp)
	movl	%eax, (%rsi)
	movq	-24(%rsp), %rax
	movl	-28(%rsp), %ecx
	movl	%ecx, (%rax)
	retq
.Lfunc_end15:
	.size	alaw_input2, .Lfunc_end15-alaw_input2
	.cfi_endproc
                                        # -- End function
	.globl	get_u320                # -- Begin function get_u320
	.p2align	4, 0x90
	.type	get_u320,@function
get_u320:                               # @get_u320
	.cfi_startproc
# %bb.0:                                # %entry
	movq	%rdi, -8(%rsp)
	movq	(%rdi), %rax
	movq	%rax, -16(%rsp)
	movq	%rsi, -24(%rsp)
	movl	(%rsi), %ecx
	movl	%ecx, -44(%rsp)
	movq	%rdx, -32(%rsp)
	movq	(%rdx), %rcx
	movq	%rcx, -40(%rsp)
	shlq	$8, %rcx
	movzbl	-44(%rsp), %edx
	orq	%rcx, %rdx
	movq	%rdx, (%rax)
	movq	-32(%rsp), %rax
	movq	-40(%rsp), %rcx
	movq	%rcx, (%rax)
	movq	-24(%rsp), %rax
	movl	-44(%rsp), %ecx
	movl	%ecx, (%rax)
	movq	-8(%rsp), %rax
	movq	-16(%rsp), %rcx
	movq	%rcx, (%rax)
	retq
.Lfunc_end16:
	.size	get_u320, .Lfunc_end16-get_u320
	.cfi_endproc
                                        # -- End function
	.p2align	4, 0x90         # -- Begin function generic_init
	.type	generic_init,@function
generic_init:                           # @generic_init
	.cfi_startproc
# %bb.0:                                # %entry
	pushq	%rbp
	.cfi_def_cfa_offset 16
	.cfi_offset %rbp, -16
	movq	%rsp, %rbp
	.cfi_def_cfa_register %rbp
	xorl	%eax, %eax
	popq	%rbp
	retq
.Lfunc_end17:
	.size	generic_init, .Lfunc_end17-generic_init
	.cfi_endproc
                                        # -- End function
	.globl	alaw_output             # -- Begin function alaw_output
	.p2align	4, 0x90
	.type	alaw_output,@function
alaw_output:                            # @alaw_output
	.cfi_startproc
# %bb.0:                                # %entry
	pushq	%rbp
	.cfi_def_cfa_offset 16
	.cfi_offset %rbp, -16
	movq	%rsp, %rbp
	.cfi_def_cfa_register %rbp
	subq	$16, %rsp
	movq	%rdi, -16(%rbp)
	movl	$0, -4(%rbp)
.LBB18_1:                               # %for.cond
                                        # =>This Inner Loop Header: Depth=1
	cmpl	$160, -4(%rbp)
	jge	.LBB18_6
# %bb.2:                                # %for.body
                                        #   in Loop: Header=BB18_1 Depth=1
	movq	-16(%rbp), %rax
	movzwl	(%rax), %eax
	sarl	$4, %eax
	cltq
	movzbl	s2a(,%rax), %edi
	movq	out, %rsi
	callq	fputc
	cmpl	$-1, %eax
	jne	.LBB18_4
# %bb.3:                                # %if.then
	movl	$-1, -8(%rbp)
	jmp	.LBB18_7
.LBB18_4:                               # %if.end
                                        #   in Loop: Header=BB18_1 Depth=1
	jmp	.LBB18_5
.LBB18_5:                               # %for.inc
                                        #   in Loop: Header=BB18_1 Depth=1
	leaq	-16(%rbp), %rdi
	leaq	-4(%rbp), %rsi
	callq	alaw_output0
	jmp	.LBB18_1
.LBB18_6:                               # %for.end
	movl	$0, -8(%rbp)
.LBB18_7:                               # %return
	movl	-8(%rbp), %eax
	addq	$16, %rsp
	popq	%rbp
	retq
.Lfunc_end18:
	.size	alaw_output, .Lfunc_end18-alaw_output
	.cfi_endproc
                                        # -- End function
	.globl	alaw_output0            # -- Begin function alaw_output0
	.p2align	4, 0x90
	.type	alaw_output0,@function
alaw_output0:                           # @alaw_output0
	.cfi_startproc
# %bb.0:                                # %entry
	movq	%rdi, -24(%rsp)
	movq	(%rdi), %rax
	movq	%rax, -32(%rsp)
	movq	%rsi, -8(%rsp)
	movl	(%rsi), %ecx
	incl	%ecx
	movl	%ecx, -12(%rsp)
	addq	$2, %rax
	movq	%rax, -32(%rsp)
	movl	%ecx, (%rsi)
	movq	-24(%rsp), %rax
	movq	-32(%rsp), %rcx
	movq	%rcx, (%rax)
	retq
.Lfunc_end19:
	.size	alaw_output0, .Lfunc_end19-alaw_output0
	.cfi_endproc
                                        # -- End function
	.globl	linear_output           # -- Begin function linear_output
	.p2align	4, 0x90
	.type	linear_output,@function
linear_output:                          # @linear_output
	.cfi_startproc
# %bb.0:                                # %entry
	pushq	%rbp
	.cfi_def_cfa_offset 16
	.cfi_offset %rbp, -16
	movq	%rsp, %rbp
	.cfi_def_cfa_register %rbp
	pushq	%rbx
	subq	$24, %rsp
	.cfi_offset %rbx, -24
	movq	%rdi, %rbx
	movl	$222222229, -20(%rbp)   # imm = 0xD3ED795
	movl	$555555562, -16(%rbp)   # imm = 0x211D1AEA
	movl	$444444451, -12(%rbp)   # imm = 0x1A7DAF23
	movl	-20(%rbp), %edi
	movl	-16(%rbp), %esi
	movl	-12(%rbp), %edx
	callq	guardMe
	movq	%rbx, -32(%rbp)
	movq	-32(%rbp), %rdi
	movq	out, %rcx
	movl	$2, %esi
	movl	$160, %edx
	callq	fwrite
	xorl	%ecx, %ecx
	cmpq	$160, %rax
	setne	%al
	andb	$1, %al
	movzbl	%al, %eax
	subl	%eax, %ecx
	movl	%ecx, %eax
	addq	$24, %rsp
	popq	%rbx
	popq	%rbp
	retq
.Lfunc_end20:
	.size	linear_output, .Lfunc_end20-linear_output
	.cfi_endproc
                                        # -- End function
	.globl	main                    # -- Begin function main
	.p2align	4, 0x90
	.type	main,@function
main:                                   # @main
	.cfi_startproc
# %bb.0:                                # %entry
	pushq	%rbp
	.cfi_def_cfa_offset 16
	.cfi_offset %rbp, -16
	movq	%rsp, %rbp
	.cfi_def_cfa_register %rbp
	subq	$32, %rsp
	movl	$0, -24(%rbp)
	movl	%edi, -4(%rbp)
	movq	%rsi, -16(%rbp)
	movq	-16(%rbp), %rax
	movq	(%rax), %rdi
	callq	parse_argv0
.LBB21_1:                               # %while.cond
                                        # =>This Inner Loop Header: Depth=1
	movabsq	$.L.str.12, %rdx
	movl	-4(%rbp), %edi
	movq	-16(%rbp), %rsi
	movb	$0, %al
	callq	getopt
	movl	%eax, -20(%rbp)
	cmpl	$-1, %eax
	je	.LBB21_18
# %bb.2:                                # %while.body
                                        #   in Loop: Header=BB21_1 Depth=1
	movl	-20(%rbp), %eax
	addl	$-70, %eax
	movl	%eax, %ecx
	subl	$48, %ecx
	ja	.LBB21_16
# %bb.3:                                # %while.body
                                        #   in Loop: Header=BB21_1 Depth=1
	movq	.LJTI21_0(,%rax,8), %rax
	jmpq	*%rax
.LBB21_4:                               # %sw.bb
                                        #   in Loop: Header=BB21_1 Depth=1
	movl	$1, f_decode
	jmp	.LBB21_17
.LBB21_5:                               # %sw.bb1
                                        #   in Loop: Header=BB21_1 Depth=1
	movl	$1, f_force
	jmp	.LBB21_17
.LBB21_6:                               # %sw.bb2
                                        #   in Loop: Header=BB21_1 Depth=1
	movl	$1, f_cat
	jmp	.LBB21_17
.LBB21_7:                               # %sw.bb3
                                        #   in Loop: Header=BB21_1 Depth=1
	movl	$1, f_precious
	jmp	.LBB21_17
.LBB21_8:                               # %sw.bb4
                                        #   in Loop: Header=BB21_1 Depth=1
	movl	$1, f_fast
	jmp	.LBB21_17
.LBB21_9:                               # %sw.bb5
                                        #   in Loop: Header=BB21_1 Depth=1
	movl	$1, f_verbose
	jmp	.LBB21_17
.LBB21_10:                              # %sw.bb6
                                        #   in Loop: Header=BB21_1 Depth=1
	movabsq	$f_ulaw, %rdi
	callq	set_format
	jmp	.LBB21_17
.LBB21_11:                              # %sw.bb7
                                        #   in Loop: Header=BB21_1 Depth=1
	movabsq	$f_linear, %rdi
	callq	set_format
	jmp	.LBB21_17
.LBB21_12:                              # %sw.bb8
                                        #   in Loop: Header=BB21_1 Depth=1
	movabsq	$f_alaw, %rdi
	callq	set_format
	jmp	.LBB21_17
.LBB21_13:                              # %sw.bb9
                                        #   in Loop: Header=BB21_1 Depth=1
	movabsq	$f_audio, %rdi
	callq	set_format
	jmp	.LBB21_17
.LBB21_14:                              # %sw.bb10
	callq	version
	xorl	%edi, %edi
	callq	exit
.LBB21_15:                              # %sw.bb11
	callq	help
	xorl	%edi, %edi
	callq	exit
.LBB21_16:                              # %sw.default
	callq	main0
.LBB21_17:                              # %sw.epilog
                                        #   in Loop: Header=BB21_1 Depth=1
	jmp	.LBB21_1
.LBB21_18:                              # %while.end
	leaq	-4(%rbp), %rdi
	leaq	-16(%rbp), %rsi
	callq	main1
	movabsq	$onintr, %rdi
	callq	catch_signals
	cmpl	$0, -4(%rbp)
	jg	.LBB21_20
# %bb.19:                               # %if.then
	xorl	%edi, %edi
	callq	process
	jmp	.LBB21_24
.LBB21_20:                              # %if.else
	jmp	.LBB21_21
.LBB21_21:                              # %while.cond15
                                        # =>This Inner Loop Header: Depth=1
	movl	-4(%rbp), %eax
	movl	%eax, %ecx
	addl	$-1, %ecx
	movl	%ecx, -4(%rbp)
	cmpl	$0, %eax
	je	.LBB21_23
# %bb.22:                               # %while.body16
                                        #   in Loop: Header=BB21_21 Depth=1
	movq	-16(%rbp), %rax
	movq	%rax, %rcx
	addq	$8, %rcx
	movq	%rcx, -16(%rbp)
	movq	(%rax), %rdi
	callq	process
	jmp	.LBB21_21
.LBB21_23:                              # %while.end18
	jmp	.LBB21_24
.LBB21_24:                              # %if.end
	xorl	%edi, %edi
	callq	exit
.Lfunc_end21:
	.size	main, .Lfunc_end21-main
	.cfi_endproc
	.section	.rodata,"a",@progbits
	.p2align	3
.LJTI21_0:
	.quad	.LBB21_8
	.quad	.LBB21_16
	.quad	.LBB21_16
	.quad	.LBB21_16
	.quad	.LBB21_16
	.quad	.LBB21_16
	.quad	.LBB21_16
	.quad	.LBB21_16
	.quad	.LBB21_16
	.quad	.LBB21_16
	.quad	.LBB21_16
	.quad	.LBB21_16
	.quad	.LBB21_16
	.quad	.LBB21_16
	.quad	.LBB21_16
	.quad	.LBB21_16
	.quad	.LBB21_9
	.quad	.LBB21_16
	.quad	.LBB21_16
	.quad	.LBB21_16
	.quad	.LBB21_16
	.quad	.LBB21_16
	.quad	.LBB21_16
	.quad	.LBB21_16
	.quad	.LBB21_16
	.quad	.LBB21_16
	.quad	.LBB21_16
	.quad	.LBB21_12
	.quad	.LBB21_16
	.quad	.LBB21_6
	.quad	.LBB21_4
	.quad	.LBB21_16
	.quad	.LBB21_5
	.quad	.LBB21_16
	.quad	.LBB21_15
	.quad	.LBB21_16
	.quad	.LBB21_16
	.quad	.LBB21_16
	.quad	.LBB21_11
	.quad	.LBB21_16
	.quad	.LBB21_16
	.quad	.LBB21_16
	.quad	.LBB21_7
	.quad	.LBB21_16
	.quad	.LBB21_16
	.quad	.LBB21_13
	.quad	.LBB21_16
	.quad	.LBB21_10
	.quad	.LBB21_14
                                        # -- End function
	.text
	.p2align	4, 0x90         # -- Begin function parse_argv0
	.type	parse_argv0,@function
parse_argv0:                            # @parse_argv0
	.cfi_startproc
# %bb.0:                                # %entry
	pushq	%rbp
	.cfi_def_cfa_offset 16
	.cfi_offset %rbp, -16
	movq	%rsp, %rbp
	.cfi_def_cfa_register %rbp
	subq	$16, %rsp
	movq	%rdi, -8(%rbp)
	cmpq	$0, -8(%rbp)
	je	.LBB22_2
# %bb.1:                                # %cond.true
	movq	-8(%rbp), %rdi
	jmp	.LBB22_3
.LBB22_2:                               # %cond.false
	movabsq	$.L.str.14, %rdi
	jmp	.LBB22_3
.LBB22_3:                               # %cond.end
	callq	endname
	movabsq	$.L.str.15, %rsi
	movq	%rax, -8(%rbp)
	movq	%rax, progname
	movq	-8(%rbp), %rdi
	movl	$2, %edx
	callq	strncmp
	cmpl	$0, %eax
	jne	.LBB22_5
# %bb.4:                                # %if.then
	movl	$1, f_decode
.LBB22_5:                               # %if.end
	movq	-8(%rbp), %rdi
	callq	strlen
	movl	%eax, -12(%rbp)
	cmpl	$3, %eax
	jl	.LBB22_8
# %bb.6:                                # %land.lhs.true
	movq	-8(%rbp), %rdi
	movslq	-12(%rbp), %rax
	addq	%rax, %rdi
	addq	$-3, %rdi
	movl	$.L.str.16, %esi
	callq	strcmp
	cmpl	$0, %eax
	jne	.LBB22_8
# %bb.7:                                # %if.then8
	callq	parse_argv00
.LBB22_8:                               # %if.end9
	addq	$16, %rsp
	popq	%rbp
	retq
.Lfunc_end22:
	.size	parse_argv0, .Lfunc_end22-parse_argv0
	.cfi_endproc
                                        # -- End function
	.p2align	4, 0x90         # -- Begin function set_format
	.type	set_format,@function
set_format:                             # @set_format
	.cfi_startproc
# %bb.0:                                # %entry
	pushq	%rbp
	.cfi_def_cfa_offset 16
	.cfi_offset %rbp, -16
	movq	%rsp, %rbp
	.cfi_def_cfa_register %rbp
	subq	$16, %rsp
	movq	%rdi, -8(%rbp)
	cmpq	$0, f_format
	je	.LBB23_3
# %bb.1:                                # %land.lhs.true
	movq	f_format, %rax
	cmpq	-8(%rbp), %rax
	je	.LBB23_3
# %bb.2:                                # %if.then
	callq	set_format0
.LBB23_3:                               # %if.end
	leaq	-8(%rbp), %rdi
	callq	set_format1
	addq	$16, %rsp
	popq	%rbp
	retq
.Lfunc_end23:
	.size	set_format, .Lfunc_end23-set_format
	.cfi_endproc
                                        # -- End function
	.p2align	4, 0x90         # -- Begin function version
	.type	version,@function
version:                                # @version
	.cfi_startproc
# %bb.0:                                # %entry
	pushq	%rbp
	.cfi_def_cfa_offset 16
	.cfi_offset %rbp, -16
	movq	%rsp, %rbp
	.cfi_def_cfa_register %rbp
	callq	version0
	popq	%rbp
	retq
.Lfunc_end24:
	.size	version, .Lfunc_end24-version
	.cfi_endproc
                                        # -- End function
	.p2align	4, 0x90         # -- Begin function help
	.type	help,@function
help:                                   # @help
	.cfi_startproc
# %bb.0:                                # %entry
	pushq	%rbp
	.cfi_def_cfa_offset 16
	.cfi_offset %rbp, -16
	movq	%rsp, %rbp
	.cfi_def_cfa_register %rbp
	callq	help0
	popq	%rbp
	retq
.Lfunc_end25:
	.size	help, .Lfunc_end25-help
	.cfi_endproc
                                        # -- End function
	.globl	main0                   # -- Begin function main0
	.p2align	4, 0x90
	.type	main0,@function
main0:                                  # @main0
	.cfi_startproc
# %bb.0:                                # %entry
	pushq	%rax
	.cfi_def_cfa_offset 16
	movq	stderr(%rip), %rdi
	movq	progname(%rip), %rdx
	movl	$.L.str.13, %esi
	xorl	%eax, %eax
	callq	fprintf
	movl	$1, %edi
	callq	exit
	popq	%rax
	retq
.Lfunc_end26:
	.size	main0, .Lfunc_end26-main0
	.cfi_endproc
                                        # -- End function
	.globl	main1                   # -- Begin function main1
	.p2align	4, 0x90
	.type	main1,@function
main1:                                  # @main1
	.cfi_startproc
# %bb.0:                                # %entry
	movq	%rdi, -24(%rsp)
	movl	(%rdi), %eax
	movl	%eax, -28(%rsp)
	movq	%rsi, -8(%rsp)
	movq	(%rsi), %rcx
	movl	f_cat(%rip), %edx
	orl	%edx, f_precious(%rip)
	movslq	optind(%rip), %rdx
	leaq	(%rcx,%rdx,8), %rcx
	movq	%rcx, -16(%rsp)
	subl	optind(%rip), %eax
	movl	%eax, -28(%rsp)
	movq	%rcx, (%rsi)
	movq	-24(%rsp), %rax
	movl	-28(%rsp), %ecx
	movl	%ecx, (%rax)
	retq
.Lfunc_end27:
	.size	main1, .Lfunc_end27-main1
	.cfi_endproc
                                        # -- End function
	.p2align	4, 0x90         # -- Begin function onintr
	.type	onintr,@function
onintr:                                 # @onintr
	.cfi_startproc
# %bb.0:                                # %entry
	pushq	%rbp
	.cfi_def_cfa_offset 16
	.cfi_offset %rbp, -16
	movq	%rsp, %rbp
	.cfi_def_cfa_register %rbp
	subq	$16, %rsp
	leaq	-8(%rbp), %rdi
	callq	onintr0
	movq	$0, outname
	cmpq	$0, -8(%rbp)
	je	.LBB28_2
# %bb.1:                                # %if.then
	leaq	-8(%rbp), %rdi
	callq	onintr1
.LBB28_2:                               # %if.end
	movl	$1, %edi
	callq	exit
.Lfunc_end28:
	.size	onintr, .Lfunc_end28-onintr
	.cfi_endproc
                                        # -- End function
	.p2align	4, 0x90         # -- Begin function catch_signals
	.type	catch_signals,@function
catch_signals:                          # @catch_signals
	.cfi_startproc
# %bb.0:                                # %entry
	pushq	%rbp
	.cfi_def_cfa_offset 16
	.cfi_offset %rbp, -16
	movq	%rsp, %rbp
	.cfi_def_cfa_register %rbp
	subq	$16, %rsp
	leaq	-8(%rbp), %rax
	movq	%rdi, -8(%rbp)
	movq	%rax, %rdi
	callq	catch_signals0
	addq	$16, %rsp
	popq	%rbp
	retq
.Lfunc_end29:
	.size	catch_signals, .Lfunc_end29-catch_signals
	.cfi_endproc
                                        # -- End function
	.p2align	4, 0x90         # -- Begin function process
	.type	process,@function
process:                                # @process
	.cfi_startproc
# %bb.0:                                # %entry
	pushq	%rbp
	.cfi_def_cfa_offset 16
	.cfi_offset %rbp, -16
	movq	%rsp, %rbp
	.cfi_def_cfa_register %rbp
	subq	$16, %rsp
	movabsq	$instat, %rsi
	movq	%rdi, -8(%rbp)
	movl	$0, -16(%rbp)
	movq	$0, out
	movq	$0, in
	movq	$0, outname
	movq	$0, inname
	movq	-8(%rbp), %rdi
	callq	open_input
	cmpl	$0, %eax
	je	.LBB30_2
# %bb.1:                                # %lor.lhs.false
	movq	-8(%rbp), %rdi
	callq	open_output
	cmpl	$0, %eax
	jne	.LBB30_3
.LBB30_2:                               # %if.then
	jmp	.LBB30_44
.LBB30_3:                               # %if.end
	cmpl	$0, f_decode
	je	.LBB30_5
# %bb.4:                                # %cond.true
	movq	init_output, %rcx
	jmp	.LBB30_6
.LBB30_5:                               # %cond.false
	movq	init_input, %rcx
.LBB30_6:                               # %cond.end
	callq	*%rcx
	cmpl	$0, %eax
	je	.LBB30_17
# %bb.7:                                # %if.then6
	movabsq	$.L.str.35, %rcx
	movabsq	$.L.str.34, %rax
	movq	stderr, %rdi
	movq	progname, %rdx
	movl	f_decode, %esi
	cmpl	$0, %esi
	cmovneq	%rax, %rcx
	cmpl	$0, f_decode
	je	.LBB30_12
# %bb.8:                                # %cond.true10
	cmpq	$0, outname
	je	.LBB30_10
# %bb.9:                                # %cond.true12
	movq	outname, %r8
	jmp	.LBB30_11
.LBB30_10:                              # %cond.false13
	movabsq	$.L.str.36, %r8
	jmp	.LBB30_11
.LBB30_11:                              # %cond.end14
	jmp	.LBB30_16
.LBB30_12:                              # %cond.false16
	cmpq	$0, inname
	je	.LBB30_14
# %bb.13:                               # %cond.true18
	movq	inname, %r8
	jmp	.LBB30_15
.LBB30_14:                              # %cond.false19
	movabsq	$.L.str.37, %r8
	jmp	.LBB30_15
.LBB30_15:                              # %cond.end20
.LBB30_16:                              # %cond.end22
	movabsq	$.L.str.33, %rsi
	movb	$0, %al
	callq	fprintf
	jmp	.LBB30_44
.LBB30_17:                              # %if.end25
	movabsq	$process_encode, %rcx
	movabsq	$process_decode, %rax
	movl	f_decode, %edx
	cmpl	$0, %edx
	cmovneq	%rax, %rcx
	callq	*%rcx
	cmpl	$0, %eax
	je	.LBB30_19
# %bb.18:                               # %if.then30
	jmp	.LBB30_44
.LBB30_19:                              # %if.end31
	movq	out, %rdi
	callq	fflush
	cmpl	$0, %eax
	jl	.LBB30_21
# %bb.20:                               # %lor.lhs.false33
	movq	out, %rdi
	callq	ferror
	cmpl	$0, %eax
	je	.LBB30_28
.LBB30_21:                              # %if.then36
	cmpq	$0, outname
	je	.LBB30_23
# %bb.22:                               # %cond.true38
	movq	outname, %rdi
	jmp	.LBB30_24
.LBB30_23:                              # %cond.false39
	movabsq	$.L.str.36, %rdi
	jmp	.LBB30_24
.LBB30_24:                              # %cond.end40
	callq	perror
	movq	stderr, %rdi
	movq	progname, %rdx
	cmpq	$0, outname
	je	.LBB30_26
# %bb.25:                               # %cond.true43
	movq	outname, %rcx
	jmp	.LBB30_27
.LBB30_26:                              # %cond.false44
	movabsq	$.L.str.36, %rcx
	jmp	.LBB30_27
.LBB30_27:                              # %cond.end45
	movabsq	$.L.str.38, %rsi
	movb	$0, %al
	callq	fprintf
	jmp	.LBB30_44
.LBB30_28:                              # %if.end48
	movq	out, %rax
	cmpq	stdout, %rax
	je	.LBB30_34
# %bb.29:                               # %if.then50
	callq	update_times
	callq	update_mode
	callq	update_own
	movq	out, %rdi
	callq	fclose
	cmpl	$0, %eax
	jge	.LBB30_31
# %bb.30:                               # %if.then53
	callq	process0
	jmp	.LBB30_44
.LBB30_31:                              # %if.end55
	movq	outname, %rax
	cmpq	-8(%rbp), %rax
	je	.LBB30_33
# %bb.32:                               # %if.then57
	callq	process1
.LBB30_33:                              # %if.end58
	movq	$0, outname
.LBB30_34:                              # %if.end59
	movq	$0, out
	movq	in, %rax
	cmpq	stdin, %rax
	je	.LBB30_43
# %bb.35:                               # %if.then61
	movq	in, %rdi
	callq	fclose
	movq	$0, in
	cmpl	$0, f_cat
	jne	.LBB30_40
# %bb.36:                               # %land.lhs.true
	cmpl	$0, f_precious
	jne	.LBB30_40
# %bb.37:                               # %if.then65
	movq	inname, %rdi
	callq	unlink
	cmpl	$0, %eax
	jge	.LBB30_39
# %bb.38:                               # %if.then68
	callq	process2
.LBB30_39:                              # %if.end70
	jmp	.LBB30_44
.LBB30_40:                              # %if.end71
	movq	inname, %rax
	cmpq	-8(%rbp), %rax
	je	.LBB30_42
# %bb.41:                               # %if.then73
	callq	process3
.LBB30_42:                              # %if.end74
	movq	$0, inname
.LBB30_43:                              # %if.end75
	movl	$0, -12(%rbp)
	jmp	.LBB30_61
.LBB30_44:                              # %err
	cmpq	$0, out
	je	.LBB30_51
# %bb.45:                               # %land.lhs.true77
	movq	out, %rax
	cmpq	stdout, %rax
	je	.LBB30_51
# %bb.46:                               # %if.then79
	movq	out, %rdi
	callq	fclose
	movq	$0, out
	movq	outname, %rdi
	callq	unlink
	cmpl	$0, %eax
	jge	.LBB30_50
# %bb.47:                               # %land.lhs.true83
	callq	__errno_location
	cmpl	$2, (%rax)
	je	.LBB30_50
# %bb.48:                               # %land.lhs.true86
	callq	__errno_location
	cmpl	$4, (%rax)
	je	.LBB30_50
# %bb.49:                               # %if.then89
	callq	process4
.LBB30_50:                              # %if.end91
	jmp	.LBB30_51
.LBB30_51:                              # %if.end92
	cmpq	$0, in
	je	.LBB30_54
# %bb.52:                               # %land.lhs.true94
	movq	in, %rax
	cmpq	stdin, %rax
	je	.LBB30_54
# %bb.53:                               # %if.then96
	callq	process5
.LBB30_54:                              # %if.end98
	cmpq	$0, inname
	je	.LBB30_57
# %bb.55:                               # %land.lhs.true100
	movq	inname, %rax
	cmpq	-8(%rbp), %rax
	je	.LBB30_57
# %bb.56:                               # %if.then102
	callq	process6
.LBB30_57:                              # %if.end103
	cmpq	$0, outname
	je	.LBB30_60
# %bb.58:                               # %land.lhs.true105
	movq	outname, %rax
	cmpq	-8(%rbp), %rax
	je	.LBB30_60
# %bb.59:                               # %if.then107
	callq	process7
.LBB30_60:                              # %if.end108
	movl	$-1, -12(%rbp)
.LBB30_61:                              # %return
	movl	-12(%rbp), %eax
	addq	$16, %rsp
	popq	%rbp
	retq
.Lfunc_end30:
	.size	process, .Lfunc_end30-process
	.cfi_endproc
                                        # -- End function
	.p2align	4, 0x90         # -- Begin function open_input
	.type	open_input,@function
open_input:                             # @open_input
	.cfi_startproc
# %bb.0:                                # %entry
	pushq	%rbp
	.cfi_def_cfa_offset 16
	.cfi_offset %rbp, -16
	movq	%rsp, %rbp
	.cfi_def_cfa_register %rbp
	pushq	%r14
	pushq	%rbx
	subq	$48, %rsp
	.cfi_offset %rbx, -32
	.cfi_offset %r14, -24
	movq	%rsi, %r14
	movq	%rdi, %rbx
	movl	$222222227, -52(%rbp)   # imm = 0xD3ED793
	movl	$555555560, -48(%rbp)   # imm = 0x211D1AE8
	movl	$444444449, -44(%rbp)   # imm = 0x1A7DAF21
	movl	-52(%rbp), %edi
	movl	-48(%rbp), %esi
	movl	-44(%rbp), %edx
	callq	guardMe
	movq	%rbx, -32(%rbp)
	movq	%r14, -64(%rbp)
	movq	f_format, %rax
	movq	%rax, -40(%rbp)
	movq	-64(%rbp), %rax
	movq	$0, 16(%rax)
	cmpq	$0, -32(%rbp)
	jne	.LBB31_2
# %bb.1:                                # %if.then
	callq	open_input0
	jmp	.LBB31_15
.LBB31_2:                               # %if.else
	cmpl	$0, f_decode
	je	.LBB31_4
# %bb.3:                                # %if.then2
	leaq	-32(%rbp), %rdi
	callq	open_input1
	jmp	.LBB31_8
.LBB31_4:                               # %if.else3
	cmpl	$0, f_cat
	jne	.LBB31_7
# %bb.5:                                # %land.lhs.true
	movabsq	$.L.str.41, %rsi
	movq	-32(%rbp), %rdi
	callq	suffix
	cmpq	$0, %rax
	je	.LBB31_7
# %bb.6:                                # %if.then7
	leaq	-20(%rbp), %rdi
	leaq	-32(%rbp), %rsi
	callq	open_input2
	jmp	.LBB31_19
.LBB31_7:                               # %if.end
	leaq	-32(%rbp), %rdi
	callq	open_input3
.LBB31_8:                               # %if.end12
	movabsq	$.L.str.43, %rsi
	movq	inname, %rdi
	callq	fopen
	movq	%rax, in
	cmpq	$0, %rax
	jne	.LBB31_10
# %bb.9:                                # %if.then15
	leaq	-20(%rbp), %rdi
	callq	open_input4
	jmp	.LBB31_19
.LBB31_10:                              # %if.end17
	movq	inname, %rdi
	movq	in, %rsi
	movq	-64(%rbp), %rdx
	callq	okay_as_input
	cmpl	$0, %eax
	jne	.LBB31_12
# %bb.11:                               # %if.then20
	movl	$0, -20(%rbp)
	jmp	.LBB31_19
.LBB31_12:                              # %if.end21
	cmpq	$0, -40(%rbp)
	jne	.LBB31_14
# %bb.13:                               # %if.then23
	leaq	-40(%rbp), %rdi
	callq	open_input5
.LBB31_14:                              # %if.end25
	jmp	.LBB31_15
.LBB31_15:                              # %if.end26
	cmpq	$0, -40(%rbp)
	je	.LBB31_17
# %bb.16:                               # %cond.true
	movq	-40(%rbp), %rdi
	jmp	.LBB31_18
.LBB31_17:                              # %cond.false
	movabsq	$f_ulaw, %rdi
	jmp	.LBB31_18
.LBB31_18:                              # %cond.end
	callq	prepare_io
	movl	$1, -20(%rbp)
.LBB31_19:                              # %return
	movl	-20(%rbp), %eax
	addq	$48, %rsp
	popq	%rbx
	popq	%r14
	popq	%rbp
	retq
.Lfunc_end31:
	.size	open_input, .Lfunc_end31-open_input
	.cfi_endproc
                                        # -- End function
	.p2align	4, 0x90         # -- Begin function open_output
	.type	open_output,@function
open_output:                            # @open_output
	.cfi_startproc
# %bb.0:                                # %entry
	pushq	%rbp
	.cfi_def_cfa_offset 16
	.cfi_offset %rbp, -16
	movq	%rsp, %rbp
	.cfi_def_cfa_register %rbp
	subq	$32, %rsp
	movq	%rdi, -24(%rbp)
	cmpq	$0, -24(%rbp)
	je	.LBB32_2
# %bb.1:                                # %lor.lhs.false
	cmpl	$0, f_cat
	je	.LBB32_3
.LBB32_2:                               # %if.then
	callq	open_output0
	jmp	.LBB32_19
.LBB32_3:                               # %if.else
	movabsq	$codename, %rax
	movabsq	$plainname, %rcx
	movl	$-1, -4(%rbp)
	movl	f_decode, %edx
	cmpl	$0, %edx
	cmovneq	%rcx, %rax
	movq	-24(%rbp), %rdi
	callq	*%rax
	movq	%rax, -16(%rbp)
	movq	-16(%rbp), %rdi
	callq	length_okay
	cmpl	$0, %eax
	jne	.LBB32_5
# %bb.4:                                # %if.then5
	movl	$0, -8(%rbp)
	jmp	.LBB32_20
.LBB32_5:                               # %if.end
	movq	-16(%rbp), %rdi
	movl	$193, %esi
	movl	$438, %edx              # imm = 0x1B6
	movb	$0, %al
	callq	open
	movl	%eax, -4(%rbp)
	cmpl	$0, %eax
	jl	.LBB32_7
# %bb.6:                                # %if.then7
	leaq	-4(%rbp), %rdi
	callq	open_output1
	jmp	.LBB32_14
.LBB32_7:                               # %if.else9
	callq	__errno_location
	cmpl	$17, (%rax)
	je	.LBB32_9
# %bb.8:                                # %if.then13
	movq	$0, out
	jmp	.LBB32_13
.LBB32_9:                               # %if.else14
	movq	-16(%rbp), %rdi
	callq	ok_to_replace
	cmpl	$0, %eax
	je	.LBB32_11
# %bb.10:                               # %if.then17
	leaq	-16(%rbp), %rdi
	callq	open_output2
	jmp	.LBB32_12
.LBB32_11:                              # %if.else19
	movl	$0, -8(%rbp)
	jmp	.LBB32_20
.LBB32_12:                              # %if.end20
	jmp	.LBB32_13
.LBB32_13:                              # %if.end21
	jmp	.LBB32_14
.LBB32_14:                              # %if.end22
	cmpq	$0, out
	jne	.LBB32_18
# %bb.15:                               # %if.then24
	movq	-16(%rbp), %rdi
	callq	perror
	movabsq	$.L.str.52, %rsi
	movq	stderr, %rdi
	movq	progname, %rdx
	movq	-16(%rbp), %rcx
	movb	$0, %al
	callq	fprintf
	cmpl	$0, -4(%rbp)
	jl	.LBB32_17
# %bb.16:                               # %if.then28
	leaq	-4(%rbp), %rdi
	callq	open_output3
.LBB32_17:                              # %if.end30
	movl	$0, -8(%rbp)
	jmp	.LBB32_20
.LBB32_18:                              # %if.end31
	leaq	-16(%rbp), %rdi
	callq	open_output4
.LBB32_19:                              # %if.end32
	movl	$1, -8(%rbp)
.LBB32_20:                              # %return
	movl	-8(%rbp), %eax
	addq	$32, %rsp
	popq	%rbp
	retq
.Lfunc_end32:
	.size	open_output, .Lfunc_end32-open_output
	.cfi_endproc
                                        # -- End function
	.p2align	4, 0x90         # -- Begin function process_decode
	.type	process_decode,@function
process_decode:                         # @process_decode
	.cfi_startproc
# %bb.0:                                # %entry
	pushq	%rbp
	.cfi_def_cfa_offset 16
	.cfi_offset %rbp, -16
	movq	%rsp, %rbp
	.cfi_def_cfa_register %rbp
	subq	$384, %rsp              # imm = 0x180
	callq	gsm_create
	movq	%rax, -16(%rbp)
	cmpq	$0, %rax
	jne	.LBB33_2
# %bb.1:                                # %if.then
	callq	process_decode0
	movl	$-1, -4(%rbp)
	jmp	.LBB33_28
.LBB33_2:                               # %if.end
	leaq	-16(%rbp), %rdi
	callq	process_decode1
.LBB33_3:                               # %while.cond
                                        # =>This Inner Loop Header: Depth=1
	leaq	-64(%rbp), %rdi
	movq	in, %rcx
	movl	$1, %esi
	movl	$33, %edx
	callq	fread
	movl	%eax, -8(%rbp)
	cmpl	$0, %eax
	jle	.LBB33_19
# %bb.4:                                # %while.body
                                        #   in Loop: Header=BB33_3 Depth=1
	movslq	-8(%rbp), %rax
	cmpq	$33, %rax
	je	.LBB33_11
# %bb.5:                                # %if.then8
	cmpl	$0, -8(%rbp)
	jl	.LBB33_10
# %bb.6:                                # %if.then11
	movabsq	$.L.str.50, %r8
	movl	$33, %eax
	movq	stderr, %rdi
	movq	progname, %rdx
	movslq	-8(%rbp), %rsi
	movl	$33, %ecx
	subq	%rsi, %rcx
	movslq	-8(%rbp), %rsi
	subq	%rsi, %rax
	cmpq	$1, %rax
	sete	%al
	andb	$1, %al
	movzbl	%al, %eax
	cltq
	addq	%rax, %r8
	cmpq	$0, inname
	je	.LBB33_8
# %bb.7:                                # %cond.true
	movq	inname, %r9
	jmp	.LBB33_9
.LBB33_8:                               # %cond.false
	movabsq	$.L.str.37, %r9
	jmp	.LBB33_9
.LBB33_9:                               # %cond.end
	movabsq	$.L.str.56, %rsi
	movb	$0, %al
	callq	fprintf
.LBB33_10:                              # %if.end19
	leaq	-4(%rbp), %rdi
	leaq	-16(%rbp), %rsi
	callq	process_decode2
	jmp	.LBB33_28
.LBB33_11:                              # %if.end21
                                        #   in Loop: Header=BB33_3 Depth=1
	leaq	-384(%rbp), %rdx
	leaq	-64(%rbp), %rsi
	movq	-16(%rbp), %rdi
	callq	gsm_decode
	cmpl	$0, %eax
	je	.LBB33_16
# %bb.12:                               # %if.then26
	movq	stderr, %rdi
	movq	progname, %rdx
	cmpq	$0, inname
	je	.LBB33_14
# %bb.13:                               # %cond.true28
	movq	inname, %rcx
	jmp	.LBB33_15
.LBB33_14:                              # %cond.false29
	movabsq	$.L.str.37, %rcx
	jmp	.LBB33_15
.LBB33_15:                              # %cond.end30
	movabsq	$.L.str.57, %rsi
	movb	$0, %al
	callq	fprintf
	movq	-16(%rbp), %rdi
	callq	gsm_destroy
	callq	__errno_location
	movl	$0, (%rax)
	movl	$-1, -4(%rbp)
	jmp	.LBB33_28
.LBB33_16:                              # %if.end34
                                        #   in Loop: Header=BB33_3 Depth=1
	leaq	-384(%rbp), %rdi
	movq	output, %rax
	callq	*%rax
	cmpl	$0, %eax
	jge	.LBB33_18
# %bb.17:                               # %if.then39
	leaq	-16(%rbp), %rdi
	callq	process_decode3
	movl	$-1, -4(%rbp)
	jmp	.LBB33_28
.LBB33_18:                              # %if.end41
                                        #   in Loop: Header=BB33_3 Depth=1
	jmp	.LBB33_3
.LBB33_19:                              # %while.end
	cmpl	$0, -8(%rbp)
	jge	.LBB33_27
# %bb.20:                               # %if.then44
	cmpq	$0, inname
	je	.LBB33_22
# %bb.21:                               # %cond.true46
	movq	inname, %rdi
	jmp	.LBB33_23
.LBB33_22:                              # %cond.false47
	movabsq	$.L.str.37, %rdi
	jmp	.LBB33_23
.LBB33_23:                              # %cond.end48
	callq	perror
	movq	stderr, %rdi
	movq	progname, %rdx
	cmpq	$0, inname
	je	.LBB33_25
# %bb.24:                               # %cond.true51
	movq	inname, %rcx
	jmp	.LBB33_26
.LBB33_25:                              # %cond.false52
	movabsq	$.L.str.37, %rcx
	jmp	.LBB33_26
.LBB33_26:                              # %cond.end53
	movabsq	$.L.str.59, %rsi
	movb	$0, %al
	callq	fprintf
	movq	-16(%rbp), %rdi
	callq	gsm_destroy
	movl	$-1, -4(%rbp)
	jmp	.LBB33_28
.LBB33_27:                              # %if.end56
	leaq	-16(%rbp), %rdi
	callq	process_decode4
	movl	$0, -4(%rbp)
.LBB33_28:                              # %return
	movl	-4(%rbp), %eax
	addq	$384, %rsp              # imm = 0x180
	popq	%rbp
	retq
.Lfunc_end33:
	.size	process_decode, .Lfunc_end33-process_decode
	.cfi_endproc
                                        # -- End function
	.p2align	4, 0x90         # -- Begin function process_encode
	.type	process_encode,@function
process_encode:                         # @process_encode
	.cfi_startproc
# %bb.0:                                # %entry
	pushq	%rbp
	.cfi_def_cfa_offset 16
	.cfi_offset %rbp, -16
	movq	%rsp, %rbp
	.cfi_def_cfa_register %rbp
	subq	$384, %rsp              # imm = 0x180
	callq	gsm_create
	movq	%rax, -16(%rbp)
	cmpq	$0, %rax
	jne	.LBB34_2
# %bb.1:                                # %if.then
	callq	process_encode0
	movl	$-1, -8(%rbp)
	jmp	.LBB34_24
.LBB34_2:                               # %if.end
	leaq	-16(%rbp), %rdi
	callq	process_encode1
.LBB34_3:                               # %while.cond
                                        # =>This Inner Loop Header: Depth=1
	leaq	-384(%rbp), %rdi
	movq	input, %rax
	callq	*%rax
	movl	%eax, -4(%rbp)
	cmpl	$0, %eax
	jle	.LBB34_15
# %bb.4:                                # %while.body
                                        #   in Loop: Header=BB34_3 Depth=1
	movslq	-4(%rbp), %rax
	cmpq	$160, %rax
	jae	.LBB34_6
# %bb.5:                                # %if.then6
                                        #   in Loop: Header=BB34_3 Depth=1
	movl	$320, %edx              # imm = 0x140
	leaq	-384(%rbp), %rdi
	movslq	-4(%rbp), %rax
	shlq	$1, %rax
	addq	%rax, %rdi
	movslq	-4(%rbp), %rax
	shlq	$1, %rax
	subq	%rax, %rdx
	xorl	%esi, %esi
	callq	memset
.LBB34_6:                               # %if.end9
                                        #   in Loop: Header=BB34_3 Depth=1
	leaq	-64(%rbp), %rdx
	leaq	-384(%rbp), %rsi
	movq	-16(%rbp), %rdi
	callq	gsm_encode
	leaq	-64(%rbp), %rdi
	movq	out, %rcx
	movl	$33, %esi
	movl	$1, %edx
	callq	fwrite
	cmpq	$1, %rax
	je	.LBB34_14
# %bb.7:                                # %if.then16
	cmpq	$0, outname
	je	.LBB34_9
# %bb.8:                                # %cond.true
	movq	outname, %rdi
	jmp	.LBB34_10
.LBB34_9:                               # %cond.false
	movabsq	$.L.str.36, %rdi
	jmp	.LBB34_10
.LBB34_10:                              # %cond.end
	callq	perror
	movq	stderr, %rdi
	movq	progname, %rdx
	cmpq	$0, outname
	je	.LBB34_12
# %bb.11:                               # %cond.true19
	movq	outname, %rcx
	jmp	.LBB34_13
.LBB34_12:                              # %cond.false20
	movabsq	$.L.str.36, %rcx
	jmp	.LBB34_13
.LBB34_13:                              # %cond.end21
	movabsq	$.L.str.58, %rsi
	movb	$0, %al
	callq	fprintf
	movq	-16(%rbp), %rdi
	callq	gsm_destroy
	movl	$-1, -8(%rbp)
	jmp	.LBB34_24
.LBB34_14:                              # %if.end24
                                        #   in Loop: Header=BB34_3 Depth=1
	jmp	.LBB34_3
.LBB34_15:                              # %while.end
	cmpl	$0, -4(%rbp)
	jge	.LBB34_23
# %bb.16:                               # %if.then27
	cmpq	$0, inname
	je	.LBB34_18
# %bb.17:                               # %cond.true29
	movq	inname, %rdi
	jmp	.LBB34_19
.LBB34_18:                              # %cond.false30
	movabsq	$.L.str.37, %rdi
	jmp	.LBB34_19
.LBB34_19:                              # %cond.end31
	callq	perror
	movq	stderr, %rdi
	movq	progname, %rdx
	cmpq	$0, inname
	je	.LBB34_21
# %bb.20:                               # %cond.true34
	movq	inname, %rcx
	jmp	.LBB34_22
.LBB34_21:                              # %cond.false35
	movabsq	$.L.str.37, %rcx
	jmp	.LBB34_22
.LBB34_22:                              # %cond.end36
	movabsq	$.L.str.59, %rsi
	movb	$0, %al
	callq	fprintf
	movq	-16(%rbp), %rdi
	callq	gsm_destroy
	movl	$-1, -8(%rbp)
	jmp	.LBB34_24
.LBB34_23:                              # %if.end39
	leaq	-16(%rbp), %rdi
	callq	process_encode2
	movl	$0, -8(%rbp)
.LBB34_24:                              # %return
	movl	-8(%rbp), %eax
	addq	$384, %rsp              # imm = 0x180
	popq	%rbp
	retq
.Lfunc_end34:
	.size	process_encode, .Lfunc_end34-process_encode
	.cfi_endproc
                                        # -- End function
	.p2align	4, 0x90         # -- Begin function update_times
	.type	update_times,@function
update_times:                           # @update_times
	.cfi_startproc
# %bb.0:                                # %entry
	pushq	%rbp
	.cfi_def_cfa_offset 16
	.cfi_offset %rbp, -16
	movq	%rsp, %rbp
	.cfi_def_cfa_register %rbp
	pushq	%rbx
	subq	$24, %rsp
	.cfi_offset %rbx, -24
	movq	instat+16, %rbx
	movl	$222222228, -20(%rbp)   # imm = 0xD3ED794
	movl	$555555561, -16(%rbp)   # imm = 0x211D1AE9
	movl	$444444450, -12(%rbp)   # imm = 0x1A7DAF22
	movl	-20(%rbp), %edi
	movl	-16(%rbp), %esi
	movl	-12(%rbp), %edx
	callq	guardMe
	cmpq	$0, %rbx
	jne	.LBB35_2
# %bb.1:                                # %if.then
	jmp	.LBB35_4
.LBB35_2:                               # %if.end
	cmpq	$0, outname
	je	.LBB35_4
# %bb.3:                                # %if.then2
	callq	update_times0
.LBB35_4:                               # %if.end4
	addq	$24, %rsp
	popq	%rbx
	popq	%rbp
	retq
.Lfunc_end35:
	.size	update_times, .Lfunc_end35-update_times
	.cfi_endproc
                                        # -- End function
	.p2align	4, 0x90         # -- Begin function update_mode
	.type	update_mode,@function
update_mode:                            # @update_mode
	.cfi_startproc
# %bb.0:                                # %entry
	pushq	%rbp
	.cfi_def_cfa_offset 16
	.cfi_offset %rbp, -16
	movq	%rsp, %rbp
	.cfi_def_cfa_register %rbp
	cmpq	$0, instat+16
	jne	.LBB36_2
# %bb.1:                                # %if.then
	jmp	.LBB36_4
.LBB36_2:                               # %if.end
	movq	out, %rdi
	movb	$0, %al
	callq	fileno
	movl	instat+24, %esi
	andl	$4095, %esi             # imm = 0xFFF
	movl	%eax, %edi
	movb	$0, %al
	callq	fchmod
	cmpl	$0, %eax
	je	.LBB36_4
# %bb.3:                                # %if.then3
	callq	update_mode0
.LBB36_4:                               # %if.end5
	popq	%rbp
	retq
.Lfunc_end36:
	.size	update_mode, .Lfunc_end36-update_mode
	.cfi_endproc
                                        # -- End function
	.p2align	4, 0x90         # -- Begin function update_own
	.type	update_own,@function
update_own:                             # @update_own
	.cfi_startproc
# %bb.0:                                # %entry
	pushq	%rbp
	.cfi_def_cfa_offset 16
	.cfi_offset %rbp, -16
	movq	%rsp, %rbp
	.cfi_def_cfa_register %rbp
	cmpq	$0, instat+16
	jne	.LBB37_2
# %bb.1:                                # %if.then
	jmp	.LBB37_3
.LBB37_2:                               # %if.end
	callq	update_own0
.LBB37_3:                               # %return
	popq	%rbp
	retq
.Lfunc_end37:
	.size	update_own, .Lfunc_end37-update_own
	.cfi_endproc
                                        # -- End function
	.globl	process0                # -- Begin function process0
	.p2align	4, 0x90
	.type	process0,@function
process0:                               # @process0
	.cfi_startproc
# %bb.0:                                # %entry
	pushq	%rax
	.cfi_def_cfa_offset 16
	movq	outname(%rip), %rdi
	callq	perror
	movq	stderr(%rip), %rdi
	movq	progname(%rip), %rdx
	movq	outname(%rip), %rcx
	movl	$.L.str.38, %esi
	xorl	%eax, %eax
	callq	fprintf
	popq	%rax
	retq
.Lfunc_end38:
	.size	process0, .Lfunc_end38-process0
	.cfi_endproc
                                        # -- End function
	.globl	process1                # -- Begin function process1
	.p2align	4, 0x90
	.type	process1,@function
process1:                               # @process1
	.cfi_startproc
# %bb.0:                                # %entry
	pushq	%rax
	.cfi_def_cfa_offset 16
	movq	outname(%rip), %rdi
	callq	free
	popq	%rax
	retq
.Lfunc_end39:
	.size	process1, .Lfunc_end39-process1
	.cfi_endproc
                                        # -- End function
	.globl	process2                # -- Begin function process2
	.p2align	4, 0x90
	.type	process2,@function
process2:                               # @process2
	.cfi_startproc
# %bb.0:                                # %entry
	pushq	%rax
	.cfi_def_cfa_offset 16
	movq	inname(%rip), %rdi
	callq	perror
	movq	stderr(%rip), %rdi
	movq	progname(%rip), %rdx
	movq	inname(%rip), %rcx
	movl	$.L.str.39, %esi
	xorl	%eax, %eax
	callq	fprintf
	popq	%rax
	retq
.Lfunc_end40:
	.size	process2, .Lfunc_end40-process2
	.cfi_endproc
                                        # -- End function
	.globl	process3                # -- Begin function process3
	.p2align	4, 0x90
	.type	process3,@function
process3:                               # @process3
	.cfi_startproc
# %bb.0:                                # %entry
	pushq	%rax
	.cfi_def_cfa_offset 16
	movq	inname(%rip), %rdi
	callq	free
	popq	%rax
	retq
.Lfunc_end41:
	.size	process3, .Lfunc_end41-process3
	.cfi_endproc
                                        # -- End function
	.globl	process4                # -- Begin function process4
	.p2align	4, 0x90
	.type	process4,@function
process4:                               # @process4
	.cfi_startproc
# %bb.0:                                # %entry
	pushq	%rax
	.cfi_def_cfa_offset 16
	movq	outname(%rip), %rdi
	callq	perror
	movq	stderr(%rip), %rdi
	movq	progname(%rip), %rdx
	movq	outname(%rip), %rcx
	movl	$.L.str.40, %esi
	xorl	%eax, %eax
	callq	fprintf
	popq	%rax
	retq
.Lfunc_end42:
	.size	process4, .Lfunc_end42-process4
	.cfi_endproc
                                        # -- End function
	.globl	process5                # -- Begin function process5
	.p2align	4, 0x90
	.type	process5,@function
process5:                               # @process5
	.cfi_startproc
# %bb.0:                                # %entry
	pushq	%rax
	.cfi_def_cfa_offset 16
	movq	in(%rip), %rdi
	callq	fclose
	movq	$0, in(%rip)
	popq	%rax
	retq
.Lfunc_end43:
	.size	process5, .Lfunc_end43-process5
	.cfi_endproc
                                        # -- End function
	.globl	process6                # -- Begin function process6
	.p2align	4, 0x90
	.type	process6,@function
process6:                               # @process6
	.cfi_startproc
# %bb.0:                                # %entry
	pushq	%rax
	.cfi_def_cfa_offset 16
	movq	inname(%rip), %rdi
	callq	free
	popq	%rax
	retq
.Lfunc_end44:
	.size	process6, .Lfunc_end44-process6
	.cfi_endproc
                                        # -- End function
	.globl	process7                # -- Begin function process7
	.p2align	4, 0x90
	.type	process7,@function
process7:                               # @process7
	.cfi_startproc
# %bb.0:                                # %entry
	pushq	%rax
	.cfi_def_cfa_offset 16
	movq	outname(%rip), %rdi
	callq	free
	popq	%rax
	retq
.Lfunc_end45:
	.size	process7, .Lfunc_end45-process7
	.cfi_endproc
                                        # -- End function
	.globl	update_own0             # -- Begin function update_own0
	.p2align	4, 0x90
	.type	update_own0,@function
update_own0:                            # @update_own0
	.cfi_startproc
# %bb.0:                                # %entry
	pushq	%rax
	.cfi_def_cfa_offset 16
	movq	out(%rip), %rdi
	xorl	%eax, %eax
	callq	fileno
	movl	%eax, %ecx
	movl	instat+28(%rip), %esi
	movl	instat+32(%rip), %edx
	xorl	%eax, %eax
	movl	%ecx, %edi
	callq	fchown
	popq	%rax
	retq
.Lfunc_end46:
	.size	update_own0, .Lfunc_end46-update_own0
	.cfi_endproc
                                        # -- End function
	.globl	update_mode0            # -- Begin function update_mode0
	.p2align	4, 0x90
	.type	update_mode0,@function
update_mode0:                           # @update_mode0
	.cfi_startproc
# %bb.0:                                # %entry
	pushq	%rax
	.cfi_def_cfa_offset 16
	movq	outname(%rip), %rdi
	callq	perror
	movq	stderr(%rip), %rdi
	movq	progname(%rip), %rdx
	movq	outname(%rip), %rcx
	movl	$.L.str.60, %esi
	xorl	%eax, %eax
	callq	fprintf
	popq	%rax
	retq
.Lfunc_end47:
	.size	update_mode0, .Lfunc_end47-update_mode0
	.cfi_endproc
                                        # -- End function
	.globl	update_times0           # -- Begin function update_times0
	.p2align	4, 0x90
	.type	update_times0,@function
update_times0:                          # @update_times0
	.cfi_startproc
# %bb.0:                                # %entry
	subq	$24, %rsp
	.cfi_def_cfa_offset 32
	movq	instat+72(%rip), %rax
	movq	%rax, (%rsp)
	movq	instat+88(%rip), %rax
	movq	%rax, 8(%rsp)
	movq	outname(%rip), %rdi
	movq	%rsp, %rsi
	callq	utime
	addq	$24, %rsp
	retq
.Lfunc_end48:
	.size	update_times0, .Lfunc_end48-update_times0
	.cfi_endproc
                                        # -- End function
	.globl	gsm_create              # -- Begin function gsm_create
	.p2align	4, 0x90
	.type	gsm_create,@function
gsm_create:                             # @gsm_create
	.cfi_startproc
# %bb.0:                                # %entry
	pushq	%rbp
	.cfi_def_cfa_offset 16
	.cfi_offset %rbp, -16
	movq	%rsp, %rbp
	.cfi_def_cfa_register %rbp
	pushq	%r14
	pushq	%rbx
	subq	$16, %rsp
	.cfi_offset %rbx, -32
	.cfi_offset %r14, -24
	movl	$656, %edi              # imm = 0x290
	callq	malloc
	movq	%rax, -24(%rbp)
	cmpq	$0, -24(%rbp)
	jne	.LBB49_2
# %bb.1:                                # %if.then
	leaq	-32(%rbp), %rdi
	leaq	-24(%rbp), %rsi
	callq	gsm_create0
	jmp	.LBB49_3
.LBB49_2:                               # %if.end
	leaq	-32(%rbp), %rbx
	leaq	-24(%rbp), %r14
	movq	-24(%rbp), %rdi
	xorl	%esi, %esi
	movl	$656, %edx              # imm = 0x290
	callq	memset
	movq	%rbx, %rdi
	movq	%r14, %rsi
	callq	gsm_create1
.LBB49_3:                               # %return
	movq	-32(%rbp), %rax
	addq	$16, %rsp
	popq	%rbx
	popq	%r14
	popq	%rbp
	retq
.Lfunc_end49:
	.size	gsm_create, .Lfunc_end49-gsm_create
	.cfi_endproc
                                        # -- End function
	.globl	process_encode0         # -- Begin function process_encode0
	.p2align	4, 0x90
	.type	process_encode0,@function
process_encode0:                        # @process_encode0
	.cfi_startproc
# %bb.0:                                # %entry
	pushq	%rax
	.cfi_def_cfa_offset 16
	movq	progname(%rip), %rdi
	callq	perror
	popq	%rax
	retq
.Lfunc_end50:
	.size	process_encode0, .Lfunc_end50-process_encode0
	.cfi_endproc
                                        # -- End function
	.globl	process_encode1         # -- Begin function process_encode1
	.p2align	4, 0x90
	.type	process_encode1,@function
process_encode1:                        # @process_encode1
	.cfi_startproc
# %bb.0:                                # %entry
	subq	$24, %rsp
	.cfi_def_cfa_offset 32
	movq	%rdi, 16(%rsp)
	movq	(%rdi), %rdi
	movq	%rdi, 8(%rsp)
	movl	$2, %esi
	movl	$f_fast, %edx
	callq	gsm_option
	movq	8(%rsp), %rdi
	movl	$1, %esi
	movl	$f_verbose, %edx
	callq	gsm_option
	movq	16(%rsp), %rax
	movq	8(%rsp), %rcx
	movq	%rcx, (%rax)
	addq	$24, %rsp
	retq
.Lfunc_end51:
	.size	process_encode1, .Lfunc_end51-process_encode1
	.cfi_endproc
                                        # -- End function
	.globl	gsm_encode              # -- Begin function gsm_encode
	.p2align	4, 0x90
	.type	gsm_encode,@function
gsm_encode:                             # @gsm_encode
	.cfi_startproc
# %bb.0:                                # %entry
	pushq	%rbp
	.cfi_def_cfa_offset 16
	.cfi_offset %rbp, -16
	movq	%rsp, %rbp
	.cfi_def_cfa_register %rbp
	pushq	%r15
	pushq	%r14
	pushq	%rbx
	subq	$40, %rsp
	.cfi_offset %rbx, -40
	.cfi_offset %r14, -32
	.cfi_offset %r15, -24
	movq	%rdx, %r14
	movq	%rsi, %r15
	movq	%rdi, %rbx
	movl	$222222243, -36(%rbp)   # imm = 0xD3ED7A3
	movl	$555555576, -32(%rbp)   # imm = 0x211D1AF8
	movl	$444444465, -28(%rbp)   # imm = 0x1A7DAF31
	movl	-36(%rbp), %edi
	movl	-32(%rbp), %esi
	movl	-28(%rbp), %edx
	callq	guardMe
	leaq	-48(%rbp), %rdi
	leaq	-64(%rbp), %rsi
	leaq	-56(%rbp), %rdx
	movq	%rbx, -64(%rbp)
	movq	%r15, -56(%rbp)
	movq	%r14, -48(%rbp)
	callq	gsm_encode0
	addq	$40, %rsp
	popq	%rbx
	popq	%r14
	popq	%r15
	popq	%rbp
	retq
.Lfunc_end52:
	.size	gsm_encode, .Lfunc_end52-gsm_encode
	.cfi_endproc
                                        # -- End function
	.globl	gsm_destroy             # -- Begin function gsm_destroy
	.p2align	4, 0x90
	.type	gsm_destroy,@function
gsm_destroy:                            # @gsm_destroy
	.cfi_startproc
# %bb.0:                                # %entry
	pushq	%rbp
	.cfi_def_cfa_offset 16
	.cfi_offset %rbp, -16
	movq	%rsp, %rbp
	.cfi_def_cfa_register %rbp
	subq	$16, %rsp
	movq	%rdi, -8(%rbp)
	cmpq	$0, -8(%rbp)
	je	.LBB53_2
# %bb.1:                                # %if.then
	leaq	-8(%rbp), %rdi
	callq	gsm_destroy0
.LBB53_2:                               # %if.end
	addq	$16, %rsp
	popq	%rbp
	retq
.Lfunc_end53:
	.size	gsm_destroy, .Lfunc_end53-gsm_destroy
	.cfi_endproc
                                        # -- End function
	.globl	process_encode2         # -- Begin function process_encode2
	.p2align	4, 0x90
	.type	process_encode2,@function
process_encode2:                        # @process_encode2
	.cfi_startproc
# %bb.0:                                # %entry
	subq	$24, %rsp
	.cfi_def_cfa_offset 32
	movq	%rdi, 16(%rsp)
	movq	(%rdi), %rdi
	movq	%rdi, 8(%rsp)
	callq	gsm_destroy
	movq	16(%rsp), %rax
	movq	8(%rsp), %rcx
	movq	%rcx, (%rax)
	addq	$24, %rsp
	retq
.Lfunc_end54:
	.size	process_encode2, .Lfunc_end54-process_encode2
	.cfi_endproc
                                        # -- End function
	.globl	gsm_destroy0            # -- Begin function gsm_destroy0
	.p2align	4, 0x90
	.type	gsm_destroy0,@function
gsm_destroy0:                           # @gsm_destroy0
	.cfi_startproc
# %bb.0:                                # %entry
	subq	$24, %rsp
	.cfi_def_cfa_offset 32
	movq	%rdi, 16(%rsp)
	movq	(%rdi), %rdi
	movq	%rdi, 8(%rsp)
	callq	free
	movq	16(%rsp), %rax
	movq	8(%rsp), %rcx
	movq	%rcx, (%rax)
	addq	$24, %rsp
	retq
.Lfunc_end55:
	.size	gsm_destroy0, .Lfunc_end55-gsm_destroy0
	.cfi_endproc
                                        # -- End function
	.globl	gsm_encode0             # -- Begin function gsm_encode0
	.p2align	4, 0x90
	.type	gsm_encode0,@function
gsm_encode0:                            # @gsm_encode0
	.cfi_startproc
# %bb.0:                                # %entry
	subq	$216, %rsp
	.cfi_def_cfa_offset 224
	movq	%rdi, 208(%rsp)
	movq	(%rdi), %rax
	movq	%rax, 8(%rsp)
	movq	%rsi, 200(%rsp)
	movq	(%rsi), %rdi
	movq	%rdi, 192(%rsp)
	movq	%rdx, 184(%rsp)
	movq	(%rdx), %rsi
	movq	%rsi, 176(%rsp)
	leaq	48(%rsp), %rax
	leaq	24(%rsp), %r10
	leaq	32(%rsp), %rdx
	leaq	168(%rsp), %rcx
	leaq	16(%rsp), %r8
	leaq	160(%rsp), %r9
	pushq	%rax
	.cfi_adjust_cfa_offset 8
	pushq	%r10
	.cfi_adjust_cfa_offset 8
	callq	Gsm_Coder
	addq	$16, %rsp
	.cfi_adjust_cfa_offset -16
	movl	32(%rsp), %eax
	shrl	$2, %eax
	andl	$15, %eax
	orl	$208, %eax
	movq	8(%rsp), %rcx
	leaq	1(%rcx), %rdx
	movq	%rdx, 8(%rsp)
	movb	%al, (%rcx)
	movl	32(%rsp), %eax
	shll	$6, %eax
	movzwl	34(%rsp), %ecx
	andl	$63, %ecx
	orl	%eax, %ecx
	movq	8(%rsp), %rax
	leaq	1(%rax), %rdx
	movq	%rdx, 8(%rsp)
	movb	%cl, (%rax)
	movl	36(%rsp), %eax
	movzwl	38(%rsp), %ecx
	shrl	$2, %ecx
	andl	$7, %ecx
	leal	(%rcx,%rax,8), %eax
	movq	8(%rsp), %rcx
	leaq	1(%rcx), %rdx
	movq	%rdx, 8(%rsp)
	movb	%al, (%rcx)
	movzwl	38(%rsp), %eax
	shll	$6, %eax
	movzwl	40(%rsp), %ecx
	andl	$15, %ecx
	leal	(%rax,%rcx,4), %eax
	movzwl	42(%rsp), %ecx
	shrl	$2, %ecx
	andl	$3, %ecx
	orl	%eax, %ecx
	movq	8(%rsp), %rax
	leaq	1(%rax), %rdx
	movq	%rdx, 8(%rsp)
	movb	%cl, (%rax)
	movzwl	42(%rsp), %eax
	shll	$6, %eax
	movzwl	44(%rsp), %ecx
	andl	$7, %ecx
	leal	(%rax,%rcx,8), %eax
	movzwl	46(%rsp), %ecx
	andl	$7, %ecx
	orl	%eax, %ecx
	movq	8(%rsp), %rax
	leaq	1(%rax), %rdx
	movq	%rdx, 8(%rsp)
	movb	%cl, (%rax)
	movzwl	168(%rsp), %eax
	movzwl	16(%rsp), %ecx
	shrl	%ecx
	andl	$1, %ecx
	leal	(%rcx,%rax,2), %eax
	movq	8(%rsp), %rcx
	leaq	1(%rcx), %rdx
	movq	%rdx, 8(%rsp)
	movb	%al, (%rcx)
	movzwl	16(%rsp), %eax
	shll	$7, %eax
	movzwl	160(%rsp), %ecx
	andl	$3, %ecx
	shll	$5, %ecx
	orl	%eax, %ecx
	movzwl	24(%rsp), %eax
	shrl	%eax
	andl	$31, %eax
	orl	%ecx, %eax
	movq	8(%rsp), %rcx
	leaq	1(%rcx), %rdx
	movq	%rdx, 8(%rsp)
	movb	%al, (%rcx)
	movzwl	24(%rsp), %eax
	shll	$7, %eax
	movzwl	48(%rsp), %ecx
	andl	$7, %ecx
	shll	$4, %ecx
	orl	%eax, %ecx
	movzwl	50(%rsp), %eax
	andl	$7, %eax
	leal	(%rcx,%rax,2), %eax
	movzwl	52(%rsp), %ecx
	shrl	$2, %ecx
	andl	$1, %ecx
	orl	%eax, %ecx
	movq	8(%rsp), %rax
	leaq	1(%rax), %rdx
	movq	%rdx, 8(%rsp)
	movb	%cl, (%rax)
	movl	52(%rsp), %eax
	shll	$6, %eax
	movzwl	54(%rsp), %ecx
	andl	$7, %ecx
	leal	(%rax,%rcx,8), %eax
	movzwl	56(%rsp), %ecx
	andl	$7, %ecx
	orl	%eax, %ecx
	movq	8(%rsp), %rax
	leaq	1(%rax), %rdx
	movq	%rdx, 8(%rsp)
	movb	%cl, (%rax)
	movzwl	58(%rsp), %eax
	shll	$5, %eax
	movzwl	60(%rsp), %ecx
	andl	$7, %ecx
	leal	(%rax,%rcx,4), %eax
	movzwl	62(%rsp), %ecx
	shrl	%ecx
	andl	$3, %ecx
	orl	%eax, %ecx
	movq	8(%rsp), %rax
	leaq	1(%rax), %rdx
	movq	%rdx, 8(%rsp)
	movb	%cl, (%rax)
	movzwl	62(%rsp), %eax
	shll	$7, %eax
	movzwl	64(%rsp), %ecx
	andl	$7, %ecx
	shll	$4, %ecx
	orl	%eax, %ecx
	movzwl	66(%rsp), %eax
	andl	$7, %eax
	leal	(%rcx,%rax,2), %eax
	movzwl	68(%rsp), %ecx
	shrl	$2, %ecx
	andl	$1, %ecx
	orl	%eax, %ecx
	movq	8(%rsp), %rax
	leaq	1(%rax), %rdx
	movq	%rdx, 8(%rsp)
	movb	%cl, (%rax)
	movl	68(%rsp), %eax
	shll	$6, %eax
	movzwl	70(%rsp), %ecx
	andl	$7, %ecx
	leal	(%rax,%rcx,8), %eax
	movzwl	72(%rsp), %ecx
	andl	$7, %ecx
	orl	%eax, %ecx
	movq	8(%rsp), %rax
	leaq	1(%rax), %rdx
	movq	%rdx, 8(%rsp)
	movb	%cl, (%rax)
	movzwl	170(%rsp), %eax
	movzwl	18(%rsp), %ecx
	shrl	%ecx
	andl	$1, %ecx
	leal	(%rcx,%rax,2), %eax
	movq	8(%rsp), %rcx
	leaq	1(%rcx), %rdx
	movq	%rdx, 8(%rsp)
	movb	%al, (%rcx)
	movzwl	18(%rsp), %eax
	shll	$7, %eax
	movzwl	162(%rsp), %ecx
	andl	$3, %ecx
	shll	$5, %ecx
	orl	%eax, %ecx
	movzwl	26(%rsp), %eax
	shrl	%eax
	andl	$31, %eax
	orl	%ecx, %eax
	movq	8(%rsp), %rcx
	leaq	1(%rcx), %rdx
	movq	%rdx, 8(%rsp)
	movb	%al, (%rcx)
	movzwl	26(%rsp), %eax
	shll	$7, %eax
	movzwl	74(%rsp), %ecx
	andl	$7, %ecx
	shll	$4, %ecx
	orl	%eax, %ecx
	movzwl	76(%rsp), %eax
	andl	$7, %eax
	leal	(%rcx,%rax,2), %eax
	movzwl	78(%rsp), %ecx
	shrl	$2, %ecx
	andl	$1, %ecx
	orl	%eax, %ecx
	movq	8(%rsp), %rax
	leaq	1(%rax), %rdx
	movq	%rdx, 8(%rsp)
	movb	%cl, (%rax)
	movzwl	78(%rsp), %eax
	shll	$6, %eax
	movzwl	80(%rsp), %ecx
	andl	$7, %ecx
	leal	(%rax,%rcx,8), %eax
	movzwl	82(%rsp), %ecx
	andl	$7, %ecx
	orl	%eax, %ecx
	movq	8(%rsp), %rax
	leaq	1(%rax), %rdx
	movq	%rdx, 8(%rsp)
	movb	%cl, (%rax)
	movl	84(%rsp), %eax
	movl	88(%rsp), %ecx
	shll	$5, %eax
	movzwl	86(%rsp), %edx
	andl	$7, %edx
	leal	(%rax,%rdx,4), %eax
	shrl	%ecx
	andl	$3, %ecx
	orl	%eax, %ecx
	movq	8(%rsp), %rax
	leaq	1(%rax), %rdx
	movq	%rdx, 8(%rsp)
	movb	%cl, (%rax)
	movl	88(%rsp), %eax
	shll	$7, %eax
	movzwl	90(%rsp), %ecx
	andl	$7, %ecx
	shll	$4, %ecx
	orl	%eax, %ecx
	movzwl	92(%rsp), %eax
	andl	$7, %eax
	leal	(%rcx,%rax,2), %eax
	movzwl	94(%rsp), %ecx
	shrl	$2, %ecx
	andl	$1, %ecx
	orl	%eax, %ecx
	movq	8(%rsp), %rax
	leaq	1(%rax), %rdx
	movq	%rdx, 8(%rsp)
	movb	%cl, (%rax)
	movzwl	94(%rsp), %eax
	shll	$6, %eax
	movzwl	96(%rsp), %ecx
	andl	$7, %ecx
	leal	(%rax,%rcx,8), %eax
	movzwl	98(%rsp), %ecx
	andl	$7, %ecx
	orl	%eax, %ecx
	movq	8(%rsp), %rax
	leaq	1(%rax), %rdx
	movq	%rdx, 8(%rsp)
	movb	%cl, (%rax)
	movzwl	172(%rsp), %eax
	movzwl	20(%rsp), %ecx
	shrl	%ecx
	andl	$1, %ecx
	leal	(%rcx,%rax,2), %eax
	movq	8(%rsp), %rcx
	leaq	1(%rcx), %rdx
	movq	%rdx, 8(%rsp)
	movb	%al, (%rcx)
	movzwl	20(%rsp), %eax
	shll	$7, %eax
	movzwl	164(%rsp), %ecx
	andl	$3, %ecx
	shll	$5, %ecx
	orl	%eax, %ecx
	movzwl	28(%rsp), %eax
	shrl	%eax
	andl	$31, %eax
	orl	%ecx, %eax
	movq	8(%rsp), %rcx
	leaq	1(%rcx), %rdx
	movq	%rdx, 8(%rsp)
	movb	%al, (%rcx)
	movzwl	28(%rsp), %eax
	shll	$7, %eax
	movzwl	100(%rsp), %ecx
	andl	$7, %ecx
	shll	$4, %ecx
	orl	%eax, %ecx
	movzwl	102(%rsp), %eax
	andl	$7, %eax
	leal	(%rcx,%rax,2), %eax
	movzwl	104(%rsp), %ecx
	shrl	$2, %ecx
	andl	$1, %ecx
	orl	%eax, %ecx
	movq	8(%rsp), %rax
	leaq	1(%rax), %rdx
	movq	%rdx, 8(%rsp)
	movb	%cl, (%rax)
	movl	104(%rsp), %eax
	shll	$6, %eax
	movzwl	106(%rsp), %ecx
	andl	$7, %ecx
	leal	(%rax,%rcx,8), %eax
	movzwl	108(%rsp), %ecx
	andl	$7, %ecx
	orl	%eax, %ecx
	movq	8(%rsp), %rax
	leaq	1(%rax), %rdx
	movq	%rdx, 8(%rsp)
	movb	%cl, (%rax)
	movzwl	110(%rsp), %eax
	shll	$5, %eax
	movzwl	112(%rsp), %ecx
	andl	$7, %ecx
	leal	(%rax,%rcx,4), %eax
	movzwl	114(%rsp), %ecx
	shrl	%ecx
	andl	$3, %ecx
	orl	%eax, %ecx
	movq	8(%rsp), %rax
	leaq	1(%rax), %rdx
	movq	%rdx, 8(%rsp)
	movb	%cl, (%rax)
	movzwl	114(%rsp), %eax
	shll	$7, %eax
	movzwl	116(%rsp), %ecx
	andl	$7, %ecx
	shll	$4, %ecx
	orl	%eax, %ecx
	movzwl	118(%rsp), %eax
	andl	$7, %eax
	leal	(%rcx,%rax,2), %eax
	movzwl	120(%rsp), %ecx
	shrl	$2, %ecx
	andl	$1, %ecx
	orl	%eax, %ecx
	movq	8(%rsp), %rax
	leaq	1(%rax), %rdx
	movq	%rdx, 8(%rsp)
	movb	%cl, (%rax)
	movl	120(%rsp), %eax
	shll	$6, %eax
	movzwl	122(%rsp), %ecx
	andl	$7, %ecx
	leal	(%rax,%rcx,8), %eax
	movzwl	124(%rsp), %ecx
	andl	$7, %ecx
	orl	%eax, %ecx
	movq	8(%rsp), %rax
	leaq	1(%rax), %rdx
	movq	%rdx, 8(%rsp)
	movb	%cl, (%rax)
	movzwl	174(%rsp), %eax
	movzwl	22(%rsp), %ecx
	shrl	%ecx
	andl	$1, %ecx
	leal	(%rcx,%rax,2), %eax
	movq	8(%rsp), %rcx
	leaq	1(%rcx), %rdx
	movq	%rdx, 8(%rsp)
	movb	%al, (%rcx)
	movzwl	22(%rsp), %eax
	shll	$7, %eax
	movzwl	166(%rsp), %ecx
	andl	$3, %ecx
	shll	$5, %ecx
	orl	%eax, %ecx
	movzwl	30(%rsp), %eax
	shrl	%eax
	andl	$31, %eax
	orl	%ecx, %eax
	movq	8(%rsp), %rcx
	leaq	1(%rcx), %rdx
	movq	%rdx, 8(%rsp)
	movb	%al, (%rcx)
	movzwl	30(%rsp), %eax
	shll	$7, %eax
	movzwl	126(%rsp), %ecx
	andl	$7, %ecx
	shll	$4, %ecx
	orl	%eax, %ecx
	movzwl	128(%rsp), %eax
	andl	$7, %eax
	leal	(%rcx,%rax,2), %eax
	movzwl	130(%rsp), %ecx
	shrl	$2, %ecx
	andl	$1, %ecx
	orl	%eax, %ecx
	movq	8(%rsp), %rax
	leaq	1(%rax), %rdx
	movq	%rdx, 8(%rsp)
	movb	%cl, (%rax)
	movzwl	130(%rsp), %eax
	shll	$6, %eax
	movzwl	132(%rsp), %ecx
	andl	$7, %ecx
	leal	(%rax,%rcx,8), %eax
	movzwl	134(%rsp), %ecx
	andl	$7, %ecx
	orl	%eax, %ecx
	movq	8(%rsp), %rax
	leaq	1(%rax), %rdx
	movq	%rdx, 8(%rsp)
	movb	%cl, (%rax)
	movl	136(%rsp), %eax
	movl	140(%rsp), %ecx
	shll	$5, %eax
	movzwl	138(%rsp), %edx
	andl	$7, %edx
	leal	(%rax,%rdx,4), %eax
	shrl	%ecx
	andl	$3, %ecx
	orl	%eax, %ecx
	movq	8(%rsp), %rax
	leaq	1(%rax), %rdx
	movq	%rdx, 8(%rsp)
	movb	%cl, (%rax)
	movl	140(%rsp), %eax
	shll	$7, %eax
	movzwl	142(%rsp), %ecx
	andl	$7, %ecx
	shll	$4, %ecx
	orl	%eax, %ecx
	movzwl	144(%rsp), %eax
	andl	$7, %eax
	leal	(%rcx,%rax,2), %eax
	movzwl	146(%rsp), %ecx
	shrl	$2, %ecx
	andl	$1, %ecx
	orl	%eax, %ecx
	movq	8(%rsp), %rax
	leaq	1(%rax), %rdx
	movq	%rdx, 8(%rsp)
	movb	%cl, (%rax)
	movzwl	146(%rsp), %eax
	shll	$6, %eax
	movzwl	148(%rsp), %ecx
	andl	$7, %ecx
	leal	(%rax,%rcx,8), %eax
	movzwl	150(%rsp), %ecx
	andl	$7, %ecx
	orl	%eax, %ecx
	movq	8(%rsp), %rax
	leaq	1(%rax), %rdx
	movq	%rdx, 8(%rsp)
	movb	%cl, (%rax)
	movq	184(%rsp), %rax
	movq	176(%rsp), %rcx
	movq	%rcx, (%rax)
	movq	200(%rsp), %rax
	movq	192(%rsp), %rcx
	movq	%rcx, (%rax)
	movq	208(%rsp), %rax
	movq	8(%rsp), %rcx
	movq	%rcx, (%rax)
	addq	$216, %rsp
	retq
.Lfunc_end56:
	.size	gsm_encode0, .Lfunc_end56-gsm_encode0
	.cfi_endproc
                                        # -- End function
	.globl	Gsm_Coder               # -- Begin function Gsm_Coder
	.p2align	4, 0x90
	.type	Gsm_Coder,@function
Gsm_Coder:                              # @Gsm_Coder
	.cfi_startproc
# %bb.0:                                # %entry
	pushq	%rbp
	.cfi_def_cfa_offset 16
	.cfi_offset %rbp, -16
	movq	%rsp, %rbp
	.cfi_def_cfa_register %rbp
	subq	$416, %rsp              # imm = 0x1A0
	movq	24(%rbp), %rax
	movq	16(%rbp), %rax
	leaq	-400(%rbp), %rax
	movq	%rdi, -16(%rbp)
	movq	%rsi, -80(%rbp)
	movq	%rdx, -72(%rbp)
	movq	%rcx, -64(%rbp)
	movq	%r8, -56(%rbp)
	movq	%r9, -48(%rbp)
	movq	-16(%rbp), %rcx
	addq	$240, %rcx
	movq	%rcx, -24(%rbp)
	movq	-24(%rbp), %rcx
	movq	%rcx, -32(%rbp)
	movq	-16(%rbp), %rdi
	movq	-80(%rbp), %rsi
	movq	%rax, %rdx
	callq	Gsm_Preprocess
	leaq	-400(%rbp), %rsi
	movq	-16(%rbp), %rdi
	movq	-72(%rbp), %rdx
	callq	Gsm_LPC_Analysis
	leaq	-400(%rbp), %rdx
	movq	-16(%rbp), %rdi
	movq	-72(%rbp), %rsi
	callq	Gsm_Short_Term_Analysis_Filter
	movl	$0, -8(%rbp)
.LBB57_1:                               # %for.cond
                                        # =>This Loop Header: Depth=1
                                        #     Child Loop BB57_3 Depth 2
	cmpl	$3, -8(%rbp)
	jg	.LBB57_11
# %bb.2:                                # %for.body
                                        #   in Loop: Header=BB57_1 Depth=1
	movabsq	$Gsm_Coder.e, %rcx
	addq	$10, %rcx
	leaq	-400(%rbp), %rsi
	movq	-16(%rbp), %rdi
	imull	$40, -8(%rbp), %eax
	cltq
	shlq	$1, %rax
	addq	%rax, %rsi
	movq	-24(%rbp), %rdx
	movq	-32(%rbp), %r8
	movq	-64(%rbp), %r9
	movq	%r9, %rax
	addq	$2, %rax
	movq	%rax, -64(%rbp)
	movq	-56(%rbp), %r10
	movq	%r10, %rax
	addq	$2, %rax
	movq	%rax, -56(%rbp)
	movq	%r10, (%rsp)
	callq	Gsm_Long_Term_Predictor
	movabsq	$Gsm_Coder.e, %rsi
	addq	$10, %rsi
	movq	-16(%rbp), %rdi
	movq	16(%rbp), %rdx
	movq	%rdx, %rax
	addq	$2, %rax
	movq	%rax, 16(%rbp)
	movq	-48(%rbp), %rcx
	movq	%rcx, %rax
	addq	$2, %rax
	movq	%rax, -48(%rbp)
	movq	24(%rbp), %r8
	callq	Gsm_RPE_Encoding
	movl	$0, -4(%rbp)
.LBB57_3:                               # %for.cond9
                                        #   Parent Loop BB57_1 Depth=1
                                        # =>  This Inner Loop Header: Depth=2
	cmpl	$39, -4(%rbp)
	jg	.LBB57_9
# %bb.4:                                # %for.body11
                                        #   in Loop: Header=BB57_3 Depth=2
	movl	-4(%rbp), %eax
	addl	$5, %eax
	cltq
	movswq	Gsm_Coder.e(,%rax,2), %rax
	movq	-32(%rbp), %rcx
	movslq	-4(%rbp), %rdx
	movswq	(%rcx,%rdx,2), %rcx
	addq	%rcx, %rax
	movq	%rax, -40(%rbp)
	subq	$-32768, %rax           # imm = 0x8000
	cmpq	$65535, %rax            # imm = 0xFFFF
	jbe	.LBB57_6
# %bb.5:                                # %cond.true
                                        #   in Loop: Header=BB57_3 Depth=2
	movl	$4294934528, %eax       # imm = 0xFFFF8000
	movl	$32767, %ecx            # imm = 0x7FFF
	movq	-40(%rbp), %rdx
	cmpq	$0, %rdx
	cmovgl	%ecx, %eax
	cltq
	jmp	.LBB57_7
.LBB57_6:                               # %cond.false
                                        #   in Loop: Header=BB57_3 Depth=2
	movq	-40(%rbp), %rax
.LBB57_7:                               # %cond.end
                                        #   in Loop: Header=BB57_3 Depth=2
	movq	-24(%rbp), %rcx
	movslq	-4(%rbp), %rdx
	movw	%ax, (%rcx,%rdx,2)
# %bb.8:                                # %for.inc
                                        #   in Loop: Header=BB57_3 Depth=2
	movl	-4(%rbp), %eax
	addl	$1, %eax
	movl	%eax, -4(%rbp)
	jmp	.LBB57_3
.LBB57_9:                               # %for.end
                                        #   in Loop: Header=BB57_1 Depth=1
	leaq	-32(%rbp), %rdi
	leaq	-24(%rbp), %rsi
	callq	Gsm_Coder0
# %bb.10:                               # %for.inc27
                                        #   in Loop: Header=BB57_1 Depth=1
	leaq	24(%rbp), %rdi
	movl	-8(%rbp), %eax
	addl	$1, %eax
	movl	%eax, -8(%rbp)
	callq	Gsm_Coder1
	jmp	.LBB57_1
.LBB57_11:                              # %for.end30
	movq	-16(%rbp), %rdi
	movq	-16(%rbp), %rsi
	addq	$320, %rsi              # imm = 0x140
	movl	$240, %edx
	callq	memcpy
	addq	$416, %rsp              # imm = 0x1A0
	popq	%rbp
	retq
.Lfunc_end57:
	.size	Gsm_Coder, .Lfunc_end57-Gsm_Coder
	.cfi_endproc
                                        # -- End function
	.globl	Gsm_Preprocess          # -- Begin function Gsm_Preprocess
	.p2align	4, 0x90
	.type	Gsm_Preprocess,@function
Gsm_Preprocess:                         # @Gsm_Preprocess
	.cfi_startproc
# %bb.0:                                # %entry
	pushq	%rbp
	.cfi_def_cfa_offset 16
	.cfi_offset %rbp, -16
	movq	%rsp, %rbp
	.cfi_def_cfa_register %rbp
	subq	$96, %rsp
	leaq	-6(%rbp), %rax
	leaq	-40(%rbp), %r9
	leaq	-8(%rbp), %r8
	leaq	-96(%rbp), %rcx
	movq	%rdi, -96(%rbp)
	movq	%rsi, -72(%rbp)
	movq	%rdx, -88(%rbp)
	movq	%rax, %rdi
	movq	%r9, %rsi
	movq	%r8, %rdx
	callq	Gsm_Preprocess0
	movl	$160, -60(%rbp)
.LBB58_1:                               # %while.cond
                                        # =>This Inner Loop Header: Depth=1
	movl	-60(%rbp), %eax
	movl	%eax, %ecx
	addl	$-1, %ecx
	movl	%ecx, -60(%rbp)
	cmpl	$0, %eax
	je	.LBB58_36
# %bb.2:                                # %while.body
                                        #   in Loop: Header=BB58_1 Depth=1
	movq	-72(%rbp), %rax
	movswl	(%rax), %eax
	sarl	$3, %eax
	shll	$2, %eax
	movw	%ax, -2(%rbp)
	movq	-72(%rbp), %rax
	addq	$2, %rax
	movq	%rax, -72(%rbp)
	movswl	-2(%rbp), %eax
	cmpl	$-16384, %eax           # imm = 0xC000
	jl	.LBB58_4
# %bb.3:                                # %cond.true
                                        #   in Loop: Header=BB58_1 Depth=1
	jmp	.LBB58_5
.LBB58_4:                               # %cond.false
	movabsq	$.L.str.31.78, %rdi
	movabsq	$.L.str.1.32, %rsi
	movabsq	$.L__PRETTY_FUNCTION__.Gsm_Preprocess, %rcx
	movl	$64, %edx
	callq	__assert_fail
.LBB58_5:                               # %cond.end
                                        #   in Loop: Header=BB58_1 Depth=1
	movswl	-2(%rbp), %eax
	cmpl	$16380, %eax            # imm = 0x3FFC
	jg	.LBB58_7
# %bb.6:                                # %cond.true11
                                        #   in Loop: Header=BB58_1 Depth=1
	jmp	.LBB58_8
.LBB58_7:                               # %cond.false12
	movabsq	$.L.str.2.33, %rdi
	movabsq	$.L.str.1.32, %rsi
	movabsq	$.L__PRETTY_FUNCTION__.Gsm_Preprocess, %rcx
	movl	$65, %edx
	callq	__assert_fail
.LBB58_8:                               # %cond.end13
                                        #   in Loop: Header=BB58_1 Depth=1
	movswl	-2(%rbp), %eax
	movswl	-8(%rbp), %ecx
	subl	%ecx, %eax
	movw	%ax, -10(%rbp)
	movw	-2(%rbp), %ax
	movw	%ax, -8(%rbp)
	movswl	-10(%rbp), %eax
	cmpl	$-32768, %eax           # imm = 0x8000
	je	.LBB58_10
# %bb.9:                                # %cond.true20
                                        #   in Loop: Header=BB58_1 Depth=1
	jmp	.LBB58_11
.LBB58_10:                              # %cond.false21
	movabsq	$.L.str.3.34, %rdi
	movabsq	$.L.str.1.32, %rsi
	movabsq	$.L__PRETTY_FUNCTION__.Gsm_Preprocess, %rcx
	movl	$81, %edx
	callq	__assert_fail
.LBB58_11:                              # %cond.end22
                                        #   in Loop: Header=BB58_1 Depth=1
	movswq	-10(%rbp), %rax
	movq	%rax, -24(%rbp)
	movq	-24(%rbp), %rax
	shlq	$15, %rax
	movq	%rax, -24(%rbp)
	movq	-40(%rbp), %rax
	sarq	$15, %rax
	movw	%ax, -4(%rbp)
	movq	-40(%rbp), %rax
	movswq	-4(%rbp), %rcx
	shlq	$15, %rcx
	subq	%rcx, %rax
	movw	%ax, -42(%rbp)
	movswq	-42(%rbp), %rax
	imulq	$32735, %rax, %rax      # imm = 0x7FDF
	addq	$16384, %rax            # imm = 0x4000
	sarq	$15, %rax
	addq	-24(%rbp), %rax
	movq	%rax, -24(%rbp)
	movswq	-4(%rbp), %rax
	imulq	$32735, %rax, %rax      # imm = 0x7FDF
	movq	%rax, -32(%rbp)
	cmpq	$0, -32(%rbp)
	jge	.LBB58_19
# %bb.12:                               # %cond.true38
                                        #   in Loop: Header=BB58_1 Depth=1
	cmpq	$0, -24(%rbp)
	jl	.LBB58_14
# %bb.13:                               # %cond.true41
                                        #   in Loop: Header=BB58_1 Depth=1
	movq	-32(%rbp), %rax
	addq	-24(%rbp), %rax
	jmp	.LBB58_18
.LBB58_14:                              # %cond.false43
                                        #   in Loop: Header=BB58_1 Depth=1
	xorl	%eax, %eax
	movq	-32(%rbp), %rcx
	addq	$1, %rcx
	xorl	%edx, %edx
	subq	%rcx, %rdx
	movq	-24(%rbp), %rcx
	addq	$1, %rcx
	subq	%rcx, %rax
	addq	%rax, %rdx
	movq	%rdx, -56(%rbp)
	cmpq	$2147483647, %rdx       # imm = 0x7FFFFFFF
	jb	.LBB58_16
# %bb.15:                               # %cond.true51
                                        #   in Loop: Header=BB58_1 Depth=1
	movq	$-2147483648, %rax      # imm = 0x80000000
	jmp	.LBB58_17
.LBB58_16:                              # %cond.false52
                                        #   in Loop: Header=BB58_1 Depth=1
	xorl	%eax, %eax
	subq	-56(%rbp), %rax
	subq	$2, %rax
.LBB58_17:                              # %cond.end55
                                        #   in Loop: Header=BB58_1 Depth=1
.LBB58_18:                              # %cond.end56
                                        #   in Loop: Header=BB58_1 Depth=1
	jmp	.LBB58_26
.LBB58_19:                              # %cond.false58
                                        #   in Loop: Header=BB58_1 Depth=1
	cmpq	$0, -24(%rbp)
	jg	.LBB58_21
# %bb.20:                               # %cond.true61
                                        #   in Loop: Header=BB58_1 Depth=1
	movq	-32(%rbp), %rax
	addq	-24(%rbp), %rax
	jmp	.LBB58_25
.LBB58_21:                              # %cond.false63
                                        #   in Loop: Header=BB58_1 Depth=1
	movq	-32(%rbp), %rax
	addq	-24(%rbp), %rax
	movq	%rax, -56(%rbp)
	cmpq	$2147483647, %rax       # imm = 0x7FFFFFFF
	jb	.LBB58_23
# %bb.22:                               # %cond.true67
                                        #   in Loop: Header=BB58_1 Depth=1
	movl	$2147483647, %eax       # imm = 0x7FFFFFFF
	jmp	.LBB58_24
.LBB58_23:                              # %cond.false68
                                        #   in Loop: Header=BB58_1 Depth=1
	movq	-56(%rbp), %rax
.LBB58_24:                              # %cond.end69
                                        #   in Loop: Header=BB58_1 Depth=1
.LBB58_25:                              # %cond.end71
                                        #   in Loop: Header=BB58_1 Depth=1
.LBB58_26:                              # %cond.end73
                                        #   in Loop: Header=BB58_1 Depth=1
	movq	%rax, -40(%rbp)
	cmpq	$0, -40(%rbp)
	jge	.LBB58_28
# %bb.27:                               # %cond.true77
                                        #   in Loop: Header=BB58_1 Depth=1
	movq	-40(%rbp), %rax
	addq	$16384, %rax            # imm = 0x4000
	jmp	.LBB58_32
.LBB58_28:                              # %cond.false79
                                        #   in Loop: Header=BB58_1 Depth=1
	movq	-40(%rbp), %rax
	addq	$16384, %rax            # imm = 0x4000
	movq	%rax, -56(%rbp)
	cmpq	$2147483647, %rax       # imm = 0x7FFFFFFF
	jb	.LBB58_30
# %bb.29:                               # %cond.true83
                                        #   in Loop: Header=BB58_1 Depth=1
	movl	$2147483647, %eax       # imm = 0x7FFFFFFF
	jmp	.LBB58_31
.LBB58_30:                              # %cond.false84
                                        #   in Loop: Header=BB58_1 Depth=1
	movq	-56(%rbp), %rax
.LBB58_31:                              # %cond.end85
                                        #   in Loop: Header=BB58_1 Depth=1
.LBB58_32:                              # %cond.end87
                                        #   in Loop: Header=BB58_1 Depth=1
	movq	%rax, -32(%rbp)
	movswq	-6(%rbp), %rax
	imulq	$-28180, %rax, %rax     # imm = 0x91EC
	addq	$16384, %rax            # imm = 0x4000
	sarq	$15, %rax
	movw	%ax, -4(%rbp)
	movq	-32(%rbp), %rax
	sarq	$15, %rax
	movw	%ax, -6(%rbp)
	movswq	-6(%rbp), %rax
	movswq	-4(%rbp), %rcx
	addq	%rcx, %rax
	movq	%rax, -80(%rbp)
	subq	$-32768, %rax           # imm = 0x8000
	cmpq	$65535, %rax            # imm = 0xFFFF
	jbe	.LBB58_34
# %bb.33:                               # %cond.true102
                                        #   in Loop: Header=BB58_1 Depth=1
	movl	$4294934528, %eax       # imm = 0xFFFF8000
	movl	$32767, %ecx            # imm = 0x7FFF
	movq	-80(%rbp), %rdx
	cmpq	$0, %rdx
	cmovgl	%ecx, %eax
	cltq
	jmp	.LBB58_35
.LBB58_34:                              # %cond.false107
                                        #   in Loop: Header=BB58_1 Depth=1
	movq	-80(%rbp), %rax
.LBB58_35:                              # %cond.end108
                                        #   in Loop: Header=BB58_1 Depth=1
	movq	-88(%rbp), %rcx
	movq	%rcx, %rdx
	addq	$2, %rdx
	movq	%rdx, -88(%rbp)
	movw	%ax, (%rcx)
	jmp	.LBB58_1
.LBB58_36:                              # %while.end
	leaq	-6(%rbp), %rdi
	leaq	-40(%rbp), %rsi
	leaq	-96(%rbp), %rdx
	leaq	-8(%rbp), %rcx
	callq	Gsm_Preprocess1
	addq	$96, %rsp
	popq	%rbp
	retq
.Lfunc_end58:
	.size	Gsm_Preprocess, .Lfunc_end58-Gsm_Preprocess
	.cfi_endproc
                                        # -- End function
	.globl	Gsm_LPC_Analysis        # -- Begin function Gsm_LPC_Analysis
	.p2align	4, 0x90
	.type	Gsm_LPC_Analysis,@function
Gsm_LPC_Analysis:                       # @Gsm_LPC_Analysis
	.cfi_startproc
# %bb.0:                                # %entry
	pushq	%rbp
	.cfi_def_cfa_offset 16
	.cfi_offset %rbp, -16
	movq	%rsp, %rbp
	.cfi_def_cfa_register %rbp
	subq	$32, %rsp
	leaq	-8(%rbp), %rax
	leaq	-16(%rbp), %rcx
	movq	%rdi, -24(%rbp)
	movq	%rsi, -16(%rbp)
	movq	%rdx, -8(%rbp)
	movq	%rax, %rdi
	movq	%rcx, %rsi
	callq	Gsm_LPC_Analysis0
	addq	$32, %rsp
	popq	%rbp
	retq
.Lfunc_end59:
	.size	Gsm_LPC_Analysis, .Lfunc_end59-Gsm_LPC_Analysis
	.cfi_endproc
                                        # -- End function
	.globl	Gsm_Short_Term_Analysis_Filter # -- Begin function Gsm_Short_Term_Analysis_Filter
	.p2align	4, 0x90
	.type	Gsm_Short_Term_Analysis_Filter,@function
Gsm_Short_Term_Analysis_Filter:         # @Gsm_Short_Term_Analysis_Filter
	.cfi_startproc
# %bb.0:                                # %entry
	pushq	%rbp
	.cfi_def_cfa_offset 16
	.cfi_offset %rbp, -16
	movq	%rsp, %rbp
	.cfi_def_cfa_register %rbp
	subq	$32, %rsp
	leaq	-8(%rbp), %rax
	leaq	-24(%rbp), %rcx
	leaq	-16(%rbp), %r8
	movq	%rdi, -24(%rbp)
	movq	%rsi, -16(%rbp)
	movq	%rdx, -8(%rbp)
	movq	%rax, %rdi
	movq	%rcx, %rsi
	movq	%r8, %rdx
	callq	Gsm_Short_Term_Analysis_Filter0
	addq	$32, %rsp
	popq	%rbp
	retq
.Lfunc_end60:
	.size	Gsm_Short_Term_Analysis_Filter, .Lfunc_end60-Gsm_Short_Term_Analysis_Filter
	.cfi_endproc
                                        # -- End function
	.globl	Gsm_Long_Term_Predictor # -- Begin function Gsm_Long_Term_Predictor
	.p2align	4, 0x90
	.type	Gsm_Long_Term_Predictor,@function
Gsm_Long_Term_Predictor:                # @Gsm_Long_Term_Predictor
	.cfi_startproc
# %bb.0:                                # %entry
	pushq	%rbp
	.cfi_def_cfa_offset 16
	.cfi_offset %rbp, -16
	movq	%rsp, %rbp
	.cfi_def_cfa_register %rbp
	pushq	%r15
	pushq	%r14
	pushq	%r13
	pushq	%r12
	pushq	%rbx
	subq	$72, %rsp
	.cfi_offset %rbx, -56
	.cfi_offset %r12, -48
	.cfi_offset %r13, -40
	.cfi_offset %r14, -32
	.cfi_offset %r15, -24
	movq	%r9, -104(%rbp)         # 8-byte Spill
	movq	%r8, %r15
	movq	%rcx, %r12
	movq	%rdx, %r13
	movq	%rsi, %rbx
	movq	%rdi, %r14
	movq	16(%rbp), %rax
	movl	$222222223, -52(%rbp)   # imm = 0xD3ED78F
	movl	$555555556, -48(%rbp)   # imm = 0x211D1AE4
	movl	$444444445, -44(%rbp)   # imm = 0x1A7DAF1D
	movl	-52(%rbp), %edi
	movl	-48(%rbp), %esi
	movl	-44(%rbp), %edx
	callq	guardMe
	movq	%r14, -112(%rbp)
	movq	%rbx, -96(%rbp)
	movq	%r13, -88(%rbp)
	movq	%r12, -80(%rbp)
	movq	%r15, -72(%rbp)
	movq	-104(%rbp), %rax        # 8-byte Reload
	movq	%rax, -64(%rbp)
	cmpq	$0, -96(%rbp)
	je	.LBB61_2
# %bb.1:                                # %cond.true
	jmp	.LBB61_3
.LBB61_2:                               # %cond.false
	movabsq	$.L.str.9.71, %rdi
	movabsq	$.L.str.1.10, %rsi
	movabsq	$.L__PRETTY_FUNCTION__.Gsm_Long_Term_Predictor, %rcx
	movl	$545, %edx              # imm = 0x221
	callq	__assert_fail
.LBB61_3:                               # %cond.end
	cmpq	$0, -88(%rbp)
	je	.LBB61_5
# %bb.4:                                # %cond.true2
	jmp	.LBB61_6
.LBB61_5:                               # %cond.false3
	movabsq	$.L.str.2.11, %rdi
	movabsq	$.L.str.1.10, %rsi
	movabsq	$.L__PRETTY_FUNCTION__.Gsm_Long_Term_Predictor, %rcx
	movl	$545, %edx              # imm = 0x221
	callq	__assert_fail
.LBB61_6:                               # %cond.end4
	cmpq	$0, -80(%rbp)
	je	.LBB61_8
# %bb.7:                                # %cond.true6
	jmp	.LBB61_9
.LBB61_8:                               # %cond.false7
	movabsq	$.L.str.3.12, %rdi
	movabsq	$.L.str.1.10, %rsi
	movabsq	$.L__PRETTY_FUNCTION__.Gsm_Long_Term_Predictor, %rcx
	movl	$545, %edx              # imm = 0x221
	callq	__assert_fail
.LBB61_9:                               # %cond.end8
	cmpq	$0, -72(%rbp)
	je	.LBB61_11
# %bb.10:                               # %cond.true10
	jmp	.LBB61_12
.LBB61_11:                              # %cond.false11
	movabsq	$.L.str.4.13, %rdi
	movabsq	$.L.str.1.10, %rsi
	movabsq	$.L__PRETTY_FUNCTION__.Gsm_Long_Term_Predictor, %rcx
	movl	$546, %edx              # imm = 0x222
	callq	__assert_fail
.LBB61_12:                              # %cond.end12
	cmpq	$0, -64(%rbp)
	je	.LBB61_14
# %bb.13:                               # %cond.true14
	jmp	.LBB61_15
.LBB61_14:                              # %cond.false15
	movabsq	$.L.str.5.72, %rdi
	movabsq	$.L.str.1.10, %rsi
	movabsq	$.L__PRETTY_FUNCTION__.Gsm_Long_Term_Predictor, %rcx
	movl	$546, %edx              # imm = 0x222
	callq	__assert_fail
.LBB61_15:                              # %cond.end16
	cmpq	$0, 16(%rbp)
	je	.LBB61_17
# %bb.16:                               # %cond.true18
	jmp	.LBB61_18
.LBB61_17:                              # %cond.false19
	movabsq	$.L.str.6.73, %rdi
	movabsq	$.L.str.1.10, %rsi
	movabsq	$.L__PRETTY_FUNCTION__.Gsm_Long_Term_Predictor, %rcx
	movl	$546, %edx              # imm = 0x222
	callq	__assert_fail
.LBB61_18:                              # %cond.end20
	leaq	-80(%rbp), %rdi
	leaq	-72(%rbp), %rsi
	leaq	-96(%rbp), %rdx
	leaq	-64(%rbp), %rcx
	leaq	-88(%rbp), %r8
	leaq	16(%rbp), %r9
	callq	Gsm_Long_Term_Predictor0
	addq	$72, %rsp
	popq	%rbx
	popq	%r12
	popq	%r13
	popq	%r14
	popq	%r15
	popq	%rbp
	retq
.Lfunc_end61:
	.size	Gsm_Long_Term_Predictor, .Lfunc_end61-Gsm_Long_Term_Predictor
	.cfi_endproc
                                        # -- End function
	.globl	Gsm_RPE_Encoding        # -- Begin function Gsm_RPE_Encoding
	.p2align	4, 0x90
	.type	Gsm_RPE_Encoding,@function
Gsm_RPE_Encoding:                       # @Gsm_RPE_Encoding
	.cfi_startproc
# %bb.0:                                # %entry
	pushq	%rbp
	.cfi_def_cfa_offset 16
	.cfi_offset %rbp, -16
	movq	%rsp, %rbp
	.cfi_def_cfa_register %rbp
	subq	$48, %rsp
	leaq	-24(%rbp), %rax
	leaq	-8(%rbp), %r9
	leaq	-32(%rbp), %r10
	leaq	-16(%rbp), %r11
	movq	%rdi, -40(%rbp)
	movq	%rsi, -32(%rbp)
	movq	%rdx, -24(%rbp)
	movq	%rcx, -16(%rbp)
	movq	%r8, -8(%rbp)
	movq	%rax, %rdi
	movq	%r9, %rsi
	movq	%r10, %rdx
	movq	%r11, %rcx
	callq	Gsm_RPE_Encoding0
	addq	$48, %rsp
	popq	%rbp
	retq
.Lfunc_end62:
	.size	Gsm_RPE_Encoding, .Lfunc_end62-Gsm_RPE_Encoding
	.cfi_endproc
                                        # -- End function
	.globl	Gsm_Coder0              # -- Begin function Gsm_Coder0
	.p2align	4, 0x90
	.type	Gsm_Coder0,@function
Gsm_Coder0:                             # @Gsm_Coder0
	.cfi_startproc
# %bb.0:                                # %entry
	movq	%rdi, -24(%rsp)
	movq	(%rdi), %rax
	movq	%rax, -32(%rsp)
	movq	%rsi, -8(%rsp)
	movq	(%rsi), %rcx
	addq	$80, %rcx
	movq	%rcx, -16(%rsp)
	addq	$80, %rax
	movq	%rax, -32(%rsp)
	movq	%rcx, (%rsi)
	movq	-24(%rsp), %rax
	movq	-32(%rsp), %rcx
	movq	%rcx, (%rax)
	retq
.Lfunc_end63:
	.size	Gsm_Coder0, .Lfunc_end63-Gsm_Coder0
	.cfi_endproc
                                        # -- End function
	.globl	Gsm_Coder1              # -- Begin function Gsm_Coder1
	.p2align	4, 0x90
	.type	Gsm_Coder1,@function
Gsm_Coder1:                             # @Gsm_Coder1
	.cfi_startproc
# %bb.0:                                # %entry
	movq	%rdi, -8(%rsp)
	movq	(%rdi), %rax
	addq	$26, %rax
	movq	%rax, -16(%rsp)
	movq	%rax, (%rdi)
	retq
.Lfunc_end64:
	.size	Gsm_Coder1, .Lfunc_end64-Gsm_Coder1
	.cfi_endproc
                                        # -- End function
	.globl	Gsm_RPE_Encoding0       # -- Begin function Gsm_RPE_Encoding0
	.p2align	4, 0x90
	.type	Gsm_RPE_Encoding0,@function
Gsm_RPE_Encoding0:                      # @Gsm_RPE_Encoding0
	.cfi_startproc
# %bb.0:                                # %entry
	pushq	%r14
	.cfi_def_cfa_offset 16
	pushq	%rbx
	.cfi_def_cfa_offset 24
	subq	$232, %rsp
	.cfi_def_cfa_offset 256
	.cfi_offset %rbx, -24
	.cfi_offset %r14, -16
	movq	%rdi, 72(%rsp)
	movq	(%rdi), %rax
	movq	%rax, 40(%rsp)
	movq	%rsi, 64(%rsp)
	movq	(%rsi), %rax
	movq	%rax, 24(%rsp)
	movq	%rdx, 56(%rsp)
	movq	(%rdx), %rdi
	movq	%rdi, 32(%rsp)
	movq	%rcx, 48(%rsp)
	movq	(%rcx), %rax
	movq	%rax, 16(%rsp)
	leaq	144(%rsp), %rbx
	movq	%rbx, %rsi
	callq	Weighting_filter
	movq	16(%rsp), %rdx
	leaq	80(%rsp), %r14
	movq	%rbx, %rdi
	movq	%r14, %rsi
	callq	RPE_grid_selection
	movq	24(%rsp), %rsi
	movq	40(%rsp), %r8
	leaq	12(%rsp), %rdx
	leaq	14(%rsp), %rcx
	movq	%r14, %rdi
	callq	APCM_quantization
	movq	24(%rsp), %rdi
	movswl	14(%rsp), %edx
	movswl	12(%rsp), %esi
	leaq	112(%rsp), %rbx
	movq	%rbx, %rcx
	callq	APCM_inverse_quantization
	movq	16(%rsp), %rax
	movq	32(%rsp), %rdx
	movswl	(%rax), %edi
	movq	%rbx, %rsi
	callq	RPE_grid_positioning
	movq	56(%rsp), %rax
	movq	32(%rsp), %rcx
	movq	%rcx, (%rax)
	movq	64(%rsp), %rax
	movq	24(%rsp), %rcx
	movq	%rcx, (%rax)
	movq	48(%rsp), %rax
	movq	16(%rsp), %rcx
	movq	%rcx, (%rax)
	movq	72(%rsp), %rax
	movq	40(%rsp), %rcx
	movq	%rcx, (%rax)
	addq	$232, %rsp
	popq	%rbx
	popq	%r14
	retq
.Lfunc_end65:
	.size	Gsm_RPE_Encoding0, .Lfunc_end65-Gsm_RPE_Encoding0
	.cfi_endproc
                                        # -- End function
	.p2align	4, 0x90         # -- Begin function Weighting_filter
	.type	Weighting_filter,@function
Weighting_filter:                       # @Weighting_filter
	.cfi_startproc
# %bb.0:                                # %entry
	pushq	%rbp
	.cfi_def_cfa_offset 16
	.cfi_offset %rbp, -16
	movq	%rsp, %rbp
	.cfi_def_cfa_register %rbp
	subq	$32, %rsp
	leaq	-24(%rbp), %rax
	movq	%rdi, -24(%rbp)
	movq	%rsi, -32(%rbp)
	movq	%rax, %rdi
	callq	Weighting_filter0
	movl	$0, -4(%rbp)
.LBB66_1:                               # %for.cond
                                        # =>This Inner Loop Header: Depth=1
	cmpl	$39, -4(%rbp)
	jg	.LBB66_10
# %bb.2:                                # %for.body
                                        #   in Loop: Header=BB66_1 Depth=1
	movq	$4096, -16(%rbp)        # imm = 0x1000
	movq	-24(%rbp), %rax
	movl	-4(%rbp), %ecx
	addl	$0, %ecx
	movslq	%ecx, %rcx
	movswq	(%rax,%rcx,2), %rax
	imulq	$-134, %rax, %rax
	addq	-16(%rbp), %rax
	movq	%rax, -16(%rbp)
	movq	-24(%rbp), %rax
	movl	-4(%rbp), %ecx
	addl	$1, %ecx
	movslq	%ecx, %rcx
	movswq	(%rax,%rcx,2), %rax
	imulq	$-374, %rax, %rax       # imm = 0xFE8A
	addq	-16(%rbp), %rax
	movq	%rax, -16(%rbp)
	movq	-24(%rbp), %rax
	movl	-4(%rbp), %ecx
	addl	$3, %ecx
	movslq	%ecx, %rcx
	movswq	(%rax,%rcx,2), %rax
	imulq	$2054, %rax, %rax       # imm = 0x806
	addq	-16(%rbp), %rax
	movq	%rax, -16(%rbp)
	movq	-24(%rbp), %rax
	movl	-4(%rbp), %ecx
	addl	$4, %ecx
	movslq	%ecx, %rcx
	movswq	(%rax,%rcx,2), %rax
	imulq	$5741, %rax, %rax       # imm = 0x166D
	addq	-16(%rbp), %rax
	movq	%rax, -16(%rbp)
	movq	-24(%rbp), %rax
	movl	-4(%rbp), %ecx
	addl	$5, %ecx
	movslq	%ecx, %rcx
	movswq	(%rax,%rcx,2), %rax
	shlq	$13, %rax
	addq	-16(%rbp), %rax
	movq	%rax, -16(%rbp)
	movq	-24(%rbp), %rax
	movl	-4(%rbp), %ecx
	addl	$6, %ecx
	movslq	%ecx, %rcx
	movswq	(%rax,%rcx,2), %rax
	imulq	$5741, %rax, %rax       # imm = 0x166D
	addq	-16(%rbp), %rax
	movq	%rax, -16(%rbp)
	movq	-24(%rbp), %rax
	movl	-4(%rbp), %ecx
	addl	$7, %ecx
	movslq	%ecx, %rcx
	movswq	(%rax,%rcx,2), %rax
	imulq	$2054, %rax, %rax       # imm = 0x806
	addq	-16(%rbp), %rax
	movq	%rax, -16(%rbp)
	movq	-24(%rbp), %rax
	movl	-4(%rbp), %ecx
	addl	$9, %ecx
	movslq	%ecx, %rcx
	movswq	(%rax,%rcx,2), %rax
	imulq	$-374, %rax, %rax       # imm = 0xFE8A
	addq	-16(%rbp), %rax
	movq	%rax, -16(%rbp)
	movq	-24(%rbp), %rax
	movl	-4(%rbp), %ecx
	addl	$10, %ecx
	movslq	%ecx, %rcx
	movswq	(%rax,%rcx,2), %rax
	imulq	$-134, %rax, %rax
	addq	-16(%rbp), %rax
	movq	%rax, -16(%rbp)
	movq	-16(%rbp), %rax
	sarq	$13, %rax
	movq	%rax, -16(%rbp)
	cmpq	$-32768, -16(%rbp)      # imm = 0x8000
	jge	.LBB66_4
# %bb.3:                                # %cond.true
                                        #   in Loop: Header=BB66_1 Depth=1
	movq	$-32768, %rax           # imm = 0x8000
	jmp	.LBB66_8
.LBB66_4:                               # %cond.false
                                        #   in Loop: Header=BB66_1 Depth=1
	cmpq	$32767, -16(%rbp)       # imm = 0x7FFF
	jle	.LBB66_6
# %bb.5:                                # %cond.true54
                                        #   in Loop: Header=BB66_1 Depth=1
	movl	$32767, %eax            # imm = 0x7FFF
	jmp	.LBB66_7
.LBB66_6:                               # %cond.false55
                                        #   in Loop: Header=BB66_1 Depth=1
	movq	-16(%rbp), %rax
.LBB66_7:                               # %cond.end
                                        #   in Loop: Header=BB66_1 Depth=1
.LBB66_8:                               # %cond.end56
                                        #   in Loop: Header=BB66_1 Depth=1
	movq	-32(%rbp), %rcx
	movslq	-4(%rbp), %rdx
	movw	%ax, (%rcx,%rdx,2)
# %bb.9:                                # %for.inc
                                        #   in Loop: Header=BB66_1 Depth=1
	movl	-4(%rbp), %eax
	addl	$1, %eax
	movl	%eax, -4(%rbp)
	jmp	.LBB66_1
.LBB66_10:                              # %for.end
	addq	$32, %rsp
	popq	%rbp
	retq
.Lfunc_end66:
	.size	Weighting_filter, .Lfunc_end66-Weighting_filter
	.cfi_endproc
                                        # -- End function
	.p2align	4, 0x90         # -- Begin function RPE_grid_selection
	.type	RPE_grid_selection,@function
RPE_grid_selection:                     # @RPE_grid_selection
	.cfi_startproc
# %bb.0:                                # %entry
	pushq	%rbp
	.cfi_def_cfa_offset 16
	.cfi_offset %rbp, -16
	movq	%rsp, %rbp
	.cfi_def_cfa_register %rbp
	pushq	%r15
	pushq	%r14
	pushq	%rbx
	subq	$88, %rsp
	.cfi_offset %rbx, -40
	.cfi_offset %r14, -32
	.cfi_offset %r15, -24
	movq	%rdx, %r14
	movq	%rsi, %r15
	movq	%rdi, %rbx
	movl	$222222224, -76(%rbp)   # imm = 0xD3ED790
	movl	$555555557, -72(%rbp)   # imm = 0x211D1AE5
	movl	$444444446, -68(%rbp)   # imm = 0x1A7DAF1E
	movl	-76(%rbp), %edi
	movl	-72(%rbp), %esi
	movl	-68(%rbp), %edx
	callq	guardMe
	leaq	-64(%rbp), %rdi
	leaq	-48(%rbp), %rsi
	leaq	-32(%rbp), %rdx
	leaq	-40(%rbp), %rcx
	leaq	-88(%rbp), %r8
	movq	%rbx, -48(%rbp)
	movq	%r15, -104(%rbp)
	movq	%r14, -96(%rbp)
	movq	$0, -64(%rbp)
	movw	$0, -50(%rbp)
	movq	$0, -40(%rbp)
	callq	RPE_grid_selection0
	movq	$0, -40(%rbp)
	movq	-48(%rbp), %rax
	movswl	2(%rax), %eax
	sarl	$2, %eax
	cltq
	movq	%rax, -32(%rbp)
	movq	-32(%rbp), %rax
	imulq	-32(%rbp), %rax
	addq	-40(%rbp), %rax
	movq	%rax, -40(%rbp)
	movq	-48(%rbp), %rax
	movswl	8(%rax), %eax
	sarl	$2, %eax
	cltq
	movq	%rax, -32(%rbp)
	movq	-32(%rbp), %rax
	imulq	-32(%rbp), %rax
	addq	-40(%rbp), %rax
	movq	%rax, -40(%rbp)
	movq	-48(%rbp), %rax
	movswl	14(%rax), %eax
	sarl	$2, %eax
	cltq
	movq	%rax, -32(%rbp)
	movq	-32(%rbp), %rax
	imulq	-32(%rbp), %rax
	addq	-40(%rbp), %rax
	movq	%rax, -40(%rbp)
	movq	-48(%rbp), %rax
	movswl	20(%rax), %eax
	sarl	$2, %eax
	cltq
	movq	%rax, -32(%rbp)
	movq	-32(%rbp), %rax
	imulq	-32(%rbp), %rax
	addq	-40(%rbp), %rax
	movq	%rax, -40(%rbp)
	movq	-48(%rbp), %rax
	movswl	26(%rax), %eax
	sarl	$2, %eax
	cltq
	movq	%rax, -32(%rbp)
	movq	-32(%rbp), %rax
	imulq	-32(%rbp), %rax
	addq	-40(%rbp), %rax
	movq	%rax, -40(%rbp)
	movq	-48(%rbp), %rax
	movswl	32(%rax), %eax
	sarl	$2, %eax
	cltq
	movq	%rax, -32(%rbp)
	movq	-32(%rbp), %rax
	imulq	-32(%rbp), %rax
	addq	-40(%rbp), %rax
	movq	%rax, -40(%rbp)
	movq	-48(%rbp), %rax
	movswl	38(%rax), %eax
	sarl	$2, %eax
	cltq
	movq	%rax, -32(%rbp)
	movq	-32(%rbp), %rax
	imulq	-32(%rbp), %rax
	addq	-40(%rbp), %rax
	movq	%rax, -40(%rbp)
	movq	-48(%rbp), %rax
	movswl	44(%rax), %eax
	sarl	$2, %eax
	cltq
	movq	%rax, -32(%rbp)
	movq	-32(%rbp), %rax
	imulq	-32(%rbp), %rax
	addq	-40(%rbp), %rax
	movq	%rax, -40(%rbp)
	movq	-48(%rbp), %rax
	movswl	50(%rax), %eax
	sarl	$2, %eax
	cltq
	movq	%rax, -32(%rbp)
	movq	-32(%rbp), %rax
	imulq	-32(%rbp), %rax
	addq	-40(%rbp), %rax
	movq	%rax, -40(%rbp)
	movq	-48(%rbp), %rax
	movswl	56(%rax), %eax
	sarl	$2, %eax
	cltq
	movq	%rax, -32(%rbp)
	movq	-32(%rbp), %rax
	imulq	-32(%rbp), %rax
	addq	-40(%rbp), %rax
	movq	%rax, -40(%rbp)
	movq	-48(%rbp), %rax
	movswl	62(%rax), %eax
	sarl	$2, %eax
	cltq
	movq	%rax, -32(%rbp)
	movq	-32(%rbp), %rax
	imulq	-32(%rbp), %rax
	addq	-40(%rbp), %rax
	movq	%rax, -40(%rbp)
	movq	-48(%rbp), %rax
	movswl	68(%rax), %eax
	sarl	$2, %eax
	cltq
	movq	%rax, -32(%rbp)
	movq	-32(%rbp), %rax
	imulq	-32(%rbp), %rax
	addq	-40(%rbp), %rax
	movq	%rax, -40(%rbp)
	movq	-48(%rbp), %rax
	movswl	74(%rax), %eax
	sarl	$2, %eax
	cltq
	movq	%rax, -32(%rbp)
	movq	-32(%rbp), %rax
	imulq	-32(%rbp), %rax
	addq	-40(%rbp), %rax
	movq	%rax, -40(%rbp)
	movq	-40(%rbp), %rax
	shlq	$1, %rax
	movq	%rax, -40(%rbp)
	movq	-40(%rbp), %rax
	cmpq	-64(%rbp), %rax
	jle	.LBB67_2
# %bb.1:                                # %if.then
	leaq	-64(%rbp), %rdi
	leaq	-40(%rbp), %rsi
	leaq	-50(%rbp), %rdx
	callq	RPE_grid_selection1
.LBB67_2:                               # %if.end
	movq	$0, -40(%rbp)
	movq	-48(%rbp), %rax
	movswl	4(%rax), %eax
	sarl	$2, %eax
	cltq
	movq	%rax, -32(%rbp)
	movq	-32(%rbp), %rax
	imulq	-32(%rbp), %rax
	addq	-40(%rbp), %rax
	movq	%rax, -40(%rbp)
	movq	-48(%rbp), %rax
	movswl	10(%rax), %eax
	sarl	$2, %eax
	cltq
	movq	%rax, -32(%rbp)
	movq	-32(%rbp), %rax
	imulq	-32(%rbp), %rax
	addq	-40(%rbp), %rax
	movq	%rax, -40(%rbp)
	movq	-48(%rbp), %rax
	movswl	16(%rax), %eax
	sarl	$2, %eax
	cltq
	movq	%rax, -32(%rbp)
	movq	-32(%rbp), %rax
	imulq	-32(%rbp), %rax
	addq	-40(%rbp), %rax
	movq	%rax, -40(%rbp)
	movq	-48(%rbp), %rax
	movswl	22(%rax), %eax
	sarl	$2, %eax
	cltq
	movq	%rax, -32(%rbp)
	movq	-32(%rbp), %rax
	imulq	-32(%rbp), %rax
	addq	-40(%rbp), %rax
	movq	%rax, -40(%rbp)
	movq	-48(%rbp), %rax
	movswl	28(%rax), %eax
	sarl	$2, %eax
	cltq
	movq	%rax, -32(%rbp)
	movq	-32(%rbp), %rax
	imulq	-32(%rbp), %rax
	addq	-40(%rbp), %rax
	movq	%rax, -40(%rbp)
	movq	-48(%rbp), %rax
	movswl	34(%rax), %eax
	sarl	$2, %eax
	cltq
	movq	%rax, -32(%rbp)
	movq	-32(%rbp), %rax
	imulq	-32(%rbp), %rax
	addq	-40(%rbp), %rax
	movq	%rax, -40(%rbp)
	movq	-48(%rbp), %rax
	movswl	40(%rax), %eax
	sarl	$2, %eax
	cltq
	movq	%rax, -32(%rbp)
	movq	-32(%rbp), %rax
	imulq	-32(%rbp), %rax
	addq	-40(%rbp), %rax
	movq	%rax, -40(%rbp)
	movq	-48(%rbp), %rax
	movswl	46(%rax), %eax
	sarl	$2, %eax
	cltq
	movq	%rax, -32(%rbp)
	movq	-32(%rbp), %rax
	imulq	-32(%rbp), %rax
	addq	-40(%rbp), %rax
	movq	%rax, -40(%rbp)
	movq	-48(%rbp), %rax
	movswl	52(%rax), %eax
	sarl	$2, %eax
	cltq
	movq	%rax, -32(%rbp)
	movq	-32(%rbp), %rax
	imulq	-32(%rbp), %rax
	addq	-40(%rbp), %rax
	movq	%rax, -40(%rbp)
	movq	-48(%rbp), %rax
	movswl	58(%rax), %eax
	sarl	$2, %eax
	cltq
	movq	%rax, -32(%rbp)
	movq	-32(%rbp), %rax
	imulq	-32(%rbp), %rax
	addq	-40(%rbp), %rax
	movq	%rax, -40(%rbp)
	movq	-48(%rbp), %rax
	movswl	64(%rax), %eax
	sarl	$2, %eax
	cltq
	movq	%rax, -32(%rbp)
	movq	-32(%rbp), %rax
	imulq	-32(%rbp), %rax
	addq	-40(%rbp), %rax
	movq	%rax, -40(%rbp)
	movq	-48(%rbp), %rax
	movswl	70(%rax), %eax
	sarl	$2, %eax
	cltq
	movq	%rax, -32(%rbp)
	movq	-32(%rbp), %rax
	imulq	-32(%rbp), %rax
	addq	-40(%rbp), %rax
	movq	%rax, -40(%rbp)
	movq	-48(%rbp), %rax
	movswl	76(%rax), %eax
	sarl	$2, %eax
	cltq
	movq	%rax, -32(%rbp)
	movq	-32(%rbp), %rax
	imulq	-32(%rbp), %rax
	addq	-40(%rbp), %rax
	movq	%rax, -40(%rbp)
	movq	-40(%rbp), %rax
	shlq	$1, %rax
	movq	%rax, -40(%rbp)
	movq	-40(%rbp), %rax
	cmpq	-64(%rbp), %rax
	jle	.LBB67_4
# %bb.3:                                # %if.then235
	leaq	-64(%rbp), %rdi
	leaq	-40(%rbp), %rsi
	leaq	-50(%rbp), %rdx
	callq	RPE_grid_selection2
.LBB67_4:                               # %if.end236
	movq	-88(%rbp), %rax
	movq	%rax, -40(%rbp)
	movq	-48(%rbp), %rax
	movswl	78(%rax), %eax
	sarl	$2, %eax
	cltq
	movq	%rax, -32(%rbp)
	movq	-32(%rbp), %rax
	imulq	-32(%rbp), %rax
	addq	-40(%rbp), %rax
	movq	%rax, -40(%rbp)
	movq	-40(%rbp), %rax
	shlq	$1, %rax
	movq	%rax, -40(%rbp)
	movq	-40(%rbp), %rax
	cmpq	-64(%rbp), %rax
	jle	.LBB67_6
# %bb.5:                                # %if.then246
	leaq	-64(%rbp), %rdi
	leaq	-40(%rbp), %rsi
	leaq	-50(%rbp), %rdx
	callq	RPE_grid_selection3
.LBB67_6:                               # %if.end247
	movl	$0, -56(%rbp)
.LBB67_7:                               # %for.cond
                                        # =>This Inner Loop Header: Depth=1
	cmpl	$12, -56(%rbp)
	jg	.LBB67_10
# %bb.8:                                # %for.body
                                        #   in Loop: Header=BB67_7 Depth=1
	leaq	-104(%rbp), %rdi
	leaq	-56(%rbp), %rcx
	movq	-48(%rbp), %rsi
	movswl	-50(%rbp), %edx
	callq	RPE_grid_selection4
# %bb.9:                                # %for.inc
                                        #   in Loop: Header=BB67_7 Depth=1
	movl	-56(%rbp), %eax
	addl	$1, %eax
	movl	%eax, -56(%rbp)
	jmp	.LBB67_7
.LBB67_10:                              # %for.end
	leaq	-96(%rbp), %rdi
	leaq	-50(%rbp), %rsi
	callq	RPE_grid_selection5
	addq	$88, %rsp
	popq	%rbx
	popq	%r14
	popq	%r15
	popq	%rbp
	retq
.Lfunc_end67:
	.size	RPE_grid_selection, .Lfunc_end67-RPE_grid_selection
	.cfi_endproc
                                        # -- End function
	.p2align	4, 0x90         # -- Begin function APCM_quantization
	.type	APCM_quantization,@function
APCM_quantization:                      # @APCM_quantization
	.cfi_startproc
# %bb.0:                                # %entry
	pushq	%rbp
	.cfi_def_cfa_offset 16
	.cfi_offset %rbp, -16
	movq	%rsp, %rbp
	.cfi_def_cfa_register %rbp
	pushq	%r15
	pushq	%r14
	pushq	%r13
	pushq	%r12
	pushq	%rbx
	subq	$88, %rsp
	.cfi_offset %rbx, -56
	.cfi_offset %r12, -48
	.cfi_offset %r13, -40
	.cfi_offset %r14, -32
	.cfi_offset %r15, -24
	movq	%r8, %r14
	movq	%rcx, %r15
	movq	%rdx, %r12
	movq	%rsi, %r13
	movq	%rdi, %rbx
	movl	$222222225, -76(%rbp)   # imm = 0xD3ED791
	movl	$555555558, -72(%rbp)   # imm = 0x211D1AE6
	movl	$444444447, -68(%rbp)   # imm = 0x1A7DAF1F
	movl	-76(%rbp), %edi
	movl	-72(%rbp), %esi
	movl	-68(%rbp), %edx
	callq	guardMe
	movq	%rbx, -88(%rbp)
	movq	%r13, -120(%rbp)
	movq	%r12, -112(%rbp)
	movq	%r15, -104(%rbp)
	movq	%r14, -96(%rbp)
	movw	$0, -52(%rbp)
	movl	$0, -48(%rbp)
.LBB68_1:                               # %for.cond
                                        # =>This Inner Loop Header: Depth=1
	cmpl	$12, -48(%rbp)
	jg	.LBB68_12
# %bb.2:                                # %for.body
                                        #   in Loop: Header=BB68_1 Depth=1
	movq	-88(%rbp), %rax
	movslq	-48(%rbp), %rcx
	movw	(%rax,%rcx,2), %ax
	movw	%ax, -42(%rbp)
	movswl	-42(%rbp), %eax
	cmpl	$0, %eax
	jge	.LBB68_7
# %bb.3:                                # %cond.true
                                        #   in Loop: Header=BB68_1 Depth=1
	movswl	-42(%rbp), %eax
	cmpl	$-32768, %eax           # imm = 0x8000
	jne	.LBB68_5
# %bb.4:                                # %cond.true6
                                        #   in Loop: Header=BB68_1 Depth=1
	movl	$32767, %eax            # imm = 0x7FFF
	jmp	.LBB68_6
.LBB68_5:                               # %cond.false
                                        #   in Loop: Header=BB68_1 Depth=1
	xorl	%eax, %eax
	movswl	-42(%rbp), %ecx
	subl	%ecx, %eax
.LBB68_6:                               # %cond.end
                                        #   in Loop: Header=BB68_1 Depth=1
	jmp	.LBB68_8
.LBB68_7:                               # %cond.false8
                                        #   in Loop: Header=BB68_1 Depth=1
	movswl	-42(%rbp), %eax
.LBB68_8:                               # %cond.end10
                                        #   in Loop: Header=BB68_1 Depth=1
	movw	%ax, -42(%rbp)
	movswl	-42(%rbp), %eax
	movswl	-52(%rbp), %ecx
	cmpl	%ecx, %eax
	jle	.LBB68_10
# %bb.9:                                # %if.then
                                        #   in Loop: Header=BB68_1 Depth=1
	leaq	-52(%rbp), %rdi
	leaq	-42(%rbp), %rsi
	callq	APCM_quantization0
.LBB68_10:                              # %if.end
                                        #   in Loop: Header=BB68_1 Depth=1
	jmp	.LBB68_11
.LBB68_11:                              # %for.inc
                                        #   in Loop: Header=BB68_1 Depth=1
	movl	-48(%rbp), %eax
	addl	$1, %eax
	movl	%eax, -48(%rbp)
	jmp	.LBB68_1
.LBB68_12:                              # %for.end
	leaq	-42(%rbp), %rdi
	leaq	-52(%rbp), %rsi
	movw	$0, -44(%rbp)
	callq	APCM_quantization1
	movl	$0, -64(%rbp)
	movl	$0, -48(%rbp)
.LBB68_13:                              # %for.cond19
                                        # =>This Inner Loop Header: Depth=1
	cmpl	$5, -48(%rbp)
	jg	.LBB68_21
# %bb.14:                               # %for.body22
                                        #   in Loop: Header=BB68_13 Depth=1
	leaq	-64(%rbp), %rdi
	leaq	-42(%rbp), %rsi
	callq	APCM_quantization2
	movswl	-44(%rbp), %eax
	cmpl	$5, %eax
	jg	.LBB68_16
# %bb.15:                               # %cond.true32
                                        #   in Loop: Header=BB68_13 Depth=1
	jmp	.LBB68_17
.LBB68_16:                              # %cond.false33
	movabsq	$.L.str.42.70, %rdi
	movabsq	$.L.str.1.38, %rsi
	movabsq	$.L__PRETTY_FUNCTION__.APCM_quantization, %rcx
	movl	$293, %edx              # imm = 0x125
	callq	__assert_fail
.LBB68_17:                              # %cond.end34
                                        #   in Loop: Header=BB68_13 Depth=1
	cmpl	$0, -64(%rbp)
	jne	.LBB68_19
# %bb.18:                               # %if.then37
                                        #   in Loop: Header=BB68_13 Depth=1
	leaq	-44(%rbp), %rdi
	callq	APCM_quantization3
.LBB68_19:                              # %if.end39
                                        #   in Loop: Header=BB68_13 Depth=1
	jmp	.LBB68_20
.LBB68_20:                              # %for.inc40
                                        #   in Loop: Header=BB68_13 Depth=1
	movl	-48(%rbp), %eax
	addl	$1, %eax
	movl	%eax, -48(%rbp)
	jmp	.LBB68_13
.LBB68_21:                              # %for.end42
	movswl	-44(%rbp), %eax
	cmpl	$6, %eax
	jg	.LBB68_24
# %bb.22:                               # %land.lhs.true
	movswl	-44(%rbp), %eax
	cmpl	$0, %eax
	jl	.LBB68_24
# %bb.23:                               # %cond.true49
	jmp	.LBB68_25
.LBB68_24:                              # %cond.false50
	movabsq	$.L.str.2.43, %rdi
	movabsq	$.L.str.1.38, %rsi
	movabsq	$.L__PRETTY_FUNCTION__.APCM_quantization, %rcx
	movl	$297, %edx              # imm = 0x129
	callq	__assert_fail
.LBB68_25:                              # %cond.end51
	movswl	-44(%rbp), %eax
	addl	$5, %eax
	movw	%ax, -42(%rbp)
	movswl	-42(%rbp), %eax
	cmpl	$11, %eax
	jg	.LBB68_28
# %bb.26:                               # %land.lhs.true57
	movswl	-42(%rbp), %eax
	cmpl	$0, %eax
	jl	.LBB68_28
# %bb.27:                               # %cond.true61
	jmp	.LBB68_29
.LBB68_28:                              # %cond.false62
	movabsq	$.L.str.3.44, %rdi
	movabsq	$.L.str.1.38, %rsi
	movabsq	$.L__PRETTY_FUNCTION__.APCM_quantization, %rcx
	movl	$300, %edx              # imm = 0x12C
	callq	__assert_fail
.LBB68_29:                              # %cond.end63
	movswl	-52(%rbp), %eax
	movswl	-42(%rbp), %ecx
                                        # kill: def %cl killed %ecx
	sarl	%cl, %eax
	movswl	-44(%rbp), %ecx
	shll	$3, %ecx
	movswl	%ax, %edi
	movswl	%cx, %esi
	callq	gsm_add
	leaq	-44(%rbp), %rsi
	leaq	-50(%rbp), %rdx
	movw	%ax, -56(%rbp)
	movswl	-56(%rbp), %edi
	callq	APCM_quantization_xmaxc_to_exp_mant
	movswl	-44(%rbp), %eax
	cmpl	$4096, %eax             # imm = 0x1000
	jg	.LBB68_32
# %bb.30:                               # %land.lhs.true73
	movswl	-44(%rbp), %eax
	cmpl	$-4096, %eax            # imm = 0xF000
	jl	.LBB68_32
# %bb.31:                               # %cond.true77
	jmp	.LBB68_33
.LBB68_32:                              # %cond.false78
	movabsq	$.L.str.4.45, %rdi
	movabsq	$.L.str.1.38, %rsi
	movabsq	$.L__PRETTY_FUNCTION__.APCM_quantization, %rcx
	movl	$323, %edx              # imm = 0x143
	callq	__assert_fail
.LBB68_33:                              # %cond.end79
	movswl	-50(%rbp), %eax
	cmpl	$0, %eax
	jl	.LBB68_36
# %bb.34:                               # %land.lhs.true83
	movswl	-50(%rbp), %eax
	cmpl	$7, %eax
	jg	.LBB68_36
# %bb.35:                               # %cond.true87
	jmp	.LBB68_37
.LBB68_36:                              # %cond.false88
	movabsq	$.L.str.5.39, %rdi
	movabsq	$.L.str.1.38, %rsi
	movabsq	$.L__PRETTY_FUNCTION__.APCM_quantization, %rcx
	movl	$324, %edx              # imm = 0x144
	callq	__assert_fail
.LBB68_37:                              # %cond.end89
	leaq	-58(%rbp), %rdi
	leaq	-50(%rbp), %rsi
	leaq	-54(%rbp), %rdx
	leaq	-44(%rbp), %rcx
	callq	APCM_quantization4
	movl	$0, -48(%rbp)
.LBB68_38:                              # %for.cond95
                                        # =>This Inner Loop Header: Depth=1
	cmpl	$12, -48(%rbp)
	jg	.LBB68_45
# %bb.39:                               # %for.body98
                                        #   in Loop: Header=BB68_38 Depth=1
	movswl	-54(%rbp), %eax
	cmpl	$0, %eax
	jl	.LBB68_42
# %bb.40:                               # %land.lhs.true102
                                        #   in Loop: Header=BB68_38 Depth=1
	movswl	-54(%rbp), %eax
	cmpl	$16, %eax
	jge	.LBB68_42
# %bb.41:                               # %cond.true106
                                        #   in Loop: Header=BB68_38 Depth=1
	jmp	.LBB68_43
.LBB68_42:                              # %cond.false107
	movabsq	$.L.str.6.46, %rdi
	movabsq	$.L.str.1.38, %rsi
	movabsq	$.L__PRETTY_FUNCTION__.APCM_quantization, %rcx
	movl	$331, %edx              # imm = 0x14B
	callq	__assert_fail
.LBB68_43:                              # %cond.end108
                                        #   in Loop: Header=BB68_38 Depth=1
	leaq	-58(%rbp), %rdi
	leaq	-88(%rbp), %rsi
	leaq	-120(%rbp), %rdx
	leaq	-48(%rbp), %rcx
	leaq	-54(%rbp), %r8
	leaq	-42(%rbp), %r9
	callq	APCM_quantization5
# %bb.44:                               # %for.inc127
                                        #   in Loop: Header=BB68_38 Depth=1
	leaq	-48(%rbp), %rdi
	callq	APCM_quantization6
	jmp	.LBB68_38
.LBB68_45:                              # %for.end129
	leaq	-96(%rbp), %rdi
	leaq	-56(%rbp), %rsi
	leaq	-50(%rbp), %rdx
	leaq	-112(%rbp), %rcx
	leaq	-44(%rbp), %r8
	leaq	-104(%rbp), %r9
	callq	APCM_quantization7
	addq	$88, %rsp
	popq	%rbx
	popq	%r12
	popq	%r13
	popq	%r14
	popq	%r15
	popq	%rbp
	retq
.Lfunc_end68:
	.size	APCM_quantization, .Lfunc_end68-APCM_quantization
	.cfi_endproc
                                        # -- End function
	.p2align	4, 0x90         # -- Begin function APCM_inverse_quantization
	.type	APCM_inverse_quantization,@function
APCM_inverse_quantization:              # @APCM_inverse_quantization
	.cfi_startproc
# %bb.0:                                # %entry
	pushq	%rbp
	.cfi_def_cfa_offset 16
	.cfi_offset %rbp, -16
	movq	%rsp, %rbp
	.cfi_def_cfa_register %rbp
	subq	$48, %rsp
	movq	%rdi, -24(%rbp)
	movw	%si, -4(%rbp)
	movw	%dx, -12(%rbp)
	movq	%rcx, -40(%rbp)
	movswl	-4(%rbp), %eax
	cmpl	$0, %eax
	jl	.LBB69_3
# %bb.1:                                # %land.lhs.true
	movswl	-4(%rbp), %eax
	cmpl	$7, %eax
	jg	.LBB69_3
# %bb.2:                                # %cond.true
	jmp	.LBB69_4
.LBB69_3:                               # %cond.false
	movabsq	$.L.str.5.39, %rdi
	movabsq	$.L.str.1.38, %rsi
	movabsq	$.L__PRETTY_FUNCTION__.APCM_inverse_quantization, %rcx
	movl	$364, %edx              # imm = 0x16C
	callq	__assert_fail
.LBB69_4:                               # %cond.end
	leaq	-6(%rbp), %rdi
	leaq	-4(%rbp), %rsi
	leaq	-10(%rbp), %rdx
	leaq	-12(%rbp), %rcx
	leaq	-16(%rbp), %r8
	leaq	-8(%rbp), %r9
	callq	APCM_inverse_quantization0
.LBB69_5:                               # %for.cond
                                        # =>This Inner Loop Header: Depth=1
	movl	-16(%rbp), %eax
	movl	%eax, %ecx
	addl	$-1, %ecx
	movl	%ecx, -16(%rbp)
	cmpl	$0, %eax
	je	.LBB69_18
# %bb.6:                                # %for.body
                                        #   in Loop: Header=BB69_5 Depth=1
	movq	-24(%rbp), %rax
	movswl	(%rax), %eax
	cmpl	$7, %eax
	jg	.LBB69_9
# %bb.7:                                # %land.lhs.true11
                                        #   in Loop: Header=BB69_5 Depth=1
	movq	-24(%rbp), %rax
	movswl	(%rax), %eax
	cmpl	$0, %eax
	jl	.LBB69_9
# %bb.8:                                # %cond.true15
                                        #   in Loop: Header=BB69_5 Depth=1
	jmp	.LBB69_10
.LBB69_9:                               # %cond.false16
	movabsq	$.L.str.7.40, %rdi
	movabsq	$.L.str.1.38, %rsi
	movabsq	$.L__PRETTY_FUNCTION__.APCM_inverse_quantization, %rcx
	movl	$372, %edx              # imm = 0x174
	callq	__assert_fail
.LBB69_10:                              # %cond.end17
                                        #   in Loop: Header=BB69_5 Depth=1
	movq	-24(%rbp), %rax
	movq	%rax, %rcx
	addq	$2, %rcx
	movq	%rcx, -24(%rbp)
	movswl	(%rax), %eax
	shll	$1, %eax
	subl	$7, %eax
	movw	%ax, -2(%rbp)
	movswl	-2(%rbp), %eax
	cmpl	$7, %eax
	jg	.LBB69_13
# %bb.11:                               # %land.lhs.true23
                                        #   in Loop: Header=BB69_5 Depth=1
	movswl	-2(%rbp), %eax
	cmpl	$-7, %eax
	jl	.LBB69_13
# %bb.12:                               # %cond.true27
                                        #   in Loop: Header=BB69_5 Depth=1
	jmp	.LBB69_14
.LBB69_13:                              # %cond.false28
	movabsq	$.L.str.8.41, %rdi
	movabsq	$.L.str.1.38, %rsi
	movabsq	$.L__PRETTY_FUNCTION__.APCM_inverse_quantization, %rcx
	movl	$376, %edx              # imm = 0x178
	callq	__assert_fail
.LBB69_14:                              # %cond.end29
                                        #   in Loop: Header=BB69_5 Depth=1
	movswl	-2(%rbp), %eax
	shll	$12, %eax
	movw	%ax, -2(%rbp)
	movswq	-10(%rbp), %rax
	movswq	-2(%rbp), %rcx
	imulq	%rcx, %rax
	addq	$16384, %rax            # imm = 0x4000
	sarq	$15, %rax
	movw	%ax, -2(%rbp)
	movswq	-2(%rbp), %rax
	movswq	-6(%rbp), %rcx
	addq	%rcx, %rax
	movq	%rax, -32(%rbp)
	subq	$-32768, %rax           # imm = 0x8000
	cmpq	$65535, %rax            # imm = 0xFFFF
	jbe	.LBB69_16
# %bb.15:                               # %cond.true42
                                        #   in Loop: Header=BB69_5 Depth=1
	movl	$4294934528, %eax       # imm = 0xFFFF8000
	movl	$32767, %ecx            # imm = 0x7FFF
	movq	-32(%rbp), %rdx
	cmpq	$0, %rdx
	cmovgl	%ecx, %eax
	cltq
	jmp	.LBB69_17
.LBB69_16:                              # %cond.false46
                                        #   in Loop: Header=BB69_5 Depth=1
	movq	-32(%rbp), %rax
.LBB69_17:                              # %cond.end47
                                        #   in Loop: Header=BB69_5 Depth=1
	movw	%ax, -2(%rbp)
	movw	-2(%rbp), %ax
	movswl	-8(%rbp), %esi
	movswl	%ax, %edi
	callq	gsm_asr
	movq	-40(%rbp), %rcx
	movq	%rcx, %rdx
	addq	$2, %rdx
	movq	%rdx, -40(%rbp)
	movw	%ax, (%rcx)
	jmp	.LBB69_5
.LBB69_18:                              # %for.end
	addq	$48, %rsp
	popq	%rbp
	retq
.Lfunc_end69:
	.size	APCM_inverse_quantization, .Lfunc_end69-APCM_inverse_quantization
	.cfi_endproc
                                        # -- End function
	.p2align	4, 0x90         # -- Begin function RPE_grid_positioning
	.type	RPE_grid_positioning,@function
RPE_grid_positioning:                   # @RPE_grid_positioning
	.cfi_startproc
# %bb.0:                                # %entry
	pushq	%rbp
	.cfi_def_cfa_offset 16
	.cfi_offset %rbp, -16
	movq	%rsp, %rbp
	.cfi_def_cfa_register %rbp
	subq	$32, %rsp
	xorl	%eax, %eax
	movw	%di, -2(%rbp)
	movq	%rsi, -32(%rbp)
	movq	%rdx, -16(%rbp)
	movl	$13, -20(%rbp)
	movswl	-2(%rbp), %ecx
	cmpl	%ecx, %eax
	jg	.LBB70_3
# %bb.1:                                # %land.lhs.true
	movswl	-2(%rbp), %eax
	cmpl	$3, %eax
	jg	.LBB70_3
# %bb.2:                                # %cond.true
	jmp	.LBB70_4
.LBB70_3:                               # %cond.false
	movabsq	$.L.str.9.37, %rdi
	movabsq	$.L.str.1.38, %rsi
	movabsq	$.L__PRETTY_FUNCTION__.RPE_grid_positioning, %rcx
	movl	$402, %edx              # imm = 0x192
	callq	__assert_fail
.LBB70_4:                               # %cond.end
	movswl	-2(%rbp), %eax
	movl	%eax, %ecx
	subl	$3, %ecx
	ja	.LBB70_13
# %bb.5:                                # %cond.end
	movq	.LJTI70_0(,%rax,8), %rax
	jmpq	*%rax
.LBB70_6:                               # %sw.bb
	leaq	-16(%rbp), %rdi
	callq	RPE_grid_positioning0
.LBB70_7:                               # %sw.bb6
	jmp	.LBB70_8
.LBB70_8:                               # %do.body
	leaq	-16(%rbp), %rdi
	callq	RPE_grid_positioning1
.LBB70_9:                               # %sw.bb8
	leaq	-16(%rbp), %rdi
	callq	RPE_grid_positioning2
.LBB70_10:                              # %sw.bb10
	leaq	-16(%rbp), %rdi
	leaq	-32(%rbp), %rsi
	callq	RPE_grid_positioning3
# %bb.11:                               # %do.cond
	movl	-20(%rbp), %eax
	addl	$-1, %eax
	movl	%eax, -20(%rbp)
	cmpl	$0, %eax
	jne	.LBB70_8
# %bb.12:                               # %do.end
	jmp	.LBB70_13
.LBB70_13:                              # %sw.epilog
	jmp	.LBB70_14
.LBB70_14:                              # %while.cond
                                        # =>This Inner Loop Header: Depth=1
	movw	-2(%rbp), %ax
	addw	$1, %ax
	movw	%ax, -2(%rbp)
	cwtl
	cmpl	$4, %eax
	jge	.LBB70_16
# %bb.15:                               # %while.body
                                        #   in Loop: Header=BB70_14 Depth=1
	leaq	-16(%rbp), %rdi
	callq	RPE_grid_positioning4
	jmp	.LBB70_14
.LBB70_16:                              # %while.end
	addq	$32, %rsp
	popq	%rbp
	retq
.Lfunc_end70:
	.size	RPE_grid_positioning, .Lfunc_end70-RPE_grid_positioning
	.cfi_endproc
	.section	.rodata,"a",@progbits
	.p2align	3
.LJTI70_0:
	.quad	.LBB70_10
	.quad	.LBB70_9
	.quad	.LBB70_7
	.quad	.LBB70_6
                                        # -- End function
	.text
	.globl	RPE_grid_positioning0   # -- Begin function RPE_grid_positioning0
	.p2align	4, 0x90
	.type	RPE_grid_positioning0,@function
RPE_grid_positioning0:                  # @RPE_grid_positioning0
	.cfi_startproc
# %bb.0:                                # %entry
	movq	%rdi, -8(%rsp)
	movq	(%rdi), %rax
	leaq	2(%rax), %rcx
	movq	%rcx, -16(%rsp)
	movw	$0, (%rax)
	movq	-8(%rsp), %rax
	movq	-16(%rsp), %rcx
	movq	%rcx, (%rax)
	retq
.Lfunc_end71:
	.size	RPE_grid_positioning0, .Lfunc_end71-RPE_grid_positioning0
	.cfi_endproc
                                        # -- End function
	.globl	RPE_grid_positioning1   # -- Begin function RPE_grid_positioning1
	.p2align	4, 0x90
	.type	RPE_grid_positioning1,@function
RPE_grid_positioning1:                  # @RPE_grid_positioning1
	.cfi_startproc
# %bb.0:                                # %entry
	movq	%rdi, -8(%rsp)
	movq	(%rdi), %rax
	leaq	2(%rax), %rcx
	movq	%rcx, -16(%rsp)
	movw	$0, (%rax)
	movq	-8(%rsp), %rax
	movq	-16(%rsp), %rcx
	movq	%rcx, (%rax)
	retq
.Lfunc_end72:
	.size	RPE_grid_positioning1, .Lfunc_end72-RPE_grid_positioning1
	.cfi_endproc
                                        # -- End function
	.globl	RPE_grid_positioning2   # -- Begin function RPE_grid_positioning2
	.p2align	4, 0x90
	.type	RPE_grid_positioning2,@function
RPE_grid_positioning2:                  # @RPE_grid_positioning2
	.cfi_startproc
# %bb.0:                                # %entry
	movq	%rdi, -8(%rsp)
	movq	(%rdi), %rax
	leaq	2(%rax), %rcx
	movq	%rcx, -16(%rsp)
	movw	$0, (%rax)
	movq	-8(%rsp), %rax
	movq	-16(%rsp), %rcx
	movq	%rcx, (%rax)
	retq
.Lfunc_end73:
	.size	RPE_grid_positioning2, .Lfunc_end73-RPE_grid_positioning2
	.cfi_endproc
                                        # -- End function
	.globl	RPE_grid_positioning3   # -- Begin function RPE_grid_positioning3
	.p2align	4, 0x90
	.type	RPE_grid_positioning3,@function
RPE_grid_positioning3:                  # @RPE_grid_positioning3
	.cfi_startproc
# %bb.0:                                # %entry
	movq	%rdi, -8(%rsp)
	movq	(%rdi), %rax
	movq	%rax, -32(%rsp)
	movq	%rsi, -16(%rsp)
	movq	(%rsi), %rcx
	leaq	2(%rcx), %rdx
	movq	%rdx, -24(%rsp)
	movzwl	(%rcx), %ecx
	leaq	2(%rax), %rdx
	movq	%rdx, -32(%rsp)
	movw	%cx, (%rax)
	movq	-16(%rsp), %rax
	movq	-24(%rsp), %rcx
	movq	%rcx, (%rax)
	movq	-8(%rsp), %rax
	movq	-32(%rsp), %rcx
	movq	%rcx, (%rax)
	retq
.Lfunc_end74:
	.size	RPE_grid_positioning3, .Lfunc_end74-RPE_grid_positioning3
	.cfi_endproc
                                        # -- End function
	.globl	RPE_grid_positioning4   # -- Begin function RPE_grid_positioning4
	.p2align	4, 0x90
	.type	RPE_grid_positioning4,@function
RPE_grid_positioning4:                  # @RPE_grid_positioning4
	.cfi_startproc
# %bb.0:                                # %entry
	movq	%rdi, -8(%rsp)
	movq	(%rdi), %rax
	leaq	2(%rax), %rcx
	movq	%rcx, -16(%rsp)
	movw	$0, (%rax)
	movq	-8(%rsp), %rax
	movq	-16(%rsp), %rcx
	movq	%rcx, (%rax)
	retq
.Lfunc_end75:
	.size	RPE_grid_positioning4, .Lfunc_end75-RPE_grid_positioning4
	.cfi_endproc
                                        # -- End function
	.globl	APCM_inverse_quantization0 # -- Begin function APCM_inverse_quantization0
	.p2align	4, 0x90
	.type	APCM_inverse_quantization0,@function
APCM_inverse_quantization0:             # @APCM_inverse_quantization0
	.cfi_startproc
# %bb.0:                                # %entry
	subq	$72, %rsp
	.cfi_def_cfa_offset 80
	movq	%rdi, 64(%rsp)
	movzwl	(%rdi), %eax
	movw	%ax, 18(%rsp)
	movq	%rsi, 56(%rsp)
	movzwl	(%rsi), %eax
	movw	%ax, 16(%rsp)
	movq	%rdx, 48(%rsp)
	movzwl	(%rdx), %eax
	movw	%ax, 14(%rsp)
	movq	%rcx, 40(%rsp)
	movzwl	(%rcx), %eax
	movw	%ax, 12(%rsp)
	movq	%r8, 32(%rsp)
	movl	(%r8), %eax
	movl	%eax, 20(%rsp)
	movq	%r9, 24(%rsp)
	movzwl	(%r9), %eax
	movw	%ax, 10(%rsp)
	movswq	16(%rsp), %rax
	movzwl	gsm_FAC(%rax,%rax), %eax
	movw	%ax, 14(%rsp)
	movswl	12(%rsp), %esi
	movl	$6, %edi
	callq	gsm_sub
	movw	%ax, 10(%rsp)
	movswl	10(%rsp), %edi
	movl	$1, %esi
	callq	gsm_sub
	movswl	%ax, %esi
	movl	$1, %edi
	callq	gsm_asl
	movw	%ax, 18(%rsp)
	movl	$13, 20(%rsp)
	movq	24(%rsp), %rax
	movzwl	10(%rsp), %ecx
	movw	%cx, (%rax)
	movq	32(%rsp), %rax
	movl	20(%rsp), %ecx
	movl	%ecx, (%rax)
	movq	64(%rsp), %rax
	movzwl	18(%rsp), %ecx
	movw	%cx, (%rax)
	movq	56(%rsp), %rax
	movzwl	16(%rsp), %ecx
	movw	%cx, (%rax)
	movq	48(%rsp), %rax
	movzwl	14(%rsp), %ecx
	movw	%cx, (%rax)
	movq	40(%rsp), %rax
	movzwl	12(%rsp), %ecx
	movw	%cx, (%rax)
	addq	$72, %rsp
	retq
.Lfunc_end76:
	.size	APCM_inverse_quantization0, .Lfunc_end76-APCM_inverse_quantization0
	.cfi_endproc
                                        # -- End function
	.globl	gsm_asr                 # -- Begin function gsm_asr
	.p2align	4, 0x90
	.type	gsm_asr,@function
gsm_asr:                                # @gsm_asr
	.cfi_startproc
# %bb.0:                                # %entry
	pushq	%rbp
	.cfi_def_cfa_offset 16
	.cfi_offset %rbp, -16
	movq	%rsp, %rbp
	.cfi_def_cfa_register %rbp
	subq	$16, %rsp
	movw	%di, -4(%rbp)
	movl	%esi, -8(%rbp)
	cmpl	$16, -8(%rbp)
	jl	.LBB77_2
# %bb.1:                                # %if.then
	leaq	-2(%rbp), %rdi
	leaq	-4(%rbp), %rsi
	callq	gsm_asr0
	jmp	.LBB77_7
.LBB77_2:                               # %if.end
	cmpl	$-16, -8(%rbp)
	jg	.LBB77_4
# %bb.3:                                # %if.then6
	movw	$0, -2(%rbp)
	jmp	.LBB77_7
.LBB77_4:                               # %if.end7
	cmpl	$0, -8(%rbp)
	jge	.LBB77_6
# %bb.5:                                # %if.then10
	leaq	-2(%rbp), %rdi
	leaq	-8(%rbp), %rsi
	leaq	-4(%rbp), %rdx
	callq	gsm_asr1
	jmp	.LBB77_7
.LBB77_6:                               # %if.end14
	leaq	-2(%rbp), %rdi
	leaq	-8(%rbp), %rsi
	leaq	-4(%rbp), %rdx
	callq	gsm_asr2
.LBB77_7:                               # %return
	movswl	-2(%rbp), %eax
	addq	$16, %rsp
	popq	%rbp
	retq
.Lfunc_end77:
	.size	gsm_asr, .Lfunc_end77-gsm_asr
	.cfi_endproc
                                        # -- End function
	.globl	gsm_asr0                # -- Begin function gsm_asr0
	.p2align	4, 0x90
	.type	gsm_asr0,@function
gsm_asr0:                               # @gsm_asr0
	.cfi_startproc
# %bb.0:                                # %entry
	movq	%rdi, -16(%rsp)
	movzwl	(%rdi), %eax
	movw	%ax, -20(%rsp)
	movq	%rsi, -8(%rsp)
	movzwl	(%rsi), %eax
	movw	%ax, -18(%rsp)
	movswl	-18(%rsp), %eax
	movl	%eax, %ecx
	sarl	$31, %ecx
	movw	%cx, -20(%rsp)
	movw	%ax, (%rsi)
	movq	-16(%rsp), %rax
	movzwl	-20(%rsp), %ecx
	movw	%cx, (%rax)
	retq
.Lfunc_end78:
	.size	gsm_asr0, .Lfunc_end78-gsm_asr0
	.cfi_endproc
                                        # -- End function
	.globl	gsm_asr1                # -- Begin function gsm_asr1
	.p2align	4, 0x90
	.type	gsm_asr1,@function
gsm_asr1:                               # @gsm_asr1
	.cfi_startproc
# %bb.0:                                # %entry
	movq	%rdi, -16(%rsp)
	movzwl	(%rdi), %eax
	movw	%ax, -32(%rsp)
	movq	%rsi, -24(%rsp)
	movl	(%rsi), %ecx
	movl	%ecx, -28(%rsp)
	movq	%rdx, -8(%rsp)
	movzwl	(%rdx), %eax
	movw	%ax, -30(%rsp)
	movswl	-30(%rsp), %eax
	negl	%ecx
	movl	%eax, %esi
                                        # kill: def %cl killed %cl killed %ecx
	shll	%cl, %esi
	movw	%si, -32(%rsp)
	movw	%ax, (%rdx)
	movq	-24(%rsp), %rax
	movl	-28(%rsp), %ecx
	movl	%ecx, (%rax)
	movq	-16(%rsp), %rax
	movzwl	-32(%rsp), %ecx
	movw	%cx, (%rax)
	retq
.Lfunc_end79:
	.size	gsm_asr1, .Lfunc_end79-gsm_asr1
	.cfi_endproc
                                        # -- End function
	.globl	gsm_asr2                # -- Begin function gsm_asr2
	.p2align	4, 0x90
	.type	gsm_asr2,@function
gsm_asr2:                               # @gsm_asr2
	.cfi_startproc
# %bb.0:                                # %entry
	movq	%rdi, -16(%rsp)
	movzwl	(%rdi), %eax
	movw	%ax, -32(%rsp)
	movq	%rsi, -24(%rsp)
	movl	(%rsi), %eax
	movl	%eax, -28(%rsp)
	movq	%rdx, -8(%rsp)
	movzwl	(%rdx), %eax
	movw	%ax, -30(%rsp)
	movswl	-30(%rsp), %eax
	movb	-28(%rsp), %cl
	movl	%eax, %esi
	sarl	%cl, %esi
	movw	%si, -32(%rsp)
	movw	%ax, (%rdx)
	movq	-24(%rsp), %rax
	movl	-28(%rsp), %ecx
	movl	%ecx, (%rax)
	movq	-16(%rsp), %rax
	movzwl	-32(%rsp), %ecx
	movw	%cx, (%rax)
	retq
.Lfunc_end80:
	.size	gsm_asr2, .Lfunc_end80-gsm_asr2
	.cfi_endproc
                                        # -- End function
	.globl	gsm_sub                 # -- Begin function gsm_sub
	.p2align	4, 0x90
	.type	gsm_sub,@function
gsm_sub:                                # @gsm_sub
	.cfi_startproc
# %bb.0:                                # %entry
	pushq	%rbp
	.cfi_def_cfa_offset 16
	.cfi_offset %rbp, -16
	movq	%rsp, %rbp
	.cfi_def_cfa_register %rbp
	movw	%di, -4(%rbp)
	movw	%si, -2(%rbp)
	movswq	-4(%rbp), %rax
	movswq	-2(%rbp), %rcx
	subq	%rcx, %rax
	movq	%rax, -16(%rbp)
	cmpq	$-32768, -16(%rbp)      # imm = 0x8000
	jge	.LBB81_2
# %bb.1:                                # %cond.true
	movq	$-32768, %rax           # imm = 0x8000
	jmp	.LBB81_6
.LBB81_2:                               # %cond.false
	cmpq	$32767, -16(%rbp)       # imm = 0x7FFF
	jle	.LBB81_4
# %bb.3:                                # %cond.true5
	movl	$32767, %eax            # imm = 0x7FFF
	jmp	.LBB81_5
.LBB81_4:                               # %cond.false6
	movq	-16(%rbp), %rax
.LBB81_5:                               # %cond.end
.LBB81_6:                               # %cond.end7
	cwtl
	popq	%rbp
	retq
.Lfunc_end81:
	.size	gsm_sub, .Lfunc_end81-gsm_sub
	.cfi_endproc
                                        # -- End function
	.globl	gsm_asl                 # -- Begin function gsm_asl
	.p2align	4, 0x90
	.type	gsm_asl,@function
gsm_asl:                                # @gsm_asl
	.cfi_startproc
# %bb.0:                                # %entry
	pushq	%rbp
	.cfi_def_cfa_offset 16
	.cfi_offset %rbp, -16
	movq	%rsp, %rbp
	.cfi_def_cfa_register %rbp
	subq	$16, %rsp
	movw	%di, -4(%rbp)
	movl	%esi, -8(%rbp)
	cmpl	$16, -8(%rbp)
	jl	.LBB82_2
# %bb.1:                                # %if.then
	movw	$0, -2(%rbp)
	jmp	.LBB82_7
.LBB82_2:                               # %if.end
	cmpl	$-16, -8(%rbp)
	jg	.LBB82_4
# %bb.3:                                # %if.then2
	leaq	-2(%rbp), %rdi
	leaq	-4(%rbp), %rsi
	callq	gsm_asl0
	jmp	.LBB82_7
.LBB82_4:                               # %if.end6
	cmpl	$0, -8(%rbp)
	jge	.LBB82_6
# %bb.5:                                # %if.then9
	leaq	-2(%rbp), %rdi
	leaq	-8(%rbp), %rsi
	leaq	-4(%rbp), %rdx
	callq	gsm_asl1
	jmp	.LBB82_7
.LBB82_6:                               # %if.end11
	leaq	-2(%rbp), %rdi
	leaq	-8(%rbp), %rsi
	leaq	-4(%rbp), %rdx
	callq	gsm_asl2
.LBB82_7:                               # %return
	movswl	-2(%rbp), %eax
	addq	$16, %rsp
	popq	%rbp
	retq
.Lfunc_end82:
	.size	gsm_asl, .Lfunc_end82-gsm_asl
	.cfi_endproc
                                        # -- End function
	.globl	gsm_asl0                # -- Begin function gsm_asl0
	.p2align	4, 0x90
	.type	gsm_asl0,@function
gsm_asl0:                               # @gsm_asl0
	.cfi_startproc
# %bb.0:                                # %entry
	movq	%rdi, -16(%rsp)
	movzwl	(%rdi), %eax
	movw	%ax, -20(%rsp)
	movq	%rsi, -8(%rsp)
	movzwl	(%rsi), %eax
	movw	%ax, -18(%rsp)
	movswl	-18(%rsp), %eax
	movl	%eax, %ecx
	sarl	$31, %ecx
	movw	%cx, -20(%rsp)
	movw	%ax, (%rsi)
	movq	-16(%rsp), %rax
	movzwl	-20(%rsp), %ecx
	movw	%cx, (%rax)
	retq
.Lfunc_end83:
	.size	gsm_asl0, .Lfunc_end83-gsm_asl0
	.cfi_endproc
                                        # -- End function
	.globl	gsm_asl1                # -- Begin function gsm_asl1
	.p2align	4, 0x90
	.type	gsm_asl1,@function
gsm_asl1:                               # @gsm_asl1
	.cfi_startproc
# %bb.0:                                # %entry
	subq	$40, %rsp
	.cfi_def_cfa_offset 48
	movq	%rdi, 32(%rsp)
	movzwl	(%rdi), %eax
	movw	%ax, 10(%rsp)
	movq	%rsi, 24(%rsp)
	movl	(%rsi), %esi
	movl	%esi, 12(%rsp)
	movq	%rdx, 16(%rsp)
	movzwl	(%rdx), %eax
	movw	%ax, 8(%rsp)
	negl	%esi
	movswl	8(%rsp), %edi
	callq	gsm_asr
	movw	%ax, 10(%rsp)
	movq	16(%rsp), %rax
	movzwl	8(%rsp), %ecx
	movw	%cx, (%rax)
	movq	24(%rsp), %rax
	movl	12(%rsp), %ecx
	movl	%ecx, (%rax)
	movq	32(%rsp), %rax
	movzwl	10(%rsp), %ecx
	movw	%cx, (%rax)
	addq	$40, %rsp
	retq
.Lfunc_end84:
	.size	gsm_asl1, .Lfunc_end84-gsm_asl1
	.cfi_endproc
                                        # -- End function
	.globl	gsm_asl2                # -- Begin function gsm_asl2
	.p2align	4, 0x90
	.type	gsm_asl2,@function
gsm_asl2:                               # @gsm_asl2
	.cfi_startproc
# %bb.0:                                # %entry
	movq	%rdi, -16(%rsp)
	movzwl	(%rdi), %eax
	movw	%ax, -32(%rsp)
	movq	%rsi, -24(%rsp)
	movl	(%rsi), %eax
	movl	%eax, -28(%rsp)
	movq	%rdx, -8(%rsp)
	movzwl	(%rdx), %eax
	movw	%ax, -30(%rsp)
	movswl	-30(%rsp), %eax
	movb	-28(%rsp), %cl
	movl	%eax, %esi
	shll	%cl, %esi
	movw	%si, -32(%rsp)
	movw	%ax, (%rdx)
	movq	-24(%rsp), %rax
	movl	-28(%rsp), %ecx
	movl	%ecx, (%rax)
	movq	-16(%rsp), %rax
	movzwl	-32(%rsp), %ecx
	movw	%cx, (%rax)
	retq
.Lfunc_end85:
	.size	gsm_asl2, .Lfunc_end85-gsm_asl2
	.cfi_endproc
                                        # -- End function
	.globl	APCM_quantization0      # -- Begin function APCM_quantization0
	.p2align	4, 0x90
	.type	APCM_quantization0,@function
APCM_quantization0:                     # @APCM_quantization0
	.cfi_startproc
# %bb.0:                                # %entry
	movq	%rdi, -16(%rsp)
	movzwl	(%rdi), %eax
	movw	%ax, -20(%rsp)
	movq	%rsi, -8(%rsp)
	movzwl	(%rsi), %eax
	movw	%ax, -18(%rsp)
	movw	%ax, -20(%rsp)
	movw	%ax, (%rsi)
	movq	-16(%rsp), %rax
	movzwl	-20(%rsp), %ecx
	movw	%cx, (%rax)
	retq
.Lfunc_end86:
	.size	APCM_quantization0, .Lfunc_end86-APCM_quantization0
	.cfi_endproc
                                        # -- End function
	.globl	APCM_quantization1      # -- Begin function APCM_quantization1
	.p2align	4, 0x90
	.type	APCM_quantization1,@function
APCM_quantization1:                     # @APCM_quantization1
	.cfi_startproc
# %bb.0:                                # %entry
	movq	%rdi, -16(%rsp)
	movzwl	(%rdi), %eax
	movw	%ax, -20(%rsp)
	movq	%rsi, -8(%rsp)
	movzwl	(%rsi), %eax
	movw	%ax, -18(%rsp)
	movswl	-18(%rsp), %eax
	movl	%eax, %ecx
	shrl	$9, %ecx
	movw	%cx, -20(%rsp)
	movw	%ax, (%rsi)
	movq	-16(%rsp), %rax
	movzwl	-20(%rsp), %ecx
	movw	%cx, (%rax)
	retq
.Lfunc_end87:
	.size	APCM_quantization1, .Lfunc_end87-APCM_quantization1
	.cfi_endproc
                                        # -- End function
	.globl	APCM_quantization2      # -- Begin function APCM_quantization2
	.p2align	4, 0x90
	.type	APCM_quantization2,@function
APCM_quantization2:                     # @APCM_quantization2
	.cfi_startproc
# %bb.0:                                # %entry
	movq	%rdi, -16(%rsp)
	movl	(%rdi), %eax
	movl	%eax, -20(%rsp)
	movq	%rsi, -8(%rsp)
	movzwl	(%rsi), %ecx
	movw	%cx, -22(%rsp)
	movswl	-22(%rsp), %ecx
	xorl	%edx, %edx
	testl	%ecx, %ecx
	setle	%dl
	orl	%eax, %edx
	movl	%edx, -20(%rsp)
	shrl	%ecx
	movw	%cx, -22(%rsp)
	movw	%cx, (%rsi)
	movq	-16(%rsp), %rax
	movl	-20(%rsp), %ecx
	movl	%ecx, (%rax)
	retq
.Lfunc_end88:
	.size	APCM_quantization2, .Lfunc_end88-APCM_quantization2
	.cfi_endproc
                                        # -- End function
	.globl	APCM_quantization3      # -- Begin function APCM_quantization3
	.p2align	4, 0x90
	.type	APCM_quantization3,@function
APCM_quantization3:                     # @APCM_quantization3
	.cfi_startproc
# %bb.0:                                # %entry
	movq	%rdi, -8(%rsp)
	movzwl	(%rdi), %eax
	incl	%eax
	movw	%ax, -10(%rsp)
	movw	%ax, (%rdi)
	retq
.Lfunc_end89:
	.size	APCM_quantization3, .Lfunc_end89-APCM_quantization3
	.cfi_endproc
                                        # -- End function
	.globl	gsm_add                 # -- Begin function gsm_add
	.p2align	4, 0x90
	.type	gsm_add,@function
gsm_add:                                # @gsm_add
	.cfi_startproc
# %bb.0:                                # %entry
	pushq	%rbp
	.cfi_def_cfa_offset 16
	.cfi_offset %rbp, -16
	movq	%rsp, %rbp
	.cfi_def_cfa_register %rbp
	movw	%di, -4(%rbp)
	movw	%si, -2(%rbp)
	movswq	-4(%rbp), %rax
	movswq	-2(%rbp), %rcx
	addq	%rcx, %rax
	movq	%rax, -16(%rbp)
	cmpq	$-32768, -16(%rbp)      # imm = 0x8000
	jge	.LBB90_2
# %bb.1:                                # %cond.true
	movq	$-32768, %rax           # imm = 0x8000
	jmp	.LBB90_6
.LBB90_2:                               # %cond.false
	cmpq	$32767, -16(%rbp)       # imm = 0x7FFF
	jle	.LBB90_4
# %bb.3:                                # %cond.true5
	movl	$32767, %eax            # imm = 0x7FFF
	jmp	.LBB90_5
.LBB90_4:                               # %cond.false6
	movq	-16(%rbp), %rax
.LBB90_5:                               # %cond.end
.LBB90_6:                               # %cond.end7
	cwtl
	popq	%rbp
	retq
.Lfunc_end90:
	.size	gsm_add, .Lfunc_end90-gsm_add
	.cfi_endproc
                                        # -- End function
	.p2align	4, 0x90         # -- Begin function APCM_quantization_xmaxc_to_exp_mant
	.type	APCM_quantization_xmaxc_to_exp_mant,@function
APCM_quantization_xmaxc_to_exp_mant:    # @APCM_quantization_xmaxc_to_exp_mant
	.cfi_startproc
# %bb.0:                                # %entry
	pushq	%rbp
	.cfi_def_cfa_offset 16
	.cfi_offset %rbp, -16
	movq	%rsp, %rbp
	.cfi_def_cfa_register %rbp
	subq	$32, %rsp
	movw	%di, -6(%rbp)
	movq	%rsi, -24(%rbp)
	movq	%rdx, -16(%rbp)
	movw	$0, -4(%rbp)
	movswl	-6(%rbp), %eax
	cmpl	$15, %eax
	jle	.LBB91_2
# %bb.1:                                # %if.then
	leaq	-4(%rbp), %rdi
	leaq	-6(%rbp), %rsi
	callq	APCM_quantization_xmaxc_to_exp_mant0
.LBB91_2:                               # %if.end
	movswl	-6(%rbp), %eax
	movswl	-4(%rbp), %ecx
	shll	$3, %ecx
	subl	%ecx, %eax
	movw	%ax, -2(%rbp)
	movswl	-2(%rbp), %eax
	cmpl	$0, %eax
	jne	.LBB91_4
# %bb.3:                                # %if.then11
	leaq	-2(%rbp), %rdi
	leaq	-4(%rbp), %rsi
	callq	APCM_quantization_xmaxc_to_exp_mant1
	jmp	.LBB91_8
.LBB91_4:                               # %if.else
	jmp	.LBB91_5
.LBB91_5:                               # %while.cond
                                        # =>This Inner Loop Header: Depth=1
	movswl	-2(%rbp), %eax
	cmpl	$7, %eax
	jg	.LBB91_7
# %bb.6:                                # %while.body
                                        #   in Loop: Header=BB91_5 Depth=1
	leaq	-4(%rbp), %rdi
	leaq	-2(%rbp), %rsi
	callq	APCM_quantization_xmaxc_to_exp_mant2
	jmp	.LBB91_5
.LBB91_7:                               # %while.end
	leaq	-2(%rbp), %rdi
	callq	APCM_quantization_xmaxc_to_exp_mant3
.LBB91_8:                               # %if.end21
	movswl	-4(%rbp), %eax
	cmpl	$-4, %eax
	jl	.LBB91_11
# %bb.9:                                # %land.lhs.true
	movswl	-4(%rbp), %eax
	cmpl	$6, %eax
	jg	.LBB91_11
# %bb.10:                               # %cond.true
	jmp	.LBB91_12
.LBB91_11:                              # %cond.false
	movabsq	$.L.str.10.47, %rdi
	movabsq	$.L.str.1.38, %rsi
	movabsq	$.L__PRETTY_FUNCTION__.APCM_quantization_xmaxc_to_exp_mant, %rcx
	movl	$249, %edx
	callq	__assert_fail
.LBB91_12:                              # %cond.end
	movswl	-2(%rbp), %eax
	cmpl	$0, %eax
	jl	.LBB91_15
# %bb.13:                               # %land.lhs.true31
	movswl	-2(%rbp), %eax
	cmpl	$7, %eax
	jg	.LBB91_15
# %bb.14:                               # %cond.true35
	jmp	.LBB91_16
.LBB91_15:                              # %cond.false36
	movabsq	$.L.str.5.39, %rdi
	movabsq	$.L.str.1.38, %rsi
	movabsq	$.L__PRETTY_FUNCTION__.APCM_quantization_xmaxc_to_exp_mant, %rcx
	movl	$250, %edx
	callq	__assert_fail
.LBB91_16:                              # %cond.end37
	leaq	-16(%rbp), %rdi
	leaq	-2(%rbp), %rsi
	leaq	-24(%rbp), %rdx
	leaq	-4(%rbp), %rcx
	callq	APCM_quantization_xmaxc_to_exp_mant4
	addq	$32, %rsp
	popq	%rbp
	retq
.Lfunc_end91:
	.size	APCM_quantization_xmaxc_to_exp_mant, .Lfunc_end91-APCM_quantization_xmaxc_to_exp_mant
	.cfi_endproc
                                        # -- End function
	.globl	APCM_quantization4      # -- Begin function APCM_quantization4
	.p2align	4, 0x90
	.type	APCM_quantization4,@function
APCM_quantization4:                     # @APCM_quantization4
	.cfi_startproc
# %bb.0:                                # %entry
	movq	%rdi, -8(%rsp)
	movzwl	(%rdi), %eax
	movw	%ax, -36(%rsp)
	movq	%rsi, -16(%rsp)
	movzwl	(%rsi), %eax
	movw	%ax, -38(%rsp)
	movq	%rdx, -24(%rsp)
	movzwl	(%rdx), %eax
	movw	%ax, -40(%rsp)
	movq	%rcx, -32(%rsp)
	movzwl	(%rcx), %eax
	movw	%ax, -34(%rsp)
	movzwl	-34(%rsp), %eax
	movl	$6, %ecx
	subl	%eax, %ecx
	movw	%cx, -40(%rsp)
	movswq	-38(%rsp), %rcx
	movzwl	gsm_NRFAC(%rcx,%rcx), %ecx
	movw	%cx, -36(%rsp)
	movq	-32(%rsp), %rcx
	movw	%ax, (%rcx)
	movq	-24(%rsp), %rax
	movzwl	-40(%rsp), %ecx
	movw	%cx, (%rax)
	movq	-16(%rsp), %rax
	movzwl	-38(%rsp), %ecx
	movw	%cx, (%rax)
	movq	-8(%rsp), %rax
	movzwl	-36(%rsp), %ecx
	movw	%cx, (%rax)
	retq
.Lfunc_end92:
	.size	APCM_quantization4, .Lfunc_end92-APCM_quantization4
	.cfi_endproc
                                        # -- End function
	.globl	APCM_quantization5      # -- Begin function APCM_quantization5
	.p2align	4, 0x90
	.type	APCM_quantization5,@function
APCM_quantization5:                     # @APCM_quantization5
	.cfi_startproc
# %bb.0:                                # %entry
	movq	%rdi, -8(%rsp)
	movzwl	(%rdi), %eax
	movw	%ax, -70(%rsp)
	movq	%rsi, -16(%rsp)
	movq	(%rsi), %rax
	movq	%rax, -56(%rsp)
	movq	%rdx, -24(%rsp)
	movq	(%rdx), %rax
	movq	%rax, -64(%rsp)
	movq	%rcx, -32(%rsp)
	movl	(%rcx), %eax
	movl	%eax, -68(%rsp)
	movq	%r8, -40(%rsp)
	movzwl	(%r8), %eax
	movw	%ax, -72(%rsp)
	movq	%r9, -48(%rsp)
	movzwl	(%r9), %eax
	movw	%ax, -74(%rsp)
	movq	-56(%rsp), %rax
	movslq	-68(%rsp), %rcx
	movswl	(%rax,%rcx,2), %eax
	movb	-72(%rsp), %cl
	shll	%cl, %eax
	movw	%ax, -74(%rsp)
	movswl	-70(%rsp), %eax
	movswl	-74(%rsp), %ecx
	imull	%eax, %ecx
	shrl	$15, %ecx
	movw	%cx, -74(%rsp)
	movswl	-74(%rsp), %eax
	shrl	$12, %eax
	movw	%ax, -74(%rsp)
	movzwl	-74(%rsp), %eax
	addl	$4, %eax
	movq	-64(%rsp), %rcx
	movslq	-68(%rsp), %rdx
	movw	%ax, (%rcx,%rdx,2)
	movq	-48(%rsp), %rax
	movzwl	-74(%rsp), %ecx
	movw	%cx, (%rax)
	movq	-40(%rsp), %rax
	movzwl	-72(%rsp), %ecx
	movw	%cx, (%rax)
	movq	-8(%rsp), %rax
	movzwl	-70(%rsp), %ecx
	movw	%cx, (%rax)
	movq	-16(%rsp), %rax
	movq	-56(%rsp), %rcx
	movq	%rcx, (%rax)
	movq	-24(%rsp), %rax
	movq	-64(%rsp), %rcx
	movq	%rcx, (%rax)
	movq	-32(%rsp), %rax
	movl	-68(%rsp), %ecx
	movl	%ecx, (%rax)
	retq
.Lfunc_end93:
	.size	APCM_quantization5, .Lfunc_end93-APCM_quantization5
	.cfi_endproc
                                        # -- End function
	.globl	APCM_quantization6      # -- Begin function APCM_quantization6
	.p2align	4, 0x90
	.type	APCM_quantization6,@function
APCM_quantization6:                     # @APCM_quantization6
	.cfi_startproc
# %bb.0:                                # %entry
	movq	%rdi, -8(%rsp)
	movl	(%rdi), %eax
	incl	%eax
	movl	%eax, -12(%rsp)
	movl	%eax, (%rdi)
	retq
.Lfunc_end94:
	.size	APCM_quantization6, .Lfunc_end94-APCM_quantization6
	.cfi_endproc
                                        # -- End function
	.globl	APCM_quantization7      # -- Begin function APCM_quantization7
	.p2align	4, 0x90
	.type	APCM_quantization7,@function
APCM_quantization7:                     # @APCM_quantization7
	.cfi_startproc
# %bb.0:                                # %entry
	movq	%rdi, -8(%rsp)
	movq	(%rdi), %rax
	movq	%rax, -64(%rsp)
	movq	%rsi, -16(%rsp)
	movzwl	(%rsi), %eax
	movw	%ax, -76(%rsp)
	movq	%rdx, -24(%rsp)
	movzwl	(%rdx), %eax
	movw	%ax, -74(%rsp)
	movq	%rcx, -32(%rsp)
	movq	(%rcx), %rcx
	movq	%rcx, -40(%rsp)
	movq	%r8, -48(%rsp)
	movzwl	(%r8), %edx
	movw	%dx, -78(%rsp)
	movq	%r9, -56(%rsp)
	movq	(%r9), %rdx
	movq	%rdx, -72(%rsp)
	movw	%ax, (%rcx)
	movzwl	-78(%rsp), %eax
	movq	-72(%rsp), %rcx
	movw	%ax, (%rcx)
	movzwl	-76(%rsp), %eax
	movq	-64(%rsp), %rcx
	movw	%ax, (%rcx)
	movq	-56(%rsp), %rax
	movq	-72(%rsp), %rcx
	movq	%rcx, (%rax)
	movq	-8(%rsp), %rax
	movq	-64(%rsp), %rcx
	movq	%rcx, (%rax)
	movq	-16(%rsp), %rax
	movzwl	-76(%rsp), %ecx
	movw	%cx, (%rax)
	movq	-24(%rsp), %rax
	movzwl	-74(%rsp), %ecx
	movw	%cx, (%rax)
	movq	-48(%rsp), %rax
	movzwl	-78(%rsp), %ecx
	movw	%cx, (%rax)
	movq	-32(%rsp), %rax
	movq	-40(%rsp), %rcx
	movq	%rcx, (%rax)
	retq
.Lfunc_end95:
	.size	APCM_quantization7, .Lfunc_end95-APCM_quantization7
	.cfi_endproc
                                        # -- End function
	.globl	APCM_quantization_xmaxc_to_exp_mant0 # -- Begin function APCM_quantization_xmaxc_to_exp_mant0
	.p2align	4, 0x90
	.type	APCM_quantization_xmaxc_to_exp_mant0,@function
APCM_quantization_xmaxc_to_exp_mant0:   # @APCM_quantization_xmaxc_to_exp_mant0
	.cfi_startproc
# %bb.0:                                # %entry
	movq	%rdi, -16(%rsp)
	movzwl	(%rdi), %eax
	movw	%ax, -20(%rsp)
	movq	%rsi, -8(%rsp)
	movzwl	(%rsi), %eax
	movw	%ax, -18(%rsp)
	movswl	-18(%rsp), %eax
	movl	%eax, %ecx
	shrl	$3, %ecx
	decl	%ecx
	movw	%cx, -20(%rsp)
	movw	%ax, (%rsi)
	movq	-16(%rsp), %rax
	movzwl	-20(%rsp), %ecx
	movw	%cx, (%rax)
	retq
.Lfunc_end96:
	.size	APCM_quantization_xmaxc_to_exp_mant0, .Lfunc_end96-APCM_quantization_xmaxc_to_exp_mant0
	.cfi_endproc
                                        # -- End function
	.globl	APCM_quantization_xmaxc_to_exp_mant1 # -- Begin function APCM_quantization_xmaxc_to_exp_mant1
	.p2align	4, 0x90
	.type	APCM_quantization_xmaxc_to_exp_mant1,@function
APCM_quantization_xmaxc_to_exp_mant1:   # @APCM_quantization_xmaxc_to_exp_mant1
	.cfi_startproc
# %bb.0:                                # %entry
	movq	%rdi, -16(%rsp)
	movq	%rsi, -8(%rsp)
	movw	$-4, -18(%rsp)
	movw	$7, -20(%rsp)
	movw	$-4, (%rsi)
	movq	-16(%rsp), %rax
	movzwl	-20(%rsp), %ecx
	movw	%cx, (%rax)
	retq
.Lfunc_end97:
	.size	APCM_quantization_xmaxc_to_exp_mant1, .Lfunc_end97-APCM_quantization_xmaxc_to_exp_mant1
	.cfi_endproc
                                        # -- End function
	.globl	APCM_quantization_xmaxc_to_exp_mant2 # -- Begin function APCM_quantization_xmaxc_to_exp_mant2
	.p2align	4, 0x90
	.type	APCM_quantization_xmaxc_to_exp_mant2,@function
APCM_quantization_xmaxc_to_exp_mant2:   # @APCM_quantization_xmaxc_to_exp_mant2
	.cfi_startproc
# %bb.0:                                # %entry
	movq	%rdi, -16(%rsp)
	movzwl	(%rdi), %eax
	movw	%ax, -18(%rsp)
	movq	%rsi, -8(%rsp)
	movzwl	(%rsi), %ecx
	movw	%cx, -20(%rsp)
	movzwl	-20(%rsp), %ecx
	leal	1(%rcx,%rcx), %ecx
	movw	%cx, -20(%rsp)
	decl	%eax
	movw	%ax, -18(%rsp)
	movw	%cx, (%rsi)
	movq	-16(%rsp), %rax
	movzwl	-18(%rsp), %ecx
	movw	%cx, (%rax)
	retq
.Lfunc_end98:
	.size	APCM_quantization_xmaxc_to_exp_mant2, .Lfunc_end98-APCM_quantization_xmaxc_to_exp_mant2
	.cfi_endproc
                                        # -- End function
	.globl	APCM_quantization_xmaxc_to_exp_mant3 # -- Begin function APCM_quantization_xmaxc_to_exp_mant3
	.p2align	4, 0x90
	.type	APCM_quantization_xmaxc_to_exp_mant3,@function
APCM_quantization_xmaxc_to_exp_mant3:   # @APCM_quantization_xmaxc_to_exp_mant3
	.cfi_startproc
# %bb.0:                                # %entry
	movq	%rdi, -8(%rsp)
	movzwl	(%rdi), %eax
	movw	%ax, -10(%rsp)
	movzwl	-10(%rsp), %eax
	addl	$-8, %eax
	movw	%ax, -10(%rsp)
	movw	%ax, (%rdi)
	retq
.Lfunc_end99:
	.size	APCM_quantization_xmaxc_to_exp_mant3, .Lfunc_end99-APCM_quantization_xmaxc_to_exp_mant3
	.cfi_endproc
                                        # -- End function
	.globl	APCM_quantization_xmaxc_to_exp_mant4 # -- Begin function APCM_quantization_xmaxc_to_exp_mant4
	.p2align	4, 0x90
	.type	APCM_quantization_xmaxc_to_exp_mant4,@function
APCM_quantization_xmaxc_to_exp_mant4:   # @APCM_quantization_xmaxc_to_exp_mant4
	.cfi_startproc
# %bb.0:                                # %entry
	movq	%rdi, -8(%rsp)
	movq	(%rdi), %rax
	movq	%rax, -48(%rsp)
	movq	%rsi, -16(%rsp)
	movzwl	(%rsi), %eax
	movw	%ax, -52(%rsp)
	movq	%rdx, -24(%rsp)
	movq	(%rdx), %rax
	movq	%rax, -32(%rsp)
	movq	%rcx, -40(%rsp)
	movzwl	(%rcx), %ecx
	movw	%cx, -50(%rsp)
	movw	%cx, (%rax)
	movzwl	-52(%rsp), %eax
	movq	-48(%rsp), %rcx
	movw	%ax, (%rcx)
	movq	-40(%rsp), %rax
	movzwl	-50(%rsp), %ecx
	movw	%cx, (%rax)
	movq	-24(%rsp), %rax
	movq	-32(%rsp), %rcx
	movq	%rcx, (%rax)
	movq	-16(%rsp), %rax
	movzwl	-52(%rsp), %ecx
	movw	%cx, (%rax)
	movq	-8(%rsp), %rax
	movq	-48(%rsp), %rcx
	movq	%rcx, (%rax)
	retq
.Lfunc_end100:
	.size	APCM_quantization_xmaxc_to_exp_mant4, .Lfunc_end100-APCM_quantization_xmaxc_to_exp_mant4
	.cfi_endproc
                                        # -- End function
	.globl	RPE_grid_selection0     # -- Begin function RPE_grid_selection0
	.p2align	4, 0x90
	.type	RPE_grid_selection0,@function
RPE_grid_selection0:                    # @RPE_grid_selection0
	.cfi_startproc
# %bb.0:                                # %entry
	movq	%rdi, -8(%rsp)
	movq	(%rdi), %rax
	movq	%rax, -56(%rsp)
	movq	%rsi, -16(%rsp)
	movq	(%rsi), %rax
	movq	%rax, -64(%rsp)
	movq	%rdx, -24(%rsp)
	movq	(%rdx), %rdx
	movq	%rdx, -80(%rsp)
	movq	%rcx, -32(%rsp)
	movq	(%rcx), %rcx
	movq	%rcx, -72(%rsp)
	movq	%r8, -40(%rsp)
	movq	(%r8), %rdx
	movq	%rdx, -48(%rsp)
	movswl	6(%rax), %eax
	sarl	$2, %eax
	cltq
	movq	%rax, -80(%rsp)
	imulq	%rax, %rax
	addq	%rcx, %rax
	movq	%rax, -72(%rsp)
	movq	-64(%rsp), %rcx
	movswl	12(%rcx), %ecx
	sarl	$2, %ecx
	movslq	%ecx, %rcx
	movq	%rcx, -80(%rsp)
	imulq	%rcx, %rcx
	addq	%rax, %rcx
	movq	%rcx, -72(%rsp)
	movq	-64(%rsp), %rax
	movswl	18(%rax), %eax
	sarl	$2, %eax
	cltq
	movq	%rax, -80(%rsp)
	movq	-80(%rsp), %rax
	imulq	%rax, %rax
	addq	%rax, -72(%rsp)
	movq	-64(%rsp), %rax
	movswl	24(%rax), %eax
	sarl	$2, %eax
	cltq
	movq	%rax, -80(%rsp)
	movq	-80(%rsp), %rax
	imulq	%rax, %rax
	addq	%rax, -72(%rsp)
	movq	-64(%rsp), %rax
	movswl	30(%rax), %eax
	sarl	$2, %eax
	cltq
	movq	%rax, -80(%rsp)
	movq	-80(%rsp), %rax
	imulq	%rax, %rax
	addq	%rax, -72(%rsp)
	movq	-64(%rsp), %rax
	movswl	36(%rax), %eax
	sarl	$2, %eax
	cltq
	movq	%rax, -80(%rsp)
	movq	-80(%rsp), %rax
	imulq	%rax, %rax
	addq	%rax, -72(%rsp)
	movq	-64(%rsp), %rax
	movswl	42(%rax), %eax
	sarl	$2, %eax
	cltq
	movq	%rax, -80(%rsp)
	movq	-80(%rsp), %rax
	imulq	%rax, %rax
	addq	%rax, -72(%rsp)
	movq	-64(%rsp), %rax
	movswl	48(%rax), %eax
	sarl	$2, %eax
	cltq
	movq	%rax, -80(%rsp)
	movq	-80(%rsp), %rax
	imulq	%rax, %rax
	addq	%rax, -72(%rsp)
	movq	-64(%rsp), %rax
	movswl	54(%rax), %eax
	sarl	$2, %eax
	cltq
	movq	%rax, -80(%rsp)
	movq	-80(%rsp), %rax
	imulq	%rax, %rax
	addq	%rax, -72(%rsp)
	movq	-64(%rsp), %rax
	movswl	60(%rax), %eax
	sarl	$2, %eax
	cltq
	movq	%rax, -80(%rsp)
	movq	-80(%rsp), %rax
	imulq	%rax, %rax
	addq	%rax, -72(%rsp)
	movq	-64(%rsp), %rax
	movswl	66(%rax), %eax
	sarl	$2, %eax
	cltq
	movq	%rax, -80(%rsp)
	movq	-80(%rsp), %rax
	imulq	%rax, %rax
	addq	%rax, -72(%rsp)
	movq	-64(%rsp), %rax
	movswl	72(%rax), %eax
	sarl	$2, %eax
	cltq
	movq	%rax, -80(%rsp)
	movq	-80(%rsp), %rax
	imulq	%rax, %rax
	addq	%rax, -72(%rsp)
	movq	-72(%rsp), %rax
	movq	%rax, -48(%rsp)
	movq	-64(%rsp), %rcx
	movswl	(%rcx), %ecx
	sarl	$2, %ecx
	movslq	%ecx, %rcx
	movq	%rcx, -80(%rsp)
	imulq	%rcx, %rcx
	addq	%rax, %rcx
	addq	%rcx, %rcx
	movq	%rcx, -72(%rsp)
	movq	%rcx, -56(%rsp)
	movq	-40(%rsp), %rcx
	movq	%rax, (%rcx)
	movq	-8(%rsp), %rax
	movq	-56(%rsp), %rcx
	movq	%rcx, (%rax)
	movq	-16(%rsp), %rax
	movq	-64(%rsp), %rcx
	movq	%rcx, (%rax)
	movq	-24(%rsp), %rax
	movq	-80(%rsp), %rcx
	movq	%rcx, (%rax)
	movq	-32(%rsp), %rax
	movq	-72(%rsp), %rcx
	movq	%rcx, (%rax)
	retq
.Lfunc_end101:
	.size	RPE_grid_selection0, .Lfunc_end101-RPE_grid_selection0
	.cfi_endproc
                                        # -- End function
	.globl	RPE_grid_selection1     # -- Begin function RPE_grid_selection1
	.p2align	4, 0x90
	.type	RPE_grid_selection1,@function
RPE_grid_selection1:                    # @RPE_grid_selection1
	.cfi_startproc
# %bb.0:                                # %entry
	movq	%rdi, -16(%rsp)
	movq	(%rdi), %rax
	movq	%rax, -40(%rsp)
	movq	%rsi, -24(%rsp)
	movq	(%rsi), %rax
	movq	%rax, -32(%rsp)
	movq	%rdx, -8(%rsp)
	movw	$1, -42(%rsp)
	movq	%rax, -40(%rsp)
	movw	$1, (%rdx)
	movq	-24(%rsp), %rax
	movq	-32(%rsp), %rcx
	movq	%rcx, (%rax)
	movq	-16(%rsp), %rax
	movq	-40(%rsp), %rcx
	movq	%rcx, (%rax)
	retq
.Lfunc_end102:
	.size	RPE_grid_selection1, .Lfunc_end102-RPE_grid_selection1
	.cfi_endproc
                                        # -- End function
	.globl	RPE_grid_selection2     # -- Begin function RPE_grid_selection2
	.p2align	4, 0x90
	.type	RPE_grid_selection2,@function
RPE_grid_selection2:                    # @RPE_grid_selection2
	.cfi_startproc
# %bb.0:                                # %entry
	movq	%rdi, -16(%rsp)
	movq	(%rdi), %rax
	movq	%rax, -40(%rsp)
	movq	%rsi, -24(%rsp)
	movq	(%rsi), %rax
	movq	%rax, -32(%rsp)
	movq	%rdx, -8(%rsp)
	movw	$2, -42(%rsp)
	movq	%rax, -40(%rsp)
	movw	$2, (%rdx)
	movq	-24(%rsp), %rax
	movq	-32(%rsp), %rcx
	movq	%rcx, (%rax)
	movq	-16(%rsp), %rax
	movq	-40(%rsp), %rcx
	movq	%rcx, (%rax)
	retq
.Lfunc_end103:
	.size	RPE_grid_selection2, .Lfunc_end103-RPE_grid_selection2
	.cfi_endproc
                                        # -- End function
	.globl	RPE_grid_selection3     # -- Begin function RPE_grid_selection3
	.p2align	4, 0x90
	.type	RPE_grid_selection3,@function
RPE_grid_selection3:                    # @RPE_grid_selection3
	.cfi_startproc
# %bb.0:                                # %entry
	movq	%rdi, -16(%rsp)
	movq	(%rdi), %rax
	movq	%rax, -40(%rsp)
	movq	%rsi, -24(%rsp)
	movq	(%rsi), %rax
	movq	%rax, -32(%rsp)
	movq	%rdx, -8(%rsp)
	movw	$3, -42(%rsp)
	movq	%rax, -40(%rsp)
	movw	$3, (%rdx)
	movq	-24(%rsp), %rax
	movq	-32(%rsp), %rcx
	movq	%rcx, (%rax)
	movq	-16(%rsp), %rax
	movq	-40(%rsp), %rcx
	movq	%rcx, (%rax)
	retq
.Lfunc_end104:
	.size	RPE_grid_selection3, .Lfunc_end104-RPE_grid_selection3
	.cfi_endproc
                                        # -- End function
	.globl	RPE_grid_selection4     # -- Begin function RPE_grid_selection4
	.p2align	4, 0x90
	.type	RPE_grid_selection4,@function
RPE_grid_selection4:                    # @RPE_grid_selection4
	.cfi_startproc
# %bb.0:                                # %entry
	movq	%rdi, -8(%rsp)
	movq	(%rdi), %rax
	movq	%rax, -16(%rsp)
	movq	%rsi, -24(%rsp)
	movzwl	(%rsi), %esi
	movw	%si, -42(%rsp)
	movl	%edx, -36(%rsp)
	movslq	-36(%rsp), %rdx
	movq	%rcx, -32(%rsp)
	movl	(%rcx), %ecx
	movl	%ecx, -40(%rsp)
	movslq	-40(%rsp), %rcx
	leaq	(%rcx,%rcx,2), %rsi
	addq	%rdx, %rsi
	movzwl	-42(%rsp,%rsi,2), %edx
	movw	%dx, (%rax,%rcx,2)
	movq	-32(%rsp), %rax
	movl	-40(%rsp), %ecx
	movl	%ecx, (%rax)
	movq	-24(%rsp), %rax
	movzwl	-42(%rsp), %ecx
	movw	%cx, (%rax)
	movq	-8(%rsp), %rax
	movq	-16(%rsp), %rcx
	movq	%rcx, (%rax)
	retq
.Lfunc_end105:
	.size	RPE_grid_selection4, .Lfunc_end105-RPE_grid_selection4
	.cfi_endproc
                                        # -- End function
	.globl	RPE_grid_selection5     # -- Begin function RPE_grid_selection5
	.p2align	4, 0x90
	.type	RPE_grid_selection5,@function
RPE_grid_selection5:                    # @RPE_grid_selection5
	.cfi_startproc
# %bb.0:                                # %entry
	movq	%rdi, -8(%rsp)
	movq	(%rdi), %rax
	movq	%rax, -16(%rsp)
	movq	%rsi, -24(%rsp)
	movzwl	(%rsi), %ecx
	movw	%cx, -26(%rsp)
	movw	%cx, (%rax)
	movq	-24(%rsp), %rax
	movzwl	-26(%rsp), %ecx
	movw	%cx, (%rax)
	movq	-8(%rsp), %rax
	movq	-16(%rsp), %rcx
	movq	%rcx, (%rax)
	retq
.Lfunc_end106:
	.size	RPE_grid_selection5, .Lfunc_end106-RPE_grid_selection5
	.cfi_endproc
                                        # -- End function
	.globl	Weighting_filter0       # -- Begin function Weighting_filter0
	.p2align	4, 0x90
	.type	Weighting_filter0,@function
Weighting_filter0:                      # @Weighting_filter0
	.cfi_startproc
# %bb.0:                                # %entry
	movq	%rdi, -8(%rsp)
	movq	(%rdi), %rax
	addq	$-10, %rax
	movq	%rax, -16(%rsp)
	movq	%rax, (%rdi)
	retq
.Lfunc_end107:
	.size	Weighting_filter0, .Lfunc_end107-Weighting_filter0
	.cfi_endproc
                                        # -- End function
	.globl	Gsm_Long_Term_Predictor0 # -- Begin function Gsm_Long_Term_Predictor0
	.p2align	4, 0x90
	.type	Gsm_Long_Term_Predictor0,@function
Gsm_Long_Term_Predictor0:               # @Gsm_Long_Term_Predictor0
	.cfi_startproc
# %bb.0:                                # %entry
	subq	$104, %rsp
	.cfi_def_cfa_offset 112
	movq	%rdi, 96(%rsp)
	movq	(%rdi), %rax
	movq	%rax, 48(%rsp)
	movq	%rsi, 88(%rsp)
	movq	(%rsi), %rax
	movq	%rax, 40(%rsp)
	movq	%rdx, 80(%rsp)
	movq	(%rdx), %rdi
	movq	%rdi, 32(%rsp)
	movq	%rcx, 72(%rsp)
	movq	(%rcx), %rcx
	movq	%rcx, 24(%rsp)
	movq	%r8, 64(%rsp)
	movq	(%r8), %rsi
	movq	%rsi, 16(%rsp)
	movq	%r9, 56(%rsp)
	movq	(%r9), %rdx
	movq	%rdx, 8(%rsp)
	callq	Calculation_of_the_LTP_parameters
	movq	8(%rsp), %rax
	movq	24(%rsp), %rsi
	movq	16(%rsp), %rdx
	movq	32(%rsp), %rcx
	movq	40(%rsp), %r8
	movq	48(%rsp), %r9
	movswl	(%rsi), %esi
	movswl	(%rax), %edi
	callq	Long_term_analysis_filtering
	movq	96(%rsp), %rax
	movq	48(%rsp), %rcx
	movq	%rcx, (%rax)
	movq	88(%rsp), %rax
	movq	40(%rsp), %rcx
	movq	%rcx, (%rax)
	movq	64(%rsp), %rax
	movq	16(%rsp), %rcx
	movq	%rcx, (%rax)
	movq	72(%rsp), %rax
	movq	24(%rsp), %rcx
	movq	%rcx, (%rax)
	movq	56(%rsp), %rax
	movq	8(%rsp), %rcx
	movq	%rcx, (%rax)
	movq	80(%rsp), %rax
	movq	32(%rsp), %rcx
	movq	%rcx, (%rax)
	addq	$104, %rsp
	retq
.Lfunc_end108:
	.size	Gsm_Long_Term_Predictor0, .Lfunc_end108-Gsm_Long_Term_Predictor0
	.cfi_endproc
                                        # -- End function
	.p2align	4, 0x90         # -- Begin function Calculation_of_the_LTP_parameters
	.type	Calculation_of_the_LTP_parameters,@function
Calculation_of_the_LTP_parameters:      # @Calculation_of_the_LTP_parameters
	.cfi_startproc
# %bb.0:                                # %entry
	pushq	%rbp
	.cfi_def_cfa_offset 16
	.cfi_offset %rbp, -16
	movq	%rsp, %rbp
	.cfi_def_cfa_register %rbp
	pushq	%r15
	pushq	%r14
	pushq	%r13
	pushq	%r12
	pushq	%rbx
	subq	$184, %rsp
	.cfi_offset %rbx, -56
	.cfi_offset %r12, -48
	.cfi_offset %r13, -40
	.cfi_offset %r14, -32
	.cfi_offset %r15, -24
	movq	%rdi, -208(%rbp)
	movq	%rsi, -72(%rbp)
	movq	%rdx, -200(%rbp)
	movq	%rcx, -216(%rbp)
	movw	$0, -82(%rbp)
	movl	$0, -80(%rbp)
.LBB109_1:                              # %for.cond
                                        # =>This Inner Loop Header: Depth=1
	cmpl	$39, -80(%rbp)
	jg	.LBB109_12
# %bb.2:                                # %for.body
                                        #   in Loop: Header=BB109_1 Depth=1
	movq	-208(%rbp), %rax
	movslq	-80(%rbp), %rcx
	movw	(%rax,%rcx,2), %ax
	movw	%ax, -58(%rbp)
	movswl	-58(%rbp), %eax
	cmpl	$0, %eax
	jge	.LBB109_7
# %bb.3:                                # %cond.true
                                        #   in Loop: Header=BB109_1 Depth=1
	movswl	-58(%rbp), %eax
	cmpl	$-32768, %eax           # imm = 0x8000
	jne	.LBB109_5
# %bb.4:                                # %cond.true6
                                        #   in Loop: Header=BB109_1 Depth=1
	movl	$32767, %eax            # imm = 0x7FFF
	jmp	.LBB109_6
.LBB109_5:                              # %cond.false
                                        #   in Loop: Header=BB109_1 Depth=1
	xorl	%eax, %eax
	movswl	-58(%rbp), %ecx
	subl	%ecx, %eax
.LBB109_6:                              # %cond.end
                                        #   in Loop: Header=BB109_1 Depth=1
	jmp	.LBB109_8
.LBB109_7:                              # %cond.false8
                                        #   in Loop: Header=BB109_1 Depth=1
	movswl	-58(%rbp), %eax
.LBB109_8:                              # %cond.end10
                                        #   in Loop: Header=BB109_1 Depth=1
	movw	%ax, -58(%rbp)
	movswl	-58(%rbp), %eax
	movswl	-82(%rbp), %ecx
	cmpl	%ecx, %eax
	jle	.LBB109_10
# %bb.9:                                # %if.then
                                        #   in Loop: Header=BB109_1 Depth=1
	leaq	-82(%rbp), %rdi
	leaq	-58(%rbp), %rsi
	callq	Calculation_of_the_LTP_parameters0
.LBB109_10:                             # %if.end
                                        #   in Loop: Header=BB109_1 Depth=1
	jmp	.LBB109_11
.LBB109_11:                             # %for.inc
                                        #   in Loop: Header=BB109_1 Depth=1
	movl	-80(%rbp), %eax
	addl	$1, %eax
	movl	%eax, -80(%rbp)
	jmp	.LBB109_1
.LBB109_12:                             # %for.end
	movw	$0, -58(%rbp)
	movswl	-82(%rbp), %eax
	cmpl	$0, %eax
	jne	.LBB109_14
# %bb.13:                               # %if.then20
	movw	$0, -74(%rbp)
	jmp	.LBB109_18
.LBB109_14:                             # %if.else
	movswl	-82(%rbp), %eax
	cmpl	$0, %eax
	jle	.LBB109_16
# %bb.15:                               # %cond.true24
	jmp	.LBB109_17
.LBB109_16:                             # %cond.false25
	movabsq	$.L.str.9.14, %rdi
	movabsq	$.L.str.1.10, %rsi
	movabsq	$.L__PRETTY_FUNCTION__.Calculation_of_the_LTP_parameters, %rcx
	movl	$101, %edx
	callq	__assert_fail
.LBB109_17:                             # %cond.end26
	leaq	-58(%rbp), %rdi
	leaq	-82(%rbp), %rsi
	callq	Calculation_of_the_LTP_parameters1
.LBB109_18:                             # %if.end28
	movswl	-58(%rbp), %eax
	cmpl	$6, %eax
	jle	.LBB109_20
# %bb.19:                               # %if.then32
	movw	$0, -74(%rbp)
	jmp	.LBB109_21
.LBB109_20:                             # %if.else33
	leaq	-74(%rbp), %rdi
	leaq	-58(%rbp), %rsi
	callq	Calculation_of_the_LTP_parameters2
.LBB109_21:                             # %if.end37
	movswl	-74(%rbp), %eax
	cmpl	$0, %eax
	jl	.LBB109_23
# %bb.22:                               # %cond.true41
	jmp	.LBB109_24
.LBB109_23:                             # %cond.false42
	movabsq	$.L.str.10.74, %rdi
	movabsq	$.L.str.1.10, %rsi
	movabsq	$.L__PRETTY_FUNCTION__.Calculation_of_the_LTP_parameters, %rcx
	movl	$108, %edx
	callq	__assert_fail
.LBB109_24:                             # %cond.end43
	movl	$0, -80(%rbp)
.LBB109_25:                             # %for.cond44
                                        # =>This Inner Loop Header: Depth=1
	cmpl	$39, -80(%rbp)
	jg	.LBB109_28
# %bb.26:                               # %for.body47
                                        #   in Loop: Header=BB109_25 Depth=1
	movq	-208(%rbp), %rax
	movslq	-80(%rbp), %rcx
	movswl	(%rax,%rcx,2), %eax
	movswl	-74(%rbp), %ecx
                                        # kill: def %cl killed %ecx
	sarl	%cl, %eax
	movslq	-80(%rbp), %rcx
	movw	%ax, -192(%rbp,%rcx,2)
# %bb.27:                               # %for.inc55
                                        #   in Loop: Header=BB109_25 Depth=1
	leaq	-80(%rbp), %rdi
	callq	Calculation_of_the_LTP_parameters3
	jmp	.LBB109_25
.LBB109_28:                             # %for.end57
	movq	$0, -96(%rbp)
	movw	$40, -84(%rbp)
	movl	$40, -44(%rbp)
.LBB109_29:                             # %for.cond58
                                        # =>This Inner Loop Header: Depth=1
	cmpl	$120, -44(%rbp)
	jg	.LBB109_34
# %bb.30:                               # %for.body61
                                        #   in Loop: Header=BB109_29 Depth=1
	movl	$11, %r13d
	movl	$10, %r12d
	movl	$9, %r15d
	movl	$8, %r14d
	movl	$7, %ebx
	movl	$6, %r11d
	movl	$5, %r10d
	movl	$4, %r9d
	movl	$3, %r8d
	movl	$2, %esi
	movl	$1, %edx
	xorl	%eax, %eax
	movswl	-192(%rbp), %ecx
	movq	-72(%rbp), %rdi
	subl	-44(%rbp), %eax
	cltq
	movswl	(%rdi,%rax,2), %eax
	imull	%eax, %ecx
	movslq	%ecx, %rax
	movq	%rax, -56(%rbp)
	movswl	-190(%rbp), %eax
	movq	-72(%rbp), %rcx
	subl	-44(%rbp), %edx
	movslq	%edx, %rdx
	movswl	(%rcx,%rdx,2), %ecx
	imull	%ecx, %eax
	cltq
	addq	-56(%rbp), %rax
	movq	%rax, -56(%rbp)
	movswl	-188(%rbp), %eax
	movq	-72(%rbp), %rcx
	subl	-44(%rbp), %esi
	movslq	%esi, %rdx
	movswl	(%rcx,%rdx,2), %ecx
	imull	%ecx, %eax
	cltq
	addq	-56(%rbp), %rax
	movq	%rax, -56(%rbp)
	movswl	-186(%rbp), %eax
	movq	-72(%rbp), %rcx
	subl	-44(%rbp), %r8d
	movslq	%r8d, %rdx
	movswl	(%rcx,%rdx,2), %ecx
	imull	%ecx, %eax
	cltq
	addq	-56(%rbp), %rax
	movq	%rax, -56(%rbp)
	movswl	-184(%rbp), %eax
	movq	-72(%rbp), %rcx
	subl	-44(%rbp), %r9d
	movslq	%r9d, %rdx
	movswl	(%rcx,%rdx,2), %ecx
	imull	%ecx, %eax
	cltq
	addq	-56(%rbp), %rax
	movq	%rax, -56(%rbp)
	movswl	-182(%rbp), %eax
	movq	-72(%rbp), %rcx
	subl	-44(%rbp), %r10d
	movslq	%r10d, %rdx
	movswl	(%rcx,%rdx,2), %ecx
	imull	%ecx, %eax
	cltq
	addq	-56(%rbp), %rax
	movq	%rax, -56(%rbp)
	movswl	-180(%rbp), %eax
	movq	-72(%rbp), %rcx
	subl	-44(%rbp), %r11d
	movslq	%r11d, %rdx
	movswl	(%rcx,%rdx,2), %ecx
	imull	%ecx, %eax
	cltq
	addq	-56(%rbp), %rax
	movq	%rax, -56(%rbp)
	movswl	-178(%rbp), %eax
	movq	-72(%rbp), %rcx
	subl	-44(%rbp), %ebx
	movslq	%ebx, %rdx
	movswl	(%rcx,%rdx,2), %ecx
	imull	%ecx, %eax
	cltq
	addq	-56(%rbp), %rax
	movq	%rax, -56(%rbp)
	movswl	-176(%rbp), %eax
	movq	-72(%rbp), %rcx
	subl	-44(%rbp), %r14d
	movslq	%r14d, %rdx
	movswl	(%rcx,%rdx,2), %ecx
	imull	%ecx, %eax
	cltq
	addq	-56(%rbp), %rax
	movq	%rax, -56(%rbp)
	movswl	-174(%rbp), %eax
	movq	-72(%rbp), %rcx
	subl	-44(%rbp), %r15d
	movslq	%r15d, %rdx
	movswl	(%rcx,%rdx,2), %ecx
	imull	%ecx, %eax
	cltq
	addq	-56(%rbp), %rax
	movq	%rax, -56(%rbp)
	movswl	-172(%rbp), %eax
	movq	-72(%rbp), %rcx
	subl	-44(%rbp), %r12d
	movslq	%r12d, %rdx
	movswl	(%rcx,%rdx,2), %ecx
	imull	%ecx, %eax
	cltq
	addq	-56(%rbp), %rax
	movq	%rax, -56(%rbp)
	movswl	-170(%rbp), %eax
	movq	-72(%rbp), %rcx
	subl	-44(%rbp), %r13d
	movslq	%r13d, %rdx
	movswl	(%rcx,%rdx,2), %ecx
	imull	%ecx, %eax
	cltq
	addq	-56(%rbp), %rax
	movq	%rax, -56(%rbp)
	movswl	-168(%rbp), %eax
	movq	-72(%rbp), %rcx
	movl	$12, %edx
	subl	-44(%rbp), %edx
	movslq	%edx, %rdx
	movswl	(%rcx,%rdx,2), %ecx
	imull	%ecx, %eax
	cltq
	addq	-56(%rbp), %rax
	movq	%rax, -56(%rbp)
	movswl	-166(%rbp), %eax
	movq	-72(%rbp), %rcx
	movl	$13, %edx
	subl	-44(%rbp), %edx
	movslq	%edx, %rdx
	movswl	(%rcx,%rdx,2), %ecx
	imull	%ecx, %eax
	cltq
	addq	-56(%rbp), %rax
	movq	%rax, -56(%rbp)
	movswl	-164(%rbp), %eax
	movq	-72(%rbp), %rcx
	movl	$14, %edx
	subl	-44(%rbp), %edx
	movslq	%edx, %rdx
	movswl	(%rcx,%rdx,2), %ecx
	imull	%ecx, %eax
	cltq
	addq	-56(%rbp), %rax
	movq	%rax, -56(%rbp)
	movswl	-162(%rbp), %eax
	movq	-72(%rbp), %rcx
	movl	$15, %edx
	subl	-44(%rbp), %edx
	movslq	%edx, %rdx
	movswl	(%rcx,%rdx,2), %ecx
	imull	%ecx, %eax
	cltq
	addq	-56(%rbp), %rax
	movq	%rax, -56(%rbp)
	movswl	-160(%rbp), %eax
	movq	-72(%rbp), %rcx
	movl	$16, %edx
	subl	-44(%rbp), %edx
	movslq	%edx, %rdx
	movswl	(%rcx,%rdx,2), %ecx
	imull	%ecx, %eax
	cltq
	addq	-56(%rbp), %rax
	movq	%rax, -56(%rbp)
	movswl	-158(%rbp), %eax
	movq	-72(%rbp), %rcx
	movl	$17, %edx
	subl	-44(%rbp), %edx
	movslq	%edx, %rdx
	movswl	(%rcx,%rdx,2), %ecx
	imull	%ecx, %eax
	cltq
	addq	-56(%rbp), %rax
	movq	%rax, -56(%rbp)
	movswl	-156(%rbp), %eax
	movq	-72(%rbp), %rcx
	movl	$18, %edx
	subl	-44(%rbp), %edx
	movslq	%edx, %rdx
	movswl	(%rcx,%rdx,2), %ecx
	imull	%ecx, %eax
	cltq
	addq	-56(%rbp), %rax
	movq	%rax, -56(%rbp)
	movswl	-154(%rbp), %eax
	movq	-72(%rbp), %rcx
	movl	$19, %edx
	subl	-44(%rbp), %edx
	movslq	%edx, %rdx
	movswl	(%rcx,%rdx,2), %ecx
	imull	%ecx, %eax
	cltq
	addq	-56(%rbp), %rax
	movq	%rax, -56(%rbp)
	movswl	-152(%rbp), %eax
	movq	-72(%rbp), %rcx
	movl	$20, %edx
	subl	-44(%rbp), %edx
	movslq	%edx, %rdx
	movswl	(%rcx,%rdx,2), %ecx
	imull	%ecx, %eax
	cltq
	addq	-56(%rbp), %rax
	movq	%rax, -56(%rbp)
	movswl	-150(%rbp), %eax
	movq	-72(%rbp), %rcx
	movl	$21, %edx
	subl	-44(%rbp), %edx
	movslq	%edx, %rdx
	movswl	(%rcx,%rdx,2), %ecx
	imull	%ecx, %eax
	cltq
	addq	-56(%rbp), %rax
	movq	%rax, -56(%rbp)
	movswl	-148(%rbp), %eax
	movq	-72(%rbp), %rcx
	movl	$22, %edx
	subl	-44(%rbp), %edx
	movslq	%edx, %rdx
	movswl	(%rcx,%rdx,2), %ecx
	imull	%ecx, %eax
	cltq
	addq	-56(%rbp), %rax
	movq	%rax, -56(%rbp)
	movswl	-146(%rbp), %eax
	movq	-72(%rbp), %rcx
	movl	$23, %edx
	subl	-44(%rbp), %edx
	movslq	%edx, %rdx
	movswl	(%rcx,%rdx,2), %ecx
	imull	%ecx, %eax
	cltq
	addq	-56(%rbp), %rax
	movq	%rax, -56(%rbp)
	movswl	-144(%rbp), %eax
	movq	-72(%rbp), %rcx
	movl	$24, %edx
	subl	-44(%rbp), %edx
	movslq	%edx, %rdx
	movswl	(%rcx,%rdx,2), %ecx
	imull	%ecx, %eax
	cltq
	addq	-56(%rbp), %rax
	movq	%rax, -56(%rbp)
	movswl	-142(%rbp), %eax
	movq	-72(%rbp), %rcx
	movl	$25, %edx
	subl	-44(%rbp), %edx
	movslq	%edx, %rdx
	movswl	(%rcx,%rdx,2), %ecx
	imull	%ecx, %eax
	cltq
	addq	-56(%rbp), %rax
	movq	%rax, -56(%rbp)
	movswl	-140(%rbp), %eax
	movq	-72(%rbp), %rcx
	movl	$26, %edx
	subl	-44(%rbp), %edx
	movslq	%edx, %rdx
	movswl	(%rcx,%rdx,2), %ecx
	imull	%ecx, %eax
	cltq
	addq	-56(%rbp), %rax
	movq	%rax, -56(%rbp)
	movswl	-138(%rbp), %eax
	movq	-72(%rbp), %rcx
	movl	$27, %edx
	subl	-44(%rbp), %edx
	movslq	%edx, %rdx
	movswl	(%rcx,%rdx,2), %ecx
	imull	%ecx, %eax
	cltq
	addq	-56(%rbp), %rax
	movq	%rax, -56(%rbp)
	movswl	-136(%rbp), %eax
	movq	-72(%rbp), %rcx
	movl	$28, %edx
	subl	-44(%rbp), %edx
	movslq	%edx, %rdx
	movswl	(%rcx,%rdx,2), %ecx
	imull	%ecx, %eax
	cltq
	addq	-56(%rbp), %rax
	movq	%rax, -56(%rbp)
	movswl	-134(%rbp), %eax
	movq	-72(%rbp), %rcx
	movl	$29, %edx
	subl	-44(%rbp), %edx
	movslq	%edx, %rdx
	movswl	(%rcx,%rdx,2), %ecx
	imull	%ecx, %eax
	cltq
	addq	-56(%rbp), %rax
	movq	%rax, -56(%rbp)
	movswl	-132(%rbp), %eax
	movq	-72(%rbp), %rcx
	movl	$30, %edx
	subl	-44(%rbp), %edx
	movslq	%edx, %rdx
	movswl	(%rcx,%rdx,2), %ecx
	imull	%ecx, %eax
	cltq
	addq	-56(%rbp), %rax
	movq	%rax, -56(%rbp)
	movswl	-130(%rbp), %eax
	movq	-72(%rbp), %rcx
	movl	$31, %edx
	subl	-44(%rbp), %edx
	movslq	%edx, %rdx
	movswl	(%rcx,%rdx,2), %ecx
	imull	%ecx, %eax
	cltq
	addq	-56(%rbp), %rax
	movq	%rax, -56(%rbp)
	movswl	-128(%rbp), %eax
	movq	-72(%rbp), %rcx
	movl	$32, %edx
	subl	-44(%rbp), %edx
	movslq	%edx, %rdx
	movswl	(%rcx,%rdx,2), %ecx
	imull	%ecx, %eax
	cltq
	addq	-56(%rbp), %rax
	movq	%rax, -56(%rbp)
	movswl	-126(%rbp), %eax
	movq	-72(%rbp), %rcx
	movl	$33, %edx
	subl	-44(%rbp), %edx
	movslq	%edx, %rdx
	movswl	(%rcx,%rdx,2), %ecx
	imull	%ecx, %eax
	cltq
	addq	-56(%rbp), %rax
	movq	%rax, -56(%rbp)
	movswl	-124(%rbp), %eax
	movq	-72(%rbp), %rcx
	movl	$34, %edx
	subl	-44(%rbp), %edx
	movslq	%edx, %rdx
	movswl	(%rcx,%rdx,2), %ecx
	imull	%ecx, %eax
	cltq
	addq	-56(%rbp), %rax
	movq	%rax, -56(%rbp)
	movswl	-122(%rbp), %eax
	movq	-72(%rbp), %rcx
	movl	$35, %edx
	subl	-44(%rbp), %edx
	movslq	%edx, %rdx
	movswl	(%rcx,%rdx,2), %ecx
	imull	%ecx, %eax
	cltq
	addq	-56(%rbp), %rax
	movq	%rax, -56(%rbp)
	movswl	-120(%rbp), %eax
	movq	-72(%rbp), %rcx
	movl	$36, %edx
	subl	-44(%rbp), %edx
	movslq	%edx, %rdx
	movswl	(%rcx,%rdx,2), %ecx
	imull	%ecx, %eax
	cltq
	addq	-56(%rbp), %rax
	movq	%rax, -56(%rbp)
	movswl	-118(%rbp), %eax
	movq	-72(%rbp), %rcx
	movl	$37, %edx
	subl	-44(%rbp), %edx
	movslq	%edx, %rdx
	movswl	(%rcx,%rdx,2), %ecx
	imull	%ecx, %eax
	cltq
	addq	-56(%rbp), %rax
	movq	%rax, -56(%rbp)
	movswl	-116(%rbp), %eax
	movq	-72(%rbp), %rcx
	movl	$38, %edx
	subl	-44(%rbp), %edx
	movslq	%edx, %rdx
	movswl	(%rcx,%rdx,2), %ecx
	imull	%ecx, %eax
	cltq
	addq	-56(%rbp), %rax
	movq	%rax, -56(%rbp)
	movswl	-114(%rbp), %eax
	movq	-72(%rbp), %rcx
	movl	$39, %edx
	subl	-44(%rbp), %edx
	movslq	%edx, %rdx
	movswl	(%rcx,%rdx,2), %ecx
	imull	%ecx, %eax
	cltq
	addq	-56(%rbp), %rax
	movq	%rax, -56(%rbp)
	movq	-56(%rbp), %rax
	cmpq	-96(%rbp), %rax
	jle	.LBB109_32
# %bb.31:                               # %if.then421
                                        #   in Loop: Header=BB109_29 Depth=1
	leaq	-96(%rbp), %rdi
	leaq	-56(%rbp), %rsi
	leaq	-84(%rbp), %rdx
	leaq	-44(%rbp), %rcx
	callq	Calculation_of_the_LTP_parameters4
.LBB109_32:                             # %if.end423
                                        #   in Loop: Header=BB109_29 Depth=1
	jmp	.LBB109_33
.LBB109_33:                             # %for.inc424
                                        #   in Loop: Header=BB109_29 Depth=1
	leaq	-44(%rbp), %rdi
	callq	Calculation_of_the_LTP_parameters5
	jmp	.LBB109_29
.LBB109_34:                             # %for.end426
	movw	-84(%rbp), %ax
	movq	-216(%rbp), %rcx
	movw	%ax, (%rcx)
	movq	-96(%rbp), %rax
	shlq	$1, %rax
	movq	%rax, -96(%rbp)
	movswl	-74(%rbp), %eax
	cmpl	$100, %eax
	jg	.LBB109_37
# %bb.35:                               # %land.lhs.true
	movswl	-74(%rbp), %eax
	cmpl	$-100, %eax
	jl	.LBB109_37
# %bb.36:                               # %cond.true434
	jmp	.LBB109_38
.LBB109_37:                             # %cond.false435
	movabsq	$.L.str.11.75, %rdi
	movabsq	$.L.str.1.10, %rsi
	movabsq	$.L__PRETTY_FUNCTION__.Calculation_of_the_LTP_parameters, %rcx
	movl	$165, %edx
	callq	__assert_fail
.LBB109_38:                             # %cond.end436
	movl	$6, %eax
	movq	-96(%rbp), %rdx
	movswl	-74(%rbp), %ecx
	subl	%ecx, %eax
	movl	%eax, %ecx
                                        # kill: def %cl killed %rcx
	sarq	%cl, %rdx
	movq	%rdx, -96(%rbp)
	movswl	-84(%rbp), %eax
	cmpl	$120, %eax
	jg	.LBB109_41
# %bb.39:                               # %land.lhs.true443
	movswl	-84(%rbp), %eax
	cmpl	$40, %eax
	jl	.LBB109_41
# %bb.40:                               # %cond.true447
	jmp	.LBB109_42
.LBB109_41:                             # %cond.false448
	movabsq	$.L.str.12.76, %rdi
	movabsq	$.L.str.1.10, %rsi
	movabsq	$.L__PRETTY_FUNCTION__.Calculation_of_the_LTP_parameters, %rcx
	movl	$168, %edx
	callq	__assert_fail
.LBB109_42:                             # %cond.end449
	movq	$0, -112(%rbp)
	movl	$0, -80(%rbp)
.LBB109_43:                             # %for.cond450
                                        # =>This Inner Loop Header: Depth=1
	cmpl	$39, -80(%rbp)
	jg	.LBB109_46
# %bb.44:                               # %for.body453
                                        #   in Loop: Header=BB109_43 Depth=1
	leaq	-112(%rbp), %rdi
	leaq	-72(%rbp), %rsi
	leaq	-80(%rbp), %rdx
	leaq	-84(%rbp), %rcx
	callq	Calculation_of_the_LTP_parameters6
# %bb.45:                               # %for.inc463
                                        #   in Loop: Header=BB109_43 Depth=1
	leaq	-80(%rbp), %rdi
	callq	Calculation_of_the_LTP_parameters7
	jmp	.LBB109_43
.LBB109_46:                             # %for.end465
	movq	-112(%rbp), %rax
	shlq	$1, %rax
	movq	%rax, -112(%rbp)
	cmpq	$0, -96(%rbp)
	jg	.LBB109_48
# %bb.47:                               # %if.then469
	leaq	-200(%rbp), %rdi
	callq	Calculation_of_the_LTP_parameters8
	jmp	.LBB109_58
.LBB109_48:                             # %if.end470
	movq	-96(%rbp), %rax
	cmpq	-112(%rbp), %rax
	jl	.LBB109_50
# %bb.49:                               # %if.then473
	movq	-200(%rbp), %rax
	movw	$3, (%rax)
	jmp	.LBB109_58
.LBB109_50:                             # %if.end474
	leaq	-98(%rbp), %rdi
	leaq	-112(%rbp), %rsi
	leaq	-58(%rbp), %rdx
	leaq	-96(%rbp), %rcx
	leaq	-100(%rbp), %r8
	callq	Calculation_of_the_LTP_parameters9
	movw	$0, -86(%rbp)
.LBB109_51:                             # %for.cond486
                                        # =>This Inner Loop Header: Depth=1
	movswl	-86(%rbp), %eax
	cmpl	$2, %eax
	jg	.LBB109_56
# %bb.52:                               # %for.body490
                                        #   in Loop: Header=BB109_51 Depth=1
	movswl	-100(%rbp), %ebx
	movw	-98(%rbp), %ax
	movswq	-86(%rbp), %rcx
	movswl	%ax, %edi
	movswl	gsm_DLB(,%rcx,2), %esi
	callq	gsm_mult
	cwtl
	cmpl	%eax, %ebx
	jg	.LBB109_54
# %bb.53:                               # %if.then498
	jmp	.LBB109_57
.LBB109_54:                             # %if.end499
                                        #   in Loop: Header=BB109_51 Depth=1
	jmp	.LBB109_55
.LBB109_55:                             # %for.inc500
                                        #   in Loop: Header=BB109_51 Depth=1
	leaq	-86(%rbp), %rdi
	callq	Calculation_of_the_LTP_parameters10
	jmp	.LBB109_51
.LBB109_56:                             # %for.end502.loopexit
	jmp	.LBB109_57
.LBB109_57:                             # %for.end502
	leaq	-200(%rbp), %rdi
	leaq	-86(%rbp), %rsi
	callq	Calculation_of_the_LTP_parameters11
.LBB109_58:                             # %return
	addq	$184, %rsp
	popq	%rbx
	popq	%r12
	popq	%r13
	popq	%r14
	popq	%r15
	popq	%rbp
	retq
.Lfunc_end109:
	.size	Calculation_of_the_LTP_parameters, .Lfunc_end109-Calculation_of_the_LTP_parameters
	.cfi_endproc
                                        # -- End function
	.p2align	4, 0x90         # -- Begin function Long_term_analysis_filtering
	.type	Long_term_analysis_filtering,@function
Long_term_analysis_filtering:           # @Long_term_analysis_filtering
	.cfi_startproc
# %bb.0:                                # %entry
	pushq	%rbp
	.cfi_def_cfa_offset 16
	.cfi_offset %rbp, -16
	movq	%rsp, %rbp
	.cfi_def_cfa_register %rbp
	pushq	%r15
	pushq	%r14
	pushq	%r13
	pushq	%r12
	pushq	%rbx
	subq	$88, %rsp
	.cfi_offset %rbx, -56
	.cfi_offset %r12, -48
	.cfi_offset %r13, -40
	.cfi_offset %r14, -32
	.cfi_offset %r15, -24
	movq	%r9, -120(%rbp)         # 8-byte Spill
	movq	%r8, %r15
	movq	%rcx, %r12
	movq	%rdx, %r13
	movl	%esi, %ebx
	movl	%edi, %r14d
	movl	$222222235, -108(%rbp)  # imm = 0xD3ED79B
	movl	$555555568, -104(%rbp)  # imm = 0x211D1AF0
	movl	$444444457, -100(%rbp)  # imm = 0x1A7DAF29
	movl	-108(%rbp), %edi
	movl	-104(%rbp), %esi
	movl	-100(%rbp), %edx
	callq	guardMe
	movw	%r14w, -66(%rbp)
	movw	%bx, -46(%rbp)
	movq	%r13, -96(%rbp)
	movq	%r12, -88(%rbp)
	movq	%r15, -64(%rbp)
	movq	-120(%rbp), %rax        # 8-byte Reload
	movq	%rax, -80(%rbp)
	movswl	-66(%rbp), %eax
	movl	%eax, %ecx
	subl	$3, %ecx
	ja	.LBB110_46
# %bb.1:                                # %entry
	movq	.LJTI110_0(,%rax,8), %rax
	jmpq	*%rax
.LBB110_2:                              # %sw.bb
	movl	$0, -44(%rbp)
.LBB110_3:                              # %for.cond
                                        # =>This Inner Loop Header: Depth=1
	cmpl	$39, -44(%rbp)
	jg	.LBB110_12
# %bb.4:                                # %for.body
                                        #   in Loop: Header=BB110_3 Depth=1
	movq	-96(%rbp), %rax
	movl	-44(%rbp), %ecx
	movswl	-46(%rbp), %edx
	subl	%edx, %ecx
	movslq	%ecx, %rcx
	movswq	(%rax,%rcx,2), %rax
	imulq	$3277, %rax, %rax       # imm = 0xCCD
	addq	$16384, %rax            # imm = 0x4000
	sarq	$15, %rax
	movq	-64(%rbp), %rcx
	movslq	-44(%rbp), %rdx
	movw	%ax, (%rcx,%rdx,2)
	movq	-88(%rbp), %rax
	movslq	-44(%rbp), %rcx
	movswq	(%rax,%rcx,2), %rax
	movq	-64(%rbp), %rcx
	movslq	-44(%rbp), %rdx
	movswq	(%rcx,%rdx,2), %rcx
	subq	%rcx, %rax
	movq	%rax, -56(%rbp)
	cmpq	$32767, %rax            # imm = 0x7FFF
	jl	.LBB110_6
# %bb.5:                                # %cond.true
                                        #   in Loop: Header=BB110_3 Depth=1
	movl	$32767, %eax            # imm = 0x7FFF
	jmp	.LBB110_10
.LBB110_6:                              # %cond.false
                                        #   in Loop: Header=BB110_3 Depth=1
	cmpq	$-32768, -56(%rbp)      # imm = 0x8000
	jg	.LBB110_8
# %bb.7:                                # %cond.true18
                                        #   in Loop: Header=BB110_3 Depth=1
	movq	$-32768, %rax           # imm = 0x8000
	jmp	.LBB110_9
.LBB110_8:                              # %cond.false19
                                        #   in Loop: Header=BB110_3 Depth=1
	movq	-56(%rbp), %rax
.LBB110_9:                              # %cond.end
                                        #   in Loop: Header=BB110_3 Depth=1
.LBB110_10:                             # %cond.end20
                                        #   in Loop: Header=BB110_3 Depth=1
	movq	-80(%rbp), %rcx
	movslq	-44(%rbp), %rdx
	movw	%ax, (%rcx,%rdx,2)
# %bb.11:                               # %for.inc
                                        #   in Loop: Header=BB110_3 Depth=1
	leaq	-44(%rbp), %rdi
	callq	Long_term_analysis_filtering0
	jmp	.LBB110_3
.LBB110_12:                             # %for.end
	jmp	.LBB110_46
.LBB110_13:                             # %sw.bb25
	movl	$0, -44(%rbp)
.LBB110_14:                             # %for.cond26
                                        # =>This Inner Loop Header: Depth=1
	cmpl	$39, -44(%rbp)
	jg	.LBB110_23
# %bb.15:                               # %for.body29
                                        #   in Loop: Header=BB110_14 Depth=1
	movq	-96(%rbp), %rax
	movl	-44(%rbp), %ecx
	movswl	-46(%rbp), %edx
	subl	%edx, %ecx
	movslq	%ecx, %rcx
	movswq	(%rax,%rcx,2), %rax
	imulq	$11469, %rax, %rax      # imm = 0x2CCD
	addq	$16384, %rax            # imm = 0x4000
	sarq	$15, %rax
	movq	-64(%rbp), %rcx
	movslq	-44(%rbp), %rdx
	movw	%ax, (%rcx,%rdx,2)
	movq	-88(%rbp), %rax
	movslq	-44(%rbp), %rcx
	movswq	(%rax,%rcx,2), %rax
	movq	-64(%rbp), %rcx
	movslq	-44(%rbp), %rdx
	movswq	(%rcx,%rdx,2), %rcx
	subq	%rcx, %rax
	movq	%rax, -56(%rbp)
	cmpq	$32767, %rax            # imm = 0x7FFF
	jl	.LBB110_17
# %bb.16:                               # %cond.true50
                                        #   in Loop: Header=BB110_14 Depth=1
	movl	$32767, %eax            # imm = 0x7FFF
	jmp	.LBB110_21
.LBB110_17:                             # %cond.false51
                                        #   in Loop: Header=BB110_14 Depth=1
	cmpq	$-32768, -56(%rbp)      # imm = 0x8000
	jg	.LBB110_19
# %bb.18:                               # %cond.true54
                                        #   in Loop: Header=BB110_14 Depth=1
	movq	$-32768, %rax           # imm = 0x8000
	jmp	.LBB110_20
.LBB110_19:                             # %cond.false55
                                        #   in Loop: Header=BB110_14 Depth=1
	movq	-56(%rbp), %rax
.LBB110_20:                             # %cond.end56
                                        #   in Loop: Header=BB110_14 Depth=1
.LBB110_21:                             # %cond.end58
                                        #   in Loop: Header=BB110_14 Depth=1
	movq	-80(%rbp), %rcx
	movslq	-44(%rbp), %rdx
	movw	%ax, (%rcx,%rdx,2)
# %bb.22:                               # %for.inc63
                                        #   in Loop: Header=BB110_14 Depth=1
	leaq	-44(%rbp), %rdi
	callq	Long_term_analysis_filtering1
	jmp	.LBB110_14
.LBB110_23:                             # %for.end65
	jmp	.LBB110_46
.LBB110_24:                             # %sw.bb66
	movl	$0, -44(%rbp)
.LBB110_25:                             # %for.cond67
                                        # =>This Inner Loop Header: Depth=1
	cmpl	$39, -44(%rbp)
	jg	.LBB110_34
# %bb.26:                               # %for.body70
                                        #   in Loop: Header=BB110_25 Depth=1
	movq	-96(%rbp), %rax
	movl	-44(%rbp), %ecx
	movswl	-46(%rbp), %edx
	subl	%edx, %ecx
	movslq	%ecx, %rcx
	movswq	(%rax,%rcx,2), %rax
	imulq	$21299, %rax, %rax      # imm = 0x5333
	addq	$16384, %rax            # imm = 0x4000
	sarq	$15, %rax
	movq	-64(%rbp), %rcx
	movslq	-44(%rbp), %rdx
	movw	%ax, (%rcx,%rdx,2)
	movq	-88(%rbp), %rax
	movslq	-44(%rbp), %rcx
	movswq	(%rax,%rcx,2), %rax
	movq	-64(%rbp), %rcx
	movslq	-44(%rbp), %rdx
	movswq	(%rcx,%rdx,2), %rcx
	subq	%rcx, %rax
	movq	%rax, -56(%rbp)
	cmpq	$32767, %rax            # imm = 0x7FFF
	jl	.LBB110_28
# %bb.27:                               # %cond.true91
                                        #   in Loop: Header=BB110_25 Depth=1
	movl	$32767, %eax            # imm = 0x7FFF
	jmp	.LBB110_32
.LBB110_28:                             # %cond.false92
                                        #   in Loop: Header=BB110_25 Depth=1
	cmpq	$-32768, -56(%rbp)      # imm = 0x8000
	jg	.LBB110_30
# %bb.29:                               # %cond.true95
                                        #   in Loop: Header=BB110_25 Depth=1
	movq	$-32768, %rax           # imm = 0x8000
	jmp	.LBB110_31
.LBB110_30:                             # %cond.false96
                                        #   in Loop: Header=BB110_25 Depth=1
	movq	-56(%rbp), %rax
.LBB110_31:                             # %cond.end97
                                        #   in Loop: Header=BB110_25 Depth=1
.LBB110_32:                             # %cond.end99
                                        #   in Loop: Header=BB110_25 Depth=1
	movq	-80(%rbp), %rcx
	movslq	-44(%rbp), %rdx
	movw	%ax, (%rcx,%rdx,2)
# %bb.33:                               # %for.inc104
                                        #   in Loop: Header=BB110_25 Depth=1
	leaq	-44(%rbp), %rdi
	callq	Long_term_analysis_filtering2
	jmp	.LBB110_25
.LBB110_34:                             # %for.end106
	jmp	.LBB110_46
.LBB110_35:                             # %sw.bb107
	movl	$0, -44(%rbp)
.LBB110_36:                             # %for.cond108
                                        # =>This Inner Loop Header: Depth=1
	cmpl	$39, -44(%rbp)
	jg	.LBB110_45
# %bb.37:                               # %for.body111
                                        #   in Loop: Header=BB110_36 Depth=1
	movq	-96(%rbp), %rax
	movl	-44(%rbp), %ecx
	movswl	-46(%rbp), %edx
	subl	%edx, %ecx
	movslq	%ecx, %rcx
	movswq	(%rax,%rcx,2), %rax
	imulq	$32767, %rax, %rax      # imm = 0x7FFF
	addq	$16384, %rax            # imm = 0x4000
	sarq	$15, %rax
	movq	-64(%rbp), %rcx
	movslq	-44(%rbp), %rdx
	movw	%ax, (%rcx,%rdx,2)
	movq	-88(%rbp), %rax
	movslq	-44(%rbp), %rcx
	movswq	(%rax,%rcx,2), %rax
	movq	-64(%rbp), %rcx
	movslq	-44(%rbp), %rdx
	movswq	(%rcx,%rdx,2), %rcx
	subq	%rcx, %rax
	movq	%rax, -56(%rbp)
	cmpq	$32767, %rax            # imm = 0x7FFF
	jl	.LBB110_39
# %bb.38:                               # %cond.true132
                                        #   in Loop: Header=BB110_36 Depth=1
	movl	$32767, %eax            # imm = 0x7FFF
	jmp	.LBB110_43
.LBB110_39:                             # %cond.false133
                                        #   in Loop: Header=BB110_36 Depth=1
	cmpq	$-32768, -56(%rbp)      # imm = 0x8000
	jg	.LBB110_41
# %bb.40:                               # %cond.true136
                                        #   in Loop: Header=BB110_36 Depth=1
	movq	$-32768, %rax           # imm = 0x8000
	jmp	.LBB110_42
.LBB110_41:                             # %cond.false137
                                        #   in Loop: Header=BB110_36 Depth=1
	movq	-56(%rbp), %rax
.LBB110_42:                             # %cond.end138
                                        #   in Loop: Header=BB110_36 Depth=1
.LBB110_43:                             # %cond.end140
                                        #   in Loop: Header=BB110_36 Depth=1
	movq	-80(%rbp), %rcx
	movslq	-44(%rbp), %rdx
	movw	%ax, (%rcx,%rdx,2)
# %bb.44:                               # %for.inc145
                                        #   in Loop: Header=BB110_36 Depth=1
	leaq	-44(%rbp), %rdi
	callq	Long_term_analysis_filtering3
	jmp	.LBB110_36
.LBB110_45:                             # %for.end147
	jmp	.LBB110_46
.LBB110_46:                             # %sw.epilog
	addq	$88, %rsp
	popq	%rbx
	popq	%r12
	popq	%r13
	popq	%r14
	popq	%r15
	popq	%rbp
	retq
.Lfunc_end110:
	.size	Long_term_analysis_filtering, .Lfunc_end110-Long_term_analysis_filtering
	.cfi_endproc
	.section	.rodata,"a",@progbits
	.p2align	3
.LJTI110_0:
	.quad	.LBB110_2
	.quad	.LBB110_13
	.quad	.LBB110_24
	.quad	.LBB110_35
                                        # -- End function
	.text
	.globl	Long_term_analysis_filtering0 # -- Begin function Long_term_analysis_filtering0
	.p2align	4, 0x90
	.type	Long_term_analysis_filtering0,@function
Long_term_analysis_filtering0:          # @Long_term_analysis_filtering0
	.cfi_startproc
# %bb.0:                                # %entry
	movq	%rdi, -8(%rsp)
	movl	(%rdi), %eax
	incl	%eax
	movl	%eax, -12(%rsp)
	movl	%eax, (%rdi)
	retq
.Lfunc_end111:
	.size	Long_term_analysis_filtering0, .Lfunc_end111-Long_term_analysis_filtering0
	.cfi_endproc
                                        # -- End function
	.globl	Long_term_analysis_filtering1 # -- Begin function Long_term_analysis_filtering1
	.p2align	4, 0x90
	.type	Long_term_analysis_filtering1,@function
Long_term_analysis_filtering1:          # @Long_term_analysis_filtering1
	.cfi_startproc
# %bb.0:                                # %entry
	movq	%rdi, -8(%rsp)
	movl	(%rdi), %eax
	incl	%eax
	movl	%eax, -12(%rsp)
	movl	%eax, (%rdi)
	retq
.Lfunc_end112:
	.size	Long_term_analysis_filtering1, .Lfunc_end112-Long_term_analysis_filtering1
	.cfi_endproc
                                        # -- End function
	.globl	Long_term_analysis_filtering2 # -- Begin function Long_term_analysis_filtering2
	.p2align	4, 0x90
	.type	Long_term_analysis_filtering2,@function
Long_term_analysis_filtering2:          # @Long_term_analysis_filtering2
	.cfi_startproc
# %bb.0:                                # %entry
	movq	%rdi, -8(%rsp)
	movl	(%rdi), %eax
	incl	%eax
	movl	%eax, -12(%rsp)
	movl	%eax, (%rdi)
	retq
.Lfunc_end113:
	.size	Long_term_analysis_filtering2, .Lfunc_end113-Long_term_analysis_filtering2
	.cfi_endproc
                                        # -- End function
	.globl	Long_term_analysis_filtering3 # -- Begin function Long_term_analysis_filtering3
	.p2align	4, 0x90
	.type	Long_term_analysis_filtering3,@function
Long_term_analysis_filtering3:          # @Long_term_analysis_filtering3
	.cfi_startproc
# %bb.0:                                # %entry
	movq	%rdi, -8(%rsp)
	movl	(%rdi), %eax
	incl	%eax
	movl	%eax, -12(%rsp)
	movl	%eax, (%rdi)
	retq
.Lfunc_end114:
	.size	Long_term_analysis_filtering3, .Lfunc_end114-Long_term_analysis_filtering3
	.cfi_endproc
                                        # -- End function
	.globl	Calculation_of_the_LTP_parameters0 # -- Begin function Calculation_of_the_LTP_parameters0
	.p2align	4, 0x90
	.type	Calculation_of_the_LTP_parameters0,@function
Calculation_of_the_LTP_parameters0:     # @Calculation_of_the_LTP_parameters0
	.cfi_startproc
# %bb.0:                                # %entry
	movq	%rdi, -16(%rsp)
	movzwl	(%rdi), %eax
	movw	%ax, -20(%rsp)
	movq	%rsi, -8(%rsp)
	movzwl	(%rsi), %eax
	movw	%ax, -18(%rsp)
	movw	%ax, -20(%rsp)
	movw	%ax, (%rsi)
	movq	-16(%rsp), %rax
	movzwl	-20(%rsp), %ecx
	movw	%cx, (%rax)
	retq
.Lfunc_end115:
	.size	Calculation_of_the_LTP_parameters0, .Lfunc_end115-Calculation_of_the_LTP_parameters0
	.cfi_endproc
                                        # -- End function
	.globl	Calculation_of_the_LTP_parameters1 # -- Begin function Calculation_of_the_LTP_parameters1
	.p2align	4, 0x90
	.type	Calculation_of_the_LTP_parameters1,@function
Calculation_of_the_LTP_parameters1:     # @Calculation_of_the_LTP_parameters1
	.cfi_startproc
# %bb.0:                                # %entry
	subq	$24, %rsp
	.cfi_def_cfa_offset 32
	movq	%rdi, 16(%rsp)
	movzwl	(%rdi), %eax
	movw	%ax, 6(%rsp)
	movq	%rsi, 8(%rsp)
	movzwl	(%rsi), %eax
	movw	%ax, 4(%rsp)
	movswq	4(%rsp), %rdi
	shlq	$16, %rdi
	callq	gsm_norm
	movw	%ax, 6(%rsp)
	movq	8(%rsp), %rax
	movzwl	4(%rsp), %ecx
	movw	%cx, (%rax)
	movq	16(%rsp), %rax
	movzwl	6(%rsp), %ecx
	movw	%cx, (%rax)
	addq	$24, %rsp
	retq
.Lfunc_end116:
	.size	Calculation_of_the_LTP_parameters1, .Lfunc_end116-Calculation_of_the_LTP_parameters1
	.cfi_endproc
                                        # -- End function
	.globl	Calculation_of_the_LTP_parameters2 # -- Begin function Calculation_of_the_LTP_parameters2
	.p2align	4, 0x90
	.type	Calculation_of_the_LTP_parameters2,@function
Calculation_of_the_LTP_parameters2:     # @Calculation_of_the_LTP_parameters2
	.cfi_startproc
# %bb.0:                                # %entry
	movq	%rdi, -16(%rsp)
	movzwl	(%rdi), %eax
	movw	%ax, -20(%rsp)
	movq	%rsi, -8(%rsp)
	movzwl	(%rsi), %eax
	movw	%ax, -18(%rsp)
	movzwl	-18(%rsp), %eax
	movl	$6, %ecx
	subl	%eax, %ecx
	movw	%cx, -20(%rsp)
	movw	%ax, (%rsi)
	movq	-16(%rsp), %rax
	movzwl	-20(%rsp), %ecx
	movw	%cx, (%rax)
	retq
.Lfunc_end117:
	.size	Calculation_of_the_LTP_parameters2, .Lfunc_end117-Calculation_of_the_LTP_parameters2
	.cfi_endproc
                                        # -- End function
	.globl	Calculation_of_the_LTP_parameters3 # -- Begin function Calculation_of_the_LTP_parameters3
	.p2align	4, 0x90
	.type	Calculation_of_the_LTP_parameters3,@function
Calculation_of_the_LTP_parameters3:     # @Calculation_of_the_LTP_parameters3
	.cfi_startproc
# %bb.0:                                # %entry
	movq	%rdi, -8(%rsp)
	movl	(%rdi), %eax
	incl	%eax
	movl	%eax, -12(%rsp)
	movl	%eax, (%rdi)
	retq
.Lfunc_end118:
	.size	Calculation_of_the_LTP_parameters3, .Lfunc_end118-Calculation_of_the_LTP_parameters3
	.cfi_endproc
                                        # -- End function
	.globl	Calculation_of_the_LTP_parameters4 # -- Begin function Calculation_of_the_LTP_parameters4
	.p2align	4, 0x90
	.type	Calculation_of_the_LTP_parameters4,@function
Calculation_of_the_LTP_parameters4:     # @Calculation_of_the_LTP_parameters4
	.cfi_startproc
# %bb.0:                                # %entry
	movq	%rdi, -16(%rsp)
	movq	(%rdi), %rax
	movq	%rax, -48(%rsp)
	movq	%rsi, -24(%rsp)
	movq	(%rsi), %rax
	movq	%rax, -32(%rsp)
	movq	%rdx, -8(%rsp)
	movzwl	(%rdx), %esi
	movw	%si, -54(%rsp)
	movq	%rcx, -40(%rsp)
	movl	(%rcx), %ecx
	movl	%ecx, -52(%rsp)
	movzwl	-52(%rsp), %ecx
	movw	%cx, -54(%rsp)
	movq	%rax, -48(%rsp)
	movw	%cx, (%rdx)
	movq	-24(%rsp), %rax
	movq	-32(%rsp), %rcx
	movq	%rcx, (%rax)
	movq	-40(%rsp), %rax
	movl	-52(%rsp), %ecx
	movl	%ecx, (%rax)
	movq	-16(%rsp), %rax
	movq	-48(%rsp), %rcx
	movq	%rcx, (%rax)
	retq
.Lfunc_end119:
	.size	Calculation_of_the_LTP_parameters4, .Lfunc_end119-Calculation_of_the_LTP_parameters4
	.cfi_endproc
                                        # -- End function
	.globl	Calculation_of_the_LTP_parameters5 # -- Begin function Calculation_of_the_LTP_parameters5
	.p2align	4, 0x90
	.type	Calculation_of_the_LTP_parameters5,@function
Calculation_of_the_LTP_parameters5:     # @Calculation_of_the_LTP_parameters5
	.cfi_startproc
# %bb.0:                                # %entry
	movq	%rdi, -8(%rsp)
	movl	(%rdi), %eax
	incl	%eax
	movl	%eax, -12(%rsp)
	movl	%eax, (%rdi)
	retq
.Lfunc_end120:
	.size	Calculation_of_the_LTP_parameters5, .Lfunc_end120-Calculation_of_the_LTP_parameters5
	.cfi_endproc
                                        # -- End function
	.globl	Calculation_of_the_LTP_parameters6 # -- Begin function Calculation_of_the_LTP_parameters6
	.p2align	4, 0x90
	.type	Calculation_of_the_LTP_parameters6,@function
Calculation_of_the_LTP_parameters6:     # @Calculation_of_the_LTP_parameters6
	.cfi_startproc
# %bb.0:                                # %entry
	movq	%rdi, -24(%rsp)
	movq	(%rdi), %rax
	movq	%rax, -56(%rsp)
	movq	%rsi, -32(%rsp)
	movq	(%rsi), %rax
	movq	%rax, -40(%rsp)
	movq	%rdx, -48(%rsp)
	movl	(%rdx), %edx
	movl	%edx, -60(%rsp)
	movq	%rcx, -8(%rsp)
	movzwl	(%rcx), %edx
	movw	%dx, -62(%rsp)
	movslq	-60(%rsp), %rdx
	movswq	-62(%rsp), %rsi
	subq	%rsi, %rdx
	movswl	(%rax,%rdx,2), %eax
	sarl	$3, %eax
	cltq
	movq	%rax, -16(%rsp)
	imulq	%rax, %rax
	addq	%rax, -56(%rsp)
	movw	%si, (%rcx)
	movq	-48(%rsp), %rax
	movl	-60(%rsp), %ecx
	movl	%ecx, (%rax)
	movq	-32(%rsp), %rax
	movq	-40(%rsp), %rcx
	movq	%rcx, (%rax)
	movq	-24(%rsp), %rax
	movq	-56(%rsp), %rcx
	movq	%rcx, (%rax)
	retq
.Lfunc_end121:
	.size	Calculation_of_the_LTP_parameters6, .Lfunc_end121-Calculation_of_the_LTP_parameters6
	.cfi_endproc
                                        # -- End function
	.globl	Calculation_of_the_LTP_parameters7 # -- Begin function Calculation_of_the_LTP_parameters7
	.p2align	4, 0x90
	.type	Calculation_of_the_LTP_parameters7,@function
Calculation_of_the_LTP_parameters7:     # @Calculation_of_the_LTP_parameters7
	.cfi_startproc
# %bb.0:                                # %entry
	movq	%rdi, -8(%rsp)
	movl	(%rdi), %eax
	incl	%eax
	movl	%eax, -12(%rsp)
	movl	%eax, (%rdi)
	retq
.Lfunc_end122:
	.size	Calculation_of_the_LTP_parameters7, .Lfunc_end122-Calculation_of_the_LTP_parameters7
	.cfi_endproc
                                        # -- End function
	.globl	Calculation_of_the_LTP_parameters8 # -- Begin function Calculation_of_the_LTP_parameters8
	.p2align	4, 0x90
	.type	Calculation_of_the_LTP_parameters8,@function
Calculation_of_the_LTP_parameters8:     # @Calculation_of_the_LTP_parameters8
	.cfi_startproc
# %bb.0:                                # %entry
	movq	%rdi, -8(%rsp)
	movq	(%rdi), %rax
	movq	%rax, -16(%rsp)
	movw	$0, (%rax)
	movq	-8(%rsp), %rax
	movq	-16(%rsp), %rcx
	movq	%rcx, (%rax)
	retq
.Lfunc_end123:
	.size	Calculation_of_the_LTP_parameters8, .Lfunc_end123-Calculation_of_the_LTP_parameters8
	.cfi_endproc
                                        # -- End function
	.globl	Calculation_of_the_LTP_parameters9 # -- Begin function Calculation_of_the_LTP_parameters9
	.p2align	4, 0x90
	.type	Calculation_of_the_LTP_parameters9,@function
Calculation_of_the_LTP_parameters9:     # @Calculation_of_the_LTP_parameters9
	.cfi_startproc
# %bb.0:                                # %entry
	subq	$72, %rsp
	.cfi_def_cfa_offset 80
	movq	%rdi, 64(%rsp)
	movzwl	(%rdi), %eax
	movw	%ax, 14(%rsp)
	movq	%rsi, 56(%rsp)
	movq	(%rsi), %rdi
	movq	%rdi, 24(%rsp)
	movq	%rdx, 48(%rsp)
	movzwl	(%rdx), %eax
	movw	%ax, 12(%rsp)
	movq	%rcx, 40(%rsp)
	movq	(%rcx), %rax
	movq	%rax, 16(%rsp)
	movq	%r8, 32(%rsp)
	movzwl	(%r8), %eax
	movw	%ax, 10(%rsp)
	callq	gsm_norm
	movl	%eax, %ecx
	movw	%cx, 12(%rsp)
	movq	16(%rsp), %rax
	shlq	%cl, %rax
	shrq	$16, %rax
	movw	%ax, 10(%rsp)
	movq	24(%rsp), %rax
                                        # kill: def %cl killed %cl killed %cx
	shlq	%cl, %rax
	shrq	$16, %rax
	movw	%ax, 14(%rsp)
	movq	64(%rsp), %rcx
	movw	%ax, (%rcx)
	movq	48(%rsp), %rax
	movzwl	12(%rsp), %ecx
	movw	%cx, (%rax)
	movq	32(%rsp), %rax
	movzwl	10(%rsp), %ecx
	movw	%cx, (%rax)
	movq	56(%rsp), %rax
	movq	24(%rsp), %rcx
	movq	%rcx, (%rax)
	movq	40(%rsp), %rax
	movq	16(%rsp), %rcx
	movq	%rcx, (%rax)
	addq	$72, %rsp
	retq
.Lfunc_end124:
	.size	Calculation_of_the_LTP_parameters9, .Lfunc_end124-Calculation_of_the_LTP_parameters9
	.cfi_endproc
                                        # -- End function
	.globl	gsm_mult                # -- Begin function gsm_mult
	.p2align	4, 0x90
	.type	gsm_mult,@function
gsm_mult:                               # @gsm_mult
	.cfi_startproc
# %bb.0:                                # %entry
	pushq	%rbp
	.cfi_def_cfa_offset 16
	.cfi_offset %rbp, -16
	movq	%rsp, %rbp
	.cfi_def_cfa_register %rbp
	subq	$16, %rsp
	movw	%di, -4(%rbp)
	movw	%si, -2(%rbp)
	movswl	-4(%rbp), %eax
	cmpl	$-32768, %eax           # imm = 0x8000
	jne	.LBB125_3
# %bb.1:                                # %land.lhs.true
	movswl	-2(%rbp), %eax
	cmpl	$-32768, %eax           # imm = 0x8000
	jne	.LBB125_3
# %bb.2:                                # %if.then
	movw	$32767, -6(%rbp)        # imm = 0x7FFF
	jmp	.LBB125_4
.LBB125_3:                              # %if.else
	leaq	-6(%rbp), %rdi
	leaq	-2(%rbp), %rsi
	leaq	-4(%rbp), %rdx
	callq	gsm_mult0
.LBB125_4:                              # %return
	movswl	-6(%rbp), %eax
	addq	$16, %rsp
	popq	%rbp
	retq
.Lfunc_end125:
	.size	gsm_mult, .Lfunc_end125-gsm_mult
	.cfi_endproc
                                        # -- End function
	.globl	Calculation_of_the_LTP_parameters10 # -- Begin function Calculation_of_the_LTP_parameters10
	.p2align	4, 0x90
	.type	Calculation_of_the_LTP_parameters10,@function
Calculation_of_the_LTP_parameters10:    # @Calculation_of_the_LTP_parameters10
	.cfi_startproc
# %bb.0:                                # %entry
	movq	%rdi, -8(%rsp)
	movzwl	(%rdi), %eax
	incl	%eax
	movw	%ax, -10(%rsp)
	movw	%ax, (%rdi)
	retq
.Lfunc_end126:
	.size	Calculation_of_the_LTP_parameters10, .Lfunc_end126-Calculation_of_the_LTP_parameters10
	.cfi_endproc
                                        # -- End function
	.globl	Calculation_of_the_LTP_parameters11 # -- Begin function Calculation_of_the_LTP_parameters11
	.p2align	4, 0x90
	.type	Calculation_of_the_LTP_parameters11,@function
Calculation_of_the_LTP_parameters11:    # @Calculation_of_the_LTP_parameters11
	.cfi_startproc
# %bb.0:                                # %entry
	movq	%rdi, -8(%rsp)
	movq	(%rdi), %rax
	movq	%rax, -16(%rsp)
	movq	%rsi, -24(%rsp)
	movzwl	(%rsi), %ecx
	movw	%cx, -26(%rsp)
	movw	%cx, (%rax)
	movq	-24(%rsp), %rax
	movzwl	-26(%rsp), %ecx
	movw	%cx, (%rax)
	movq	-8(%rsp), %rax
	movq	-16(%rsp), %rcx
	movq	%rcx, (%rax)
	retq
.Lfunc_end127:
	.size	Calculation_of_the_LTP_parameters11, .Lfunc_end127-Calculation_of_the_LTP_parameters11
	.cfi_endproc
                                        # -- End function
	.globl	gsm_mult0               # -- Begin function gsm_mult0
	.p2align	4, 0x90
	.type	gsm_mult0,@function
gsm_mult0:                              # @gsm_mult0
	.cfi_startproc
# %bb.0:                                # %entry
	movq	%rdi, -16(%rsp)
	movzwl	(%rdi), %eax
	movw	%ax, -28(%rsp)
	movq	%rsi, -8(%rsp)
	movzwl	(%rsi), %eax
	movw	%ax, -26(%rsp)
	movq	%rdx, -24(%rsp)
	movzwl	(%rdx), %ecx
	movw	%cx, -30(%rsp)
	movswl	-26(%rsp), %ecx
	movswl	-30(%rsp), %edx
	imull	%ecx, %edx
	shrl	$15, %edx
	movw	%dx, -28(%rsp)
	movw	%ax, (%rsi)
	movq	-24(%rsp), %rax
	movzwl	-30(%rsp), %ecx
	movw	%cx, (%rax)
	movq	-16(%rsp), %rax
	movzwl	-28(%rsp), %ecx
	movw	%cx, (%rax)
	retq
.Lfunc_end128:
	.size	gsm_mult0, .Lfunc_end128-gsm_mult0
	.cfi_endproc
                                        # -- End function
	.globl	gsm_norm                # -- Begin function gsm_norm
	.p2align	4, 0x90
	.type	gsm_norm,@function
gsm_norm:                               # @gsm_norm
	.cfi_startproc
# %bb.0:                                # %entry
	pushq	%rbp
	.cfi_def_cfa_offset 16
	.cfi_offset %rbp, -16
	movq	%rsp, %rbp
	.cfi_def_cfa_register %rbp
	subq	$16, %rsp
	movq	%rdi, -8(%rbp)
	cmpq	$0, -8(%rbp)
	je	.LBB129_2
# %bb.1:                                # %cond.true
	jmp	.LBB129_3
.LBB129_2:                              # %cond.false
	movabsq	$.L.str.2.68, %rdi
	movabsq	$.L.str.1.67, %rsi
	movabsq	$.L__PRETTY_FUNCTION__.gsm_norm, %rcx
	movl	$137, %edx
	callq	__assert_fail
.LBB129_3:                              # %cond.end
	cmpq	$0, -8(%rbp)
	jge	.LBB129_7
# %bb.4:                                # %if.then
	cmpq	$-1073741824, -8(%rbp)  # imm = 0xC0000000
	jg	.LBB129_6
# %bb.5:                                # %if.then3
	movw	$0, -10(%rbp)
	jmp	.LBB129_17
.LBB129_6:                              # %if.end
	leaq	-8(%rbp), %rdi
	callq	gsm_norm0
.LBB129_7:                              # %if.end4
	movl	$4294901760, %eax       # imm = 0xFFFF0000
	andq	-8(%rbp), %rax
	cmpq	$0, %rax
	je	.LBB129_12
# %bb.8:                                # %cond.true5
	movl	$4278190080, %eax       # imm = 0xFF000000
	andq	-8(%rbp), %rax
	cmpq	$0, %rax
	je	.LBB129_10
# %bb.9:                                # %cond.true8
	movq	-8(%rbp), %rax
	sarq	$24, %rax
	andq	$255, %rax
	movzbl	bitoff(,%rax), %eax
	addl	$4294967295, %eax       # imm = 0xFFFFFFFF
	jmp	.LBB129_11
.LBB129_10:                             # %cond.false10
	movq	-8(%rbp), %rax
	sarq	$16, %rax
	andq	$255, %rax
	movzbl	bitoff(,%rax), %eax
	addl	$7, %eax
.LBB129_11:                             # %cond.end16
	jmp	.LBB129_16
.LBB129_12:                             # %cond.false17
	movq	-8(%rbp), %rax
	andq	$65280, %rax            # imm = 0xFF00
	cmpq	$0, %rax
	je	.LBB129_14
# %bb.13:                               # %cond.true20
	movq	-8(%rbp), %rax
	sarq	$8, %rax
	andq	$255, %rax
	movzbl	bitoff(,%rax), %eax
	addl	$15, %eax
	jmp	.LBB129_15
.LBB129_14:                             # %cond.false26
	movq	-8(%rbp), %rax
	andq	$255, %rax
	movzbl	bitoff(,%rax), %eax
	addl	$23, %eax
.LBB129_15:                             # %cond.end31
.LBB129_16:                             # %cond.end33
	movw	%ax, -10(%rbp)
.LBB129_17:                             # %return
	movswl	-10(%rbp), %eax
	addq	$16, %rsp
	popq	%rbp
	retq
.Lfunc_end129:
	.size	gsm_norm, .Lfunc_end129-gsm_norm
	.cfi_endproc
                                        # -- End function
	.globl	gsm_norm0               # -- Begin function gsm_norm0
	.p2align	4, 0x90
	.type	gsm_norm0,@function
gsm_norm0:                              # @gsm_norm0
	.cfi_startproc
# %bb.0:                                # %entry
	movq	%rdi, -8(%rsp)
	movq	(%rdi), %rax
	notq	%rax
	movq	%rax, -16(%rsp)
	movq	%rax, (%rdi)
	retq
.Lfunc_end130:
	.size	gsm_norm0, .Lfunc_end130-gsm_norm0
	.cfi_endproc
                                        # -- End function
	.globl	Gsm_Short_Term_Analysis_Filter0 # -- Begin function Gsm_Short_Term_Analysis_Filter0
	.p2align	4, 0x90
	.type	Gsm_Short_Term_Analysis_Filter0,@function
Gsm_Short_Term_Analysis_Filter0:        # @Gsm_Short_Term_Analysis_Filter0
	.cfi_startproc
# %bb.0:                                # %entry
	pushq	%rbx
	.cfi_def_cfa_offset 16
	subq	$80, %rsp
	.cfi_def_cfa_offset 96
	.cfi_offset %rbx, -16
	movq	%rdi, 56(%rsp)
	movq	(%rdi), %rax
	movq	%rax, 16(%rsp)
	movq	%rsi, 48(%rsp)
	movq	(%rsi), %rax
	movq	%rax, 8(%rsp)
	movq	%rdx, 40(%rsp)
	movq	(%rdx), %rcx
	movq	%rcx, 32(%rsp)
	movswq	628(%rax), %rcx
	shlq	$4, %rcx
	leaq	596(%rax,%rcx), %rcx
	movq	%rcx, (%rsp)
	movswl	628(%rax), %ecx
	xorl	$1, %ecx
	movw	%cx, 628(%rax)
	movslq	%ecx, %rcx
	shlq	$4, %rcx
	leaq	596(%rax,%rcx), %rax
	movq	%rax, 24(%rsp)
	movq	32(%rsp), %rdi
	movq	(%rsp), %rsi
	callq	Decoding_of_the_coded_Log_Area_Ratios
	movq	24(%rsp), %rdi
	movq	(%rsp), %rsi
	leaq	64(%rsp), %rbx
	movq	%rbx, %rdx
	callq	Coefficients_0_12
	movq	%rbx, %rdi
	callq	LARp_to_rp
	movq	8(%rsp), %rdi
	movq	16(%rsp), %rcx
	movl	$13, %edx
	movq	%rbx, %rsi
	callq	Short_term_analysis_filtering
	movq	24(%rsp), %rdi
	movq	(%rsp), %rsi
	movq	%rbx, %rdx
	callq	Coefficients_13_26
	movq	%rbx, %rdi
	callq	LARp_to_rp
	movq	8(%rsp), %rdi
	movq	16(%rsp), %rcx
	addq	$26, %rcx
	movl	$14, %edx
	movq	%rbx, %rsi
	callq	Short_term_analysis_filtering
	movq	24(%rsp), %rdi
	movq	(%rsp), %rsi
	movq	%rbx, %rdx
	callq	Coefficients_27_39
	movq	%rbx, %rdi
	callq	LARp_to_rp
	movq	8(%rsp), %rdi
	movq	16(%rsp), %rcx
	addq	$54, %rcx
	movl	$13, %edx
	movq	%rbx, %rsi
	callq	Short_term_analysis_filtering
	movq	(%rsp), %rdi
	movq	%rbx, %rsi
	callq	Coefficients_40_159
	movq	%rbx, %rdi
	callq	LARp_to_rp
	movq	8(%rsp), %rdi
	movq	16(%rsp), %rcx
	addq	$80, %rcx
	movl	$120, %edx
	movq	%rbx, %rsi
	callq	Short_term_analysis_filtering
	movq	40(%rsp), %rax
	movq	32(%rsp), %rcx
	movq	%rcx, (%rax)
	movq	48(%rsp), %rax
	movq	8(%rsp), %rcx
	movq	%rcx, (%rax)
	movq	56(%rsp), %rax
	movq	16(%rsp), %rcx
	movq	%rcx, (%rax)
	addq	$80, %rsp
	popq	%rbx
	retq
.Lfunc_end131:
	.size	Gsm_Short_Term_Analysis_Filter0, .Lfunc_end131-Gsm_Short_Term_Analysis_Filter0
	.cfi_endproc
                                        # -- End function
	.p2align	4, 0x90         # -- Begin function Decoding_of_the_coded_Log_Area_Ratios
	.type	Decoding_of_the_coded_Log_Area_Ratios,@function
Decoding_of_the_coded_Log_Area_Ratios:  # @Decoding_of_the_coded_Log_Area_Ratios
	.cfi_startproc
# %bb.0:                                # %entry
	pushq	%rbp
	.cfi_def_cfa_offset 16
	.cfi_offset %rbp, -16
	movq	%rsp, %rbp
	.cfi_def_cfa_register %rbp
	movq	%rdi, -32(%rbp)
	movq	%rsi, -24(%rbp)
	movq	-32(%rbp), %rax
	movq	%rax, %rcx
	addq	$2, %rcx
	movq	%rcx, -32(%rbp)
	movswq	(%rax), %rax
	addq	$-32, %rax
	movq	%rax, -16(%rbp)
	subq	$-32768, %rax           # imm = 0x8000
	cmpq	$65535, %rax            # imm = 0xFFFF
	jbe	.LBB132_2
# %bb.1:                                # %cond.true
	movl	$4294934528, %eax       # imm = 0xFFFF8000
	movl	$32767, %ecx            # imm = 0x7FFF
	movq	-16(%rbp), %rdx
	cmpq	$0, %rdx
	cmovgl	%ecx, %eax
	cltq
	jmp	.LBB132_3
.LBB132_2:                              # %cond.false
	movq	-16(%rbp), %rax
.LBB132_3:                              # %cond.end
	shlq	$10, %rax
	movw	%ax, -2(%rbp)
	movswq	-2(%rbp), %rax
	subq	$0, %rax
	movq	%rax, -16(%rbp)
	cmpq	$32767, %rax            # imm = 0x7FFF
	jl	.LBB132_5
# %bb.4:                                # %cond.true11
	movl	$32767, %eax            # imm = 0x7FFF
	jmp	.LBB132_9
.LBB132_5:                              # %cond.false12
	cmpq	$-32768, -16(%rbp)      # imm = 0x8000
	jg	.LBB132_7
# %bb.6:                                # %cond.true15
	movq	$-32768, %rax           # imm = 0x8000
	jmp	.LBB132_8
.LBB132_7:                              # %cond.false16
	movq	-16(%rbp), %rax
.LBB132_8:                              # %cond.end17
.LBB132_9:                              # %cond.end19
	movw	%ax, -2(%rbp)
	movswq	-2(%rbp), %rax
	imulq	$13107, %rax, %rax      # imm = 0x3333
	addq	$16384, %rax            # imm = 0x4000
	sarq	$15, %rax
	movw	%ax, -2(%rbp)
	movswq	-2(%rbp), %rax
	movswq	-2(%rbp), %rcx
	addq	%rcx, %rax
	movq	%rax, -16(%rbp)
	subq	$-32768, %rax           # imm = 0x8000
	cmpq	$65535, %rax            # imm = 0xFFFF
	jbe	.LBB132_11
# %bb.10:                               # %cond.true31
	movl	$4294934528, %eax       # imm = 0xFFFF8000
	movl	$32767, %ecx            # imm = 0x7FFF
	movq	-16(%rbp), %rdx
	cmpq	$0, %rdx
	cmovgl	%ecx, %eax
	cltq
	jmp	.LBB132_12
.LBB132_11:                             # %cond.false36
	movq	-16(%rbp), %rax
.LBB132_12:                             # %cond.end37
	movq	-24(%rbp), %rcx
	movq	%rcx, %rdx
	addq	$2, %rdx
	movq	%rdx, -24(%rbp)
	movw	%ax, (%rcx)
	movq	-32(%rbp), %rax
	movq	%rax, %rcx
	addq	$2, %rcx
	movq	%rcx, -32(%rbp)
	movswq	(%rax), %rax
	addq	$-32, %rax
	movq	%rax, -16(%rbp)
	subq	$-32768, %rax           # imm = 0x8000
	cmpq	$65535, %rax            # imm = 0xFFFF
	jbe	.LBB132_14
# %bb.13:                               # %cond.true47
	movl	$4294934528, %eax       # imm = 0xFFFF8000
	movl	$32767, %ecx            # imm = 0x7FFF
	movq	-16(%rbp), %rdx
	cmpq	$0, %rdx
	cmovgl	%ecx, %eax
	cltq
	jmp	.LBB132_15
.LBB132_14:                             # %cond.false52
	movq	-16(%rbp), %rax
.LBB132_15:                             # %cond.end53
	shlq	$10, %rax
	movw	%ax, -2(%rbp)
	movswq	-2(%rbp), %rax
	subq	$0, %rax
	movq	%rax, -16(%rbp)
	cmpq	$32767, %rax            # imm = 0x7FFF
	jl	.LBB132_17
# %bb.16:                               # %cond.true61
	movl	$32767, %eax            # imm = 0x7FFF
	jmp	.LBB132_21
.LBB132_17:                             # %cond.false62
	cmpq	$-32768, -16(%rbp)      # imm = 0x8000
	jg	.LBB132_19
# %bb.18:                               # %cond.true65
	movq	$-32768, %rax           # imm = 0x8000
	jmp	.LBB132_20
.LBB132_19:                             # %cond.false66
	movq	-16(%rbp), %rax
.LBB132_20:                             # %cond.end67
.LBB132_21:                             # %cond.end69
	movw	%ax, -2(%rbp)
	movswq	-2(%rbp), %rax
	imulq	$13107, %rax, %rax      # imm = 0x3333
	addq	$16384, %rax            # imm = 0x4000
	sarq	$15, %rax
	movw	%ax, -2(%rbp)
	movswq	-2(%rbp), %rax
	movswq	-2(%rbp), %rcx
	addq	%rcx, %rax
	movq	%rax, -16(%rbp)
	subq	$-32768, %rax           # imm = 0x8000
	cmpq	$65535, %rax            # imm = 0xFFFF
	jbe	.LBB132_23
# %bb.22:                               # %cond.true83
	movl	$4294934528, %eax       # imm = 0xFFFF8000
	movl	$32767, %ecx            # imm = 0x7FFF
	movq	-16(%rbp), %rdx
	cmpq	$0, %rdx
	cmovgl	%ecx, %eax
	cltq
	jmp	.LBB132_24
.LBB132_23:                             # %cond.false88
	movq	-16(%rbp), %rax
.LBB132_24:                             # %cond.end89
	movq	-24(%rbp), %rcx
	movq	%rcx, %rdx
	addq	$2, %rdx
	movq	%rdx, -24(%rbp)
	movw	%ax, (%rcx)
	movq	-32(%rbp), %rax
	movq	%rax, %rcx
	addq	$2, %rcx
	movq	%rcx, -32(%rbp)
	movswq	(%rax), %rax
	addq	$-16, %rax
	movq	%rax, -16(%rbp)
	subq	$-32768, %rax           # imm = 0x8000
	cmpq	$65535, %rax            # imm = 0xFFFF
	jbe	.LBB132_26
# %bb.25:                               # %cond.true99
	movl	$4294934528, %eax       # imm = 0xFFFF8000
	movl	$32767, %ecx            # imm = 0x7FFF
	movq	-16(%rbp), %rdx
	cmpq	$0, %rdx
	cmovgl	%ecx, %eax
	cltq
	jmp	.LBB132_27
.LBB132_26:                             # %cond.false104
	movq	-16(%rbp), %rax
.LBB132_27:                             # %cond.end105
	shlq	$10, %rax
	movw	%ax, -2(%rbp)
	movswq	-2(%rbp), %rax
	subq	$4096, %rax             # imm = 0x1000
	movq	%rax, -16(%rbp)
	cmpq	$32767, %rax            # imm = 0x7FFF
	jl	.LBB132_29
# %bb.28:                               # %cond.true113
	movl	$32767, %eax            # imm = 0x7FFF
	jmp	.LBB132_33
.LBB132_29:                             # %cond.false114
	cmpq	$-32768, -16(%rbp)      # imm = 0x8000
	jg	.LBB132_31
# %bb.30:                               # %cond.true117
	movq	$-32768, %rax           # imm = 0x8000
	jmp	.LBB132_32
.LBB132_31:                             # %cond.false118
	movq	-16(%rbp), %rax
.LBB132_32:                             # %cond.end119
.LBB132_33:                             # %cond.end121
	movw	%ax, -2(%rbp)
	movswq	-2(%rbp), %rax
	imulq	$13107, %rax, %rax      # imm = 0x3333
	addq	$16384, %rax            # imm = 0x4000
	sarq	$15, %rax
	movw	%ax, -2(%rbp)
	movswq	-2(%rbp), %rax
	movswq	-2(%rbp), %rcx
	addq	%rcx, %rax
	movq	%rax, -16(%rbp)
	subq	$-32768, %rax           # imm = 0x8000
	cmpq	$65535, %rax            # imm = 0xFFFF
	jbe	.LBB132_35
# %bb.34:                               # %cond.true135
	movl	$4294934528, %eax       # imm = 0xFFFF8000
	movl	$32767, %ecx            # imm = 0x7FFF
	movq	-16(%rbp), %rdx
	cmpq	$0, %rdx
	cmovgl	%ecx, %eax
	cltq
	jmp	.LBB132_36
.LBB132_35:                             # %cond.false140
	movq	-16(%rbp), %rax
.LBB132_36:                             # %cond.end141
	movq	-24(%rbp), %rcx
	movq	%rcx, %rdx
	addq	$2, %rdx
	movq	%rdx, -24(%rbp)
	movw	%ax, (%rcx)
	movq	-32(%rbp), %rax
	movq	%rax, %rcx
	addq	$2, %rcx
	movq	%rcx, -32(%rbp)
	movswq	(%rax), %rax
	addq	$-16, %rax
	movq	%rax, -16(%rbp)
	subq	$-32768, %rax           # imm = 0x8000
	cmpq	$65535, %rax            # imm = 0xFFFF
	jbe	.LBB132_38
# %bb.37:                               # %cond.true151
	movl	$4294934528, %eax       # imm = 0xFFFF8000
	movl	$32767, %ecx            # imm = 0x7FFF
	movq	-16(%rbp), %rdx
	cmpq	$0, %rdx
	cmovgl	%ecx, %eax
	cltq
	jmp	.LBB132_39
.LBB132_38:                             # %cond.false156
	movq	-16(%rbp), %rax
.LBB132_39:                             # %cond.end157
	shlq	$10, %rax
	movw	%ax, -2(%rbp)
	movswq	-2(%rbp), %rax
	subq	$-5120, %rax            # imm = 0xEC00
	movq	%rax, -16(%rbp)
	cmpq	$32767, %rax            # imm = 0x7FFF
	jl	.LBB132_41
# %bb.40:                               # %cond.true165
	movl	$32767, %eax            # imm = 0x7FFF
	jmp	.LBB132_45
.LBB132_41:                             # %cond.false166
	cmpq	$-32768, -16(%rbp)      # imm = 0x8000
	jg	.LBB132_43
# %bb.42:                               # %cond.true169
	movq	$-32768, %rax           # imm = 0x8000
	jmp	.LBB132_44
.LBB132_43:                             # %cond.false170
	movq	-16(%rbp), %rax
.LBB132_44:                             # %cond.end171
.LBB132_45:                             # %cond.end173
	movw	%ax, -2(%rbp)
	movswq	-2(%rbp), %rax
	imulq	$13107, %rax, %rax      # imm = 0x3333
	addq	$16384, %rax            # imm = 0x4000
	sarq	$15, %rax
	movw	%ax, -2(%rbp)
	movswq	-2(%rbp), %rax
	movswq	-2(%rbp), %rcx
	addq	%rcx, %rax
	movq	%rax, -16(%rbp)
	subq	$-32768, %rax           # imm = 0x8000
	cmpq	$65535, %rax            # imm = 0xFFFF
	jbe	.LBB132_47
# %bb.46:                               # %cond.true187
	movl	$4294934528, %eax       # imm = 0xFFFF8000
	movl	$32767, %ecx            # imm = 0x7FFF
	movq	-16(%rbp), %rdx
	cmpq	$0, %rdx
	cmovgl	%ecx, %eax
	cltq
	jmp	.LBB132_48
.LBB132_47:                             # %cond.false192
	movq	-16(%rbp), %rax
.LBB132_48:                             # %cond.end193
	movq	-24(%rbp), %rcx
	movq	%rcx, %rdx
	addq	$2, %rdx
	movq	%rdx, -24(%rbp)
	movw	%ax, (%rcx)
	movq	-32(%rbp), %rax
	movq	%rax, %rcx
	addq	$2, %rcx
	movq	%rcx, -32(%rbp)
	movswq	(%rax), %rax
	addq	$-8, %rax
	movq	%rax, -16(%rbp)
	subq	$-32768, %rax           # imm = 0x8000
	cmpq	$65535, %rax            # imm = 0xFFFF
	jbe	.LBB132_50
# %bb.49:                               # %cond.true203
	movl	$4294934528, %eax       # imm = 0xFFFF8000
	movl	$32767, %ecx            # imm = 0x7FFF
	movq	-16(%rbp), %rdx
	cmpq	$0, %rdx
	cmovgl	%ecx, %eax
	cltq
	jmp	.LBB132_51
.LBB132_50:                             # %cond.false208
	movq	-16(%rbp), %rax
.LBB132_51:                             # %cond.end209
	shlq	$10, %rax
	movw	%ax, -2(%rbp)
	movswq	-2(%rbp), %rax
	subq	$188, %rax
	movq	%rax, -16(%rbp)
	cmpq	$32767, %rax            # imm = 0x7FFF
	jl	.LBB132_53
# %bb.52:                               # %cond.true217
	movl	$32767, %eax            # imm = 0x7FFF
	jmp	.LBB132_57
.LBB132_53:                             # %cond.false218
	cmpq	$-32768, -16(%rbp)      # imm = 0x8000
	jg	.LBB132_55
# %bb.54:                               # %cond.true221
	movq	$-32768, %rax           # imm = 0x8000
	jmp	.LBB132_56
.LBB132_55:                             # %cond.false222
	movq	-16(%rbp), %rax
.LBB132_56:                             # %cond.end223
.LBB132_57:                             # %cond.end225
	movw	%ax, -2(%rbp)
	movswq	-2(%rbp), %rax
	imulq	$19223, %rax, %rax      # imm = 0x4B17
	addq	$16384, %rax            # imm = 0x4000
	sarq	$15, %rax
	movw	%ax, -2(%rbp)
	movswq	-2(%rbp), %rax
	movswq	-2(%rbp), %rcx
	addq	%rcx, %rax
	movq	%rax, -16(%rbp)
	subq	$-32768, %rax           # imm = 0x8000
	cmpq	$65535, %rax            # imm = 0xFFFF
	jbe	.LBB132_59
# %bb.58:                               # %cond.true239
	movl	$4294934528, %eax       # imm = 0xFFFF8000
	movl	$32767, %ecx            # imm = 0x7FFF
	movq	-16(%rbp), %rdx
	cmpq	$0, %rdx
	cmovgl	%ecx, %eax
	cltq
	jmp	.LBB132_60
.LBB132_59:                             # %cond.false244
	movq	-16(%rbp), %rax
.LBB132_60:                             # %cond.end245
	movq	-24(%rbp), %rcx
	movq	%rcx, %rdx
	addq	$2, %rdx
	movq	%rdx, -24(%rbp)
	movw	%ax, (%rcx)
	movq	-32(%rbp), %rax
	movq	%rax, %rcx
	addq	$2, %rcx
	movq	%rcx, -32(%rbp)
	movswq	(%rax), %rax
	addq	$-8, %rax
	movq	%rax, -16(%rbp)
	subq	$-32768, %rax           # imm = 0x8000
	cmpq	$65535, %rax            # imm = 0xFFFF
	jbe	.LBB132_62
# %bb.61:                               # %cond.true255
	movl	$4294934528, %eax       # imm = 0xFFFF8000
	movl	$32767, %ecx            # imm = 0x7FFF
	movq	-16(%rbp), %rdx
	cmpq	$0, %rdx
	cmovgl	%ecx, %eax
	cltq
	jmp	.LBB132_63
.LBB132_62:                             # %cond.false260
	movq	-16(%rbp), %rax
.LBB132_63:                             # %cond.end261
	shlq	$10, %rax
	movw	%ax, -2(%rbp)
	movswq	-2(%rbp), %rax
	subq	$-3584, %rax            # imm = 0xF200
	movq	%rax, -16(%rbp)
	cmpq	$32767, %rax            # imm = 0x7FFF
	jl	.LBB132_65
# %bb.64:                               # %cond.true269
	movl	$32767, %eax            # imm = 0x7FFF
	jmp	.LBB132_69
.LBB132_65:                             # %cond.false270
	cmpq	$-32768, -16(%rbp)      # imm = 0x8000
	jg	.LBB132_67
# %bb.66:                               # %cond.true273
	movq	$-32768, %rax           # imm = 0x8000
	jmp	.LBB132_68
.LBB132_67:                             # %cond.false274
	movq	-16(%rbp), %rax
.LBB132_68:                             # %cond.end275
.LBB132_69:                             # %cond.end277
	movw	%ax, -2(%rbp)
	movswq	-2(%rbp), %rax
	imulq	$17476, %rax, %rax      # imm = 0x4444
	addq	$16384, %rax            # imm = 0x4000
	sarq	$15, %rax
	movw	%ax, -2(%rbp)
	movswq	-2(%rbp), %rax
	movswq	-2(%rbp), %rcx
	addq	%rcx, %rax
	movq	%rax, -16(%rbp)
	subq	$-32768, %rax           # imm = 0x8000
	cmpq	$65535, %rax            # imm = 0xFFFF
	jbe	.LBB132_71
# %bb.70:                               # %cond.true291
	movl	$4294934528, %eax       # imm = 0xFFFF8000
	movl	$32767, %ecx            # imm = 0x7FFF
	movq	-16(%rbp), %rdx
	cmpq	$0, %rdx
	cmovgl	%ecx, %eax
	cltq
	jmp	.LBB132_72
.LBB132_71:                             # %cond.false296
	movq	-16(%rbp), %rax
.LBB132_72:                             # %cond.end297
	movq	-24(%rbp), %rcx
	movq	%rcx, %rdx
	addq	$2, %rdx
	movq	%rdx, -24(%rbp)
	movw	%ax, (%rcx)
	movq	-32(%rbp), %rax
	movq	%rax, %rcx
	addq	$2, %rcx
	movq	%rcx, -32(%rbp)
	movswq	(%rax), %rax
	addq	$-4, %rax
	movq	%rax, -16(%rbp)
	subq	$-32768, %rax           # imm = 0x8000
	cmpq	$65535, %rax            # imm = 0xFFFF
	jbe	.LBB132_74
# %bb.73:                               # %cond.true307
	movl	$4294934528, %eax       # imm = 0xFFFF8000
	movl	$32767, %ecx            # imm = 0x7FFF
	movq	-16(%rbp), %rdx
	cmpq	$0, %rdx
	cmovgl	%ecx, %eax
	cltq
	jmp	.LBB132_75
.LBB132_74:                             # %cond.false312
	movq	-16(%rbp), %rax
.LBB132_75:                             # %cond.end313
	shlq	$10, %rax
	movw	%ax, -2(%rbp)
	movswq	-2(%rbp), %rax
	subq	$-682, %rax             # imm = 0xFD56
	movq	%rax, -16(%rbp)
	cmpq	$32767, %rax            # imm = 0x7FFF
	jl	.LBB132_77
# %bb.76:                               # %cond.true321
	movl	$32767, %eax            # imm = 0x7FFF
	jmp	.LBB132_81
.LBB132_77:                             # %cond.false322
	cmpq	$-32768, -16(%rbp)      # imm = 0x8000
	jg	.LBB132_79
# %bb.78:                               # %cond.true325
	movq	$-32768, %rax           # imm = 0x8000
	jmp	.LBB132_80
.LBB132_79:                             # %cond.false326
	movq	-16(%rbp), %rax
.LBB132_80:                             # %cond.end327
.LBB132_81:                             # %cond.end329
	movw	%ax, -2(%rbp)
	movswq	-2(%rbp), %rax
	imulq	$31454, %rax, %rax      # imm = 0x7ADE
	addq	$16384, %rax            # imm = 0x4000
	sarq	$15, %rax
	movw	%ax, -2(%rbp)
	movswq	-2(%rbp), %rax
	movswq	-2(%rbp), %rcx
	addq	%rcx, %rax
	movq	%rax, -16(%rbp)
	subq	$-32768, %rax           # imm = 0x8000
	cmpq	$65535, %rax            # imm = 0xFFFF
	jbe	.LBB132_83
# %bb.82:                               # %cond.true343
	movl	$4294934528, %eax       # imm = 0xFFFF8000
	movl	$32767, %ecx            # imm = 0x7FFF
	movq	-16(%rbp), %rdx
	cmpq	$0, %rdx
	cmovgl	%ecx, %eax
	cltq
	jmp	.LBB132_84
.LBB132_83:                             # %cond.false348
	movq	-16(%rbp), %rax
.LBB132_84:                             # %cond.end349
	movq	-24(%rbp), %rcx
	movq	%rcx, %rdx
	addq	$2, %rdx
	movq	%rdx, -24(%rbp)
	movw	%ax, (%rcx)
	movq	-32(%rbp), %rax
	movq	%rax, %rcx
	addq	$2, %rcx
	movq	%rcx, -32(%rbp)
	movswq	(%rax), %rax
	addq	$-4, %rax
	movq	%rax, -16(%rbp)
	subq	$-32768, %rax           # imm = 0x8000
	cmpq	$65535, %rax            # imm = 0xFFFF
	jbe	.LBB132_86
# %bb.85:                               # %cond.true359
	movl	$4294934528, %eax       # imm = 0xFFFF8000
	movl	$32767, %ecx            # imm = 0x7FFF
	movq	-16(%rbp), %rdx
	cmpq	$0, %rdx
	cmovgl	%ecx, %eax
	cltq
	jmp	.LBB132_87
.LBB132_86:                             # %cond.false364
	movq	-16(%rbp), %rax
.LBB132_87:                             # %cond.end365
	shlq	$10, %rax
	movw	%ax, -2(%rbp)
	movswq	-2(%rbp), %rax
	subq	$-2288, %rax            # imm = 0xF710
	movq	%rax, -16(%rbp)
	cmpq	$32767, %rax            # imm = 0x7FFF
	jl	.LBB132_89
# %bb.88:                               # %cond.true373
	movl	$32767, %eax            # imm = 0x7FFF
	jmp	.LBB132_93
.LBB132_89:                             # %cond.false374
	cmpq	$-32768, -16(%rbp)      # imm = 0x8000
	jg	.LBB132_91
# %bb.90:                               # %cond.true377
	movq	$-32768, %rax           # imm = 0x8000
	jmp	.LBB132_92
.LBB132_91:                             # %cond.false378
	movq	-16(%rbp), %rax
.LBB132_92:                             # %cond.end379
.LBB132_93:                             # %cond.end381
	movw	%ax, -2(%rbp)
	movswq	-2(%rbp), %rax
	imulq	$29708, %rax, %rax      # imm = 0x740C
	addq	$16384, %rax            # imm = 0x4000
	sarq	$15, %rax
	movw	%ax, -2(%rbp)
	movswq	-2(%rbp), %rax
	movswq	-2(%rbp), %rcx
	addq	%rcx, %rax
	movq	%rax, -16(%rbp)
	subq	$-32768, %rax           # imm = 0x8000
	cmpq	$65535, %rax            # imm = 0xFFFF
	jbe	.LBB132_95
# %bb.94:                               # %cond.true395
	movl	$4294934528, %eax       # imm = 0xFFFF8000
	movl	$32767, %ecx            # imm = 0x7FFF
	movq	-16(%rbp), %rdx
	cmpq	$0, %rdx
	cmovgl	%ecx, %eax
	cltq
	jmp	.LBB132_96
.LBB132_95:                             # %cond.false400
	movq	-16(%rbp), %rax
.LBB132_96:                             # %cond.end401
	movq	-24(%rbp), %rcx
	movq	%rcx, %rdx
	addq	$2, %rdx
	movq	%rdx, -24(%rbp)
	movw	%ax, (%rcx)
	popq	%rbp
	retq
.Lfunc_end132:
	.size	Decoding_of_the_coded_Log_Area_Ratios, .Lfunc_end132-Decoding_of_the_coded_Log_Area_Ratios
	.cfi_endproc
                                        # -- End function
	.p2align	4, 0x90         # -- Begin function Coefficients_0_12
	.type	Coefficients_0_12,@function
Coefficients_0_12:                      # @Coefficients_0_12
	.cfi_startproc
# %bb.0:                                # %entry
	pushq	%rbp
	.cfi_def_cfa_offset 16
	.cfi_offset %rbp, -16
	movq	%rsp, %rbp
	.cfi_def_cfa_register %rbp
	pushq	%r15
	pushq	%r14
	pushq	%rbx
	subq	$72, %rsp
	.cfi_offset %rbx, -40
	.cfi_offset %r14, -32
	.cfi_offset %r15, -24
	movq	%rdx, %r14
	movq	%rsi, %r15
	movq	%rdi, %rbx
	movl	$222222233, -80(%rbp)   # imm = 0xD3ED799
	movl	$555555566, -76(%rbp)   # imm = 0x211D1AEE
	movl	$444444455, -72(%rbp)   # imm = 0x1A7DAF27
	movl	-80(%rbp), %edi
	movl	-76(%rbp), %esi
	movl	-72(%rbp), %edx
	callq	guardMe
	movl	$222222232, -68(%rbp)   # imm = 0xD3ED798
	movl	$555555565, -64(%rbp)   # imm = 0x211D1AED
	movl	$444444454, -60(%rbp)   # imm = 0x1A7DAF26
	movl	-68(%rbp), %edi
	movl	-64(%rbp), %esi
	movl	-60(%rbp), %edx
	callq	guardMe
	movq	%rbx, -56(%rbp)
	movq	%r15, -88(%rbp)
	movq	%r14, -48(%rbp)
	movl	$1, -28(%rbp)
.LBB133_1:                              # %for.cond
                                        # =>This Inner Loop Header: Depth=1
	cmpl	$8, -28(%rbp)
	jg	.LBB133_10
# %bb.2:                                # %for.body
                                        #   in Loop: Header=BB133_1 Depth=1
	movq	-56(%rbp), %rax
	movswl	(%rax), %eax
	sarl	$2, %eax
	cltq
	movq	-88(%rbp), %rcx
	movswl	(%rcx), %ecx
	sarl	$2, %ecx
	movslq	%ecx, %rcx
	addq	%rcx, %rax
	movq	%rax, -40(%rbp)
	subq	$-32768, %rax           # imm = 0x8000
	cmpq	$65535, %rax            # imm = 0xFFFF
	jbe	.LBB133_4
# %bb.3:                                # %cond.true
                                        #   in Loop: Header=BB133_1 Depth=1
	movl	$4294934528, %eax       # imm = 0xFFFF8000
	movl	$32767, %ecx            # imm = 0x7FFF
	movq	-40(%rbp), %rdx
	cmpq	$0, %rdx
	cmovgl	%ecx, %eax
	cltq
	jmp	.LBB133_5
.LBB133_4:                              # %cond.false
                                        #   in Loop: Header=BB133_1 Depth=1
	movq	-40(%rbp), %rax
.LBB133_5:                              # %cond.end
                                        #   in Loop: Header=BB133_1 Depth=1
	movq	-48(%rbp), %rcx
	movw	%ax, (%rcx)
	movq	-48(%rbp), %rax
	movswq	(%rax), %rax
	movq	-56(%rbp), %rcx
	movswl	(%rcx), %ecx
	sarl	$1, %ecx
	movslq	%ecx, %rcx
	addq	%rcx, %rax
	movq	%rax, -40(%rbp)
	subq	$-32768, %rax           # imm = 0x8000
	cmpq	$65535, %rax            # imm = 0xFFFF
	jbe	.LBB133_7
# %bb.6:                                # %cond.true20
                                        #   in Loop: Header=BB133_1 Depth=1
	movl	$4294934528, %eax       # imm = 0xFFFF8000
	movl	$32767, %ecx            # imm = 0x7FFF
	movq	-40(%rbp), %rdx
	cmpq	$0, %rdx
	cmovgl	%ecx, %eax
	cltq
	jmp	.LBB133_8
.LBB133_7:                              # %cond.false25
                                        #   in Loop: Header=BB133_1 Depth=1
	movq	-40(%rbp), %rax
.LBB133_8:                              # %cond.end26
                                        #   in Loop: Header=BB133_1 Depth=1
	movq	-48(%rbp), %rcx
	movw	%ax, (%rcx)
# %bb.9:                                # %for.inc
                                        #   in Loop: Header=BB133_1 Depth=1
	leaq	-88(%rbp), %rdi
	leaq	-56(%rbp), %rsi
	leaq	-48(%rbp), %rdx
	movl	-28(%rbp), %eax
	addl	$1, %eax
	movl	%eax, -28(%rbp)
	callq	Coefficients_0_120
	jmp	.LBB133_1
.LBB133_10:                             # %for.end
	addq	$72, %rsp
	popq	%rbx
	popq	%r14
	popq	%r15
	popq	%rbp
	retq
.Lfunc_end133:
	.size	Coefficients_0_12, .Lfunc_end133-Coefficients_0_12
	.cfi_endproc
                                        # -- End function
	.p2align	4, 0x90         # -- Begin function LARp_to_rp
	.type	LARp_to_rp,@function
LARp_to_rp:                             # @LARp_to_rp
	.cfi_startproc
# %bb.0:                                # %entry
	pushq	%rbp
	.cfi_def_cfa_offset 16
	.cfi_offset %rbp, -16
	movq	%rsp, %rbp
	.cfi_def_cfa_register %rbp
	pushq	%rbx
	subq	$56, %rsp
	.cfi_offset %rbx, -24
	movq	%rdi, %rbx
	movl	$222222236, -52(%rbp)   # imm = 0xD3ED79C
	movl	$555555569, -48(%rbp)   # imm = 0x211D1AF1
	movl	$444444458, -44(%rbp)   # imm = 0x1A7DAF2A
	movl	-52(%rbp), %edi
	movl	-48(%rbp), %esi
	movl	-44(%rbp), %edx
	callq	guardMe
	movq	%rbx, -24(%rbp)
	movl	$1, -28(%rbp)
.LBB134_1:                              # %for.cond
                                        # =>This Inner Loop Header: Depth=1
	cmpl	$8, -28(%rbp)
	jg	.LBB134_28
# %bb.2:                                # %for.body
                                        #   in Loop: Header=BB134_1 Depth=1
	movq	-24(%rbp), %rax
	movswl	(%rax), %eax
	cmpl	$0, %eax
	jge	.LBB134_16
# %bb.3:                                # %if.then
                                        #   in Loop: Header=BB134_1 Depth=1
	movq	-24(%rbp), %rax
	movswl	(%rax), %eax
	cmpl	$-32768, %eax           # imm = 0x8000
	jne	.LBB134_5
# %bb.4:                                # %cond.true
                                        #   in Loop: Header=BB134_1 Depth=1
	movl	$32767, %eax            # imm = 0x7FFF
	jmp	.LBB134_6
.LBB134_5:                              # %cond.false
                                        #   in Loop: Header=BB134_1 Depth=1
	xorl	%eax, %eax
	movq	-24(%rbp), %rcx
	movswl	(%rcx), %ecx
	subl	%ecx, %eax
.LBB134_6:                              # %cond.end
                                        #   in Loop: Header=BB134_1 Depth=1
	movw	%ax, -10(%rbp)
	movswl	-10(%rbp), %eax
	cmpl	$11059, %eax            # imm = 0x2B33
	jge	.LBB134_8
# %bb.7:                                # %cond.true11
                                        #   in Loop: Header=BB134_1 Depth=1
	movswl	-10(%rbp), %eax
	shll	$1, %eax
	cltq
	jmp	.LBB134_15
.LBB134_8:                              # %cond.false14
                                        #   in Loop: Header=BB134_1 Depth=1
	movswl	-10(%rbp), %eax
	cmpl	$20070, %eax            # imm = 0x4E66
	jge	.LBB134_10
# %bb.9:                                # %cond.true18
                                        #   in Loop: Header=BB134_1 Depth=1
	movswl	-10(%rbp), %eax
	addl	$11059, %eax            # imm = 0x2B33
	cltq
	jmp	.LBB134_14
.LBB134_10:                             # %cond.false21
                                        #   in Loop: Header=BB134_1 Depth=1
	movswl	-10(%rbp), %eax
	sarl	$2, %eax
	cltq
	addq	$26112, %rax            # imm = 0x6600
	movq	%rax, -40(%rbp)
	subq	$-32768, %rax           # imm = 0x8000
	cmpq	$65535, %rax            # imm = 0xFFFF
	jbe	.LBB134_12
# %bb.11:                               # %cond.true28
                                        #   in Loop: Header=BB134_1 Depth=1
	movl	$4294934528, %eax       # imm = 0xFFFF8000
	movl	$32767, %ecx            # imm = 0x7FFF
	movq	-40(%rbp), %rdx
	cmpq	$0, %rdx
	cmovgl	%ecx, %eax
	cltq
	jmp	.LBB134_13
.LBB134_12:                             # %cond.false33
                                        #   in Loop: Header=BB134_1 Depth=1
	movq	-40(%rbp), %rax
.LBB134_13:                             # %cond.end34
                                        #   in Loop: Header=BB134_1 Depth=1
.LBB134_14:                             # %cond.end36
                                        #   in Loop: Header=BB134_1 Depth=1
.LBB134_15:                             # %cond.end38
                                        #   in Loop: Header=BB134_1 Depth=1
	xorl	%ecx, %ecx
	subq	%rax, %rcx
	movq	-24(%rbp), %rax
	movw	%cx, (%rax)
	jmp	.LBB134_26
.LBB134_16:                             # %if.else
                                        #   in Loop: Header=BB134_1 Depth=1
	movq	-24(%rbp), %rax
	movw	(%rax), %ax
	movw	%ax, -10(%rbp)
	movswl	-10(%rbp), %eax
	cmpl	$11059, %eax            # imm = 0x2B33
	jge	.LBB134_18
# %bb.17:                               # %cond.true45
                                        #   in Loop: Header=BB134_1 Depth=1
	movswl	-10(%rbp), %eax
	shll	$1, %eax
	cltq
	jmp	.LBB134_25
.LBB134_18:                             # %cond.false49
                                        #   in Loop: Header=BB134_1 Depth=1
	movswl	-10(%rbp), %eax
	cmpl	$20070, %eax            # imm = 0x4E66
	jge	.LBB134_20
# %bb.19:                               # %cond.true53
                                        #   in Loop: Header=BB134_1 Depth=1
	movswl	-10(%rbp), %eax
	addl	$11059, %eax            # imm = 0x2B33
	cltq
	jmp	.LBB134_24
.LBB134_20:                             # %cond.false57
                                        #   in Loop: Header=BB134_1 Depth=1
	movswl	-10(%rbp), %eax
	sarl	$2, %eax
	cltq
	addq	$26112, %rax            # imm = 0x6600
	movq	%rax, -40(%rbp)
	subq	$-32768, %rax           # imm = 0x8000
	cmpq	$65535, %rax            # imm = 0xFFFF
	jbe	.LBB134_22
# %bb.21:                               # %cond.true65
                                        #   in Loop: Header=BB134_1 Depth=1
	movl	$4294934528, %eax       # imm = 0xFFFF8000
	movl	$32767, %ecx            # imm = 0x7FFF
	movq	-40(%rbp), %rdx
	cmpq	$0, %rdx
	cmovgl	%ecx, %eax
	cltq
	jmp	.LBB134_23
.LBB134_22:                             # %cond.false70
                                        #   in Loop: Header=BB134_1 Depth=1
	movq	-40(%rbp), %rax
.LBB134_23:                             # %cond.end71
                                        #   in Loop: Header=BB134_1 Depth=1
.LBB134_24:                             # %cond.end73
                                        #   in Loop: Header=BB134_1 Depth=1
.LBB134_25:                             # %cond.end75
                                        #   in Loop: Header=BB134_1 Depth=1
	movq	-24(%rbp), %rcx
	movw	%ax, (%rcx)
.LBB134_26:                             # %if.end
                                        #   in Loop: Header=BB134_1 Depth=1
	jmp	.LBB134_27
.LBB134_27:                             # %for.inc
                                        #   in Loop: Header=BB134_1 Depth=1
	leaq	-24(%rbp), %rdi
	movl	-28(%rbp), %eax
	addl	$1, %eax
	movl	%eax, -28(%rbp)
	callq	LARp_to_rp0
	jmp	.LBB134_1
.LBB134_28:                             # %for.end
	addq	$56, %rsp
	popq	%rbx
	popq	%rbp
	retq
.Lfunc_end134:
	.size	LARp_to_rp, .Lfunc_end134-LARp_to_rp
	.cfi_endproc
                                        # -- End function
	.p2align	4, 0x90         # -- Begin function Short_term_analysis_filtering
	.type	Short_term_analysis_filtering,@function
Short_term_analysis_filtering:          # @Short_term_analysis_filtering
	.cfi_startproc
# %bb.0:                                # %entry
	pushq	%rbp
	.cfi_def_cfa_offset 16
	.cfi_offset %rbp, -16
	movq	%rsp, %rbp
	.cfi_def_cfa_register %rbp
	subq	$64, %rsp
	leaq	-48(%rbp), %rax
	leaq	-64(%rbp), %r8
	movq	%rdi, -64(%rbp)
	movq	%rsi, -56(%rbp)
	movl	%edx, -28(%rbp)
	movq	%rcx, -40(%rbp)
	movq	%rax, %rdi
	movq	%r8, %rsi
	callq	Short_term_analysis_filtering0
.LBB135_1:                              # %for.cond
                                        # =>This Loop Header: Depth=1
                                        #     Child Loop BB135_3 Depth 2
	movl	-28(%rbp), %eax
	movl	%eax, %ecx
	addl	$-1, %ecx
	movl	%ecx, -28(%rbp)
	cmpl	$0, %eax
	je	.LBB135_14
# %bb.2:                                # %for.body
                                        #   in Loop: Header=BB135_1 Depth=1
	leaq	-8(%rbp), %rdi
	leaq	-2(%rbp), %rsi
	leaq	-12(%rbp), %rdx
	leaq	-40(%rbp), %rcx
	callq	Short_term_analysis_filtering1
.LBB135_3:                              # %for.cond2
                                        #   Parent Loop BB135_1 Depth=1
                                        # =>  This Inner Loop Header: Depth=2
	cmpl	$8, -8(%rbp)
	jge	.LBB135_12
# %bb.4:                                # %for.body3
                                        #   in Loop: Header=BB135_3 Depth=2
	movq	-48(%rbp), %rax
	movslq	-8(%rbp), %rcx
	movw	(%rax,%rcx,2), %ax
	movw	%ax, -14(%rbp)
	movq	-56(%rbp), %rax
	movslq	-8(%rbp), %rcx
	movw	(%rax,%rcx,2), %ax
	movw	%ax, -10(%rbp)
	movw	-12(%rbp), %ax
	movq	-48(%rbp), %rcx
	movslq	-8(%rbp), %rdx
	movw	%ax, (%rcx,%rdx,2)
	movswq	-10(%rbp), %rax
	movswq	-2(%rbp), %rcx
	imulq	%rcx, %rax
	addq	$16384, %rax            # imm = 0x4000
	sarq	$15, %rax
	movw	%ax, -4(%rbp)
	movswq	-14(%rbp), %rax
	movswq	-4(%rbp), %rcx
	addq	%rcx, %rax
	movq	%rax, -24(%rbp)
	subq	$-32768, %rax           # imm = 0x8000
	cmpq	$65535, %rax            # imm = 0xFFFF
	jbe	.LBB135_6
# %bb.5:                                # %cond.true
                                        #   in Loop: Header=BB135_3 Depth=2
	movl	$4294934528, %eax       # imm = 0xFFFF8000
	movl	$32767, %ecx            # imm = 0x7FFF
	movq	-24(%rbp), %rdx
	cmpq	$0, %rdx
	cmovgl	%ecx, %eax
	cltq
	jmp	.LBB135_7
.LBB135_6:                              # %cond.false
                                        #   in Loop: Header=BB135_3 Depth=2
	movq	-24(%rbp), %rax
.LBB135_7:                              # %cond.end
                                        #   in Loop: Header=BB135_3 Depth=2
	movw	%ax, -12(%rbp)
	movswq	-10(%rbp), %rax
	movswq	-14(%rbp), %rcx
	imulq	%rcx, %rax
	addq	$16384, %rax            # imm = 0x4000
	sarq	$15, %rax
	movw	%ax, -4(%rbp)
	movswq	-2(%rbp), %rax
	movswq	-4(%rbp), %rcx
	addq	%rcx, %rax
	movq	%rax, -24(%rbp)
	subq	$-32768, %rax           # imm = 0x8000
	cmpq	$65535, %rax            # imm = 0xFFFF
	jbe	.LBB135_9
# %bb.8:                                # %cond.true32
                                        #   in Loop: Header=BB135_3 Depth=2
	movl	$4294934528, %eax       # imm = 0xFFFF8000
	movl	$32767, %ecx            # imm = 0x7FFF
	movq	-24(%rbp), %rdx
	cmpq	$0, %rdx
	cmovgl	%ecx, %eax
	cltq
	jmp	.LBB135_10
.LBB135_9:                              # %cond.false37
                                        #   in Loop: Header=BB135_3 Depth=2
	movq	-24(%rbp), %rax
.LBB135_10:                             # %cond.end38
                                        #   in Loop: Header=BB135_3 Depth=2
	movw	%ax, -2(%rbp)
# %bb.11:                               # %for.inc
                                        #   in Loop: Header=BB135_3 Depth=2
	movl	-8(%rbp), %eax
	addl	$1, %eax
	movl	%eax, -8(%rbp)
	jmp	.LBB135_3
.LBB135_12:                             # %for.end
                                        #   in Loop: Header=BB135_1 Depth=1
	leaq	-40(%rbp), %rdi
	leaq	-2(%rbp), %rsi
	callq	Short_term_analysis_filtering2
# %bb.13:                               # %for.inc41
                                        #   in Loop: Header=BB135_1 Depth=1
	leaq	-40(%rbp), %rdi
	callq	Short_term_analysis_filtering3
	jmp	.LBB135_1
.LBB135_14:                             # %for.end42
	addq	$64, %rsp
	popq	%rbp
	retq
.Lfunc_end135:
	.size	Short_term_analysis_filtering, .Lfunc_end135-Short_term_analysis_filtering
	.cfi_endproc
                                        # -- End function
	.p2align	4, 0x90         # -- Begin function Coefficients_13_26
	.type	Coefficients_13_26,@function
Coefficients_13_26:                     # @Coefficients_13_26
	.cfi_startproc
# %bb.0:                                # %entry
	pushq	%rbp
	.cfi_def_cfa_offset 16
	.cfi_offset %rbp, -16
	movq	%rsp, %rbp
	.cfi_def_cfa_register %rbp
	subq	$48, %rsp
	movq	%rdi, -40(%rbp)
	movq	%rsi, -32(%rbp)
	movq	%rdx, -24(%rbp)
	movl	$1, -4(%rbp)
.LBB136_1:                              # %for.cond
                                        # =>This Inner Loop Header: Depth=1
	cmpl	$8, -4(%rbp)
	jg	.LBB136_7
# %bb.2:                                # %for.body
                                        #   in Loop: Header=BB136_1 Depth=1
	movq	-40(%rbp), %rax
	movswl	(%rax), %eax
	sarl	$1, %eax
	cltq
	movq	-32(%rbp), %rcx
	movswl	(%rcx), %ecx
	sarl	$1, %ecx
	movslq	%ecx, %rcx
	addq	%rcx, %rax
	movq	%rax, -16(%rbp)
	subq	$-32768, %rax           # imm = 0x8000
	cmpq	$65535, %rax            # imm = 0xFFFF
	jbe	.LBB136_4
# %bb.3:                                # %cond.true
                                        #   in Loop: Header=BB136_1 Depth=1
	movl	$4294934528, %eax       # imm = 0xFFFF8000
	movl	$32767, %ecx            # imm = 0x7FFF
	movq	-16(%rbp), %rdx
	cmpq	$0, %rdx
	cmovgl	%ecx, %eax
	cltq
	jmp	.LBB136_5
.LBB136_4:                              # %cond.false
                                        #   in Loop: Header=BB136_1 Depth=1
	movq	-16(%rbp), %rax
.LBB136_5:                              # %cond.end
                                        #   in Loop: Header=BB136_1 Depth=1
	movq	-24(%rbp), %rcx
	movw	%ax, (%rcx)
# %bb.6:                                # %for.inc
                                        #   in Loop: Header=BB136_1 Depth=1
	leaq	-24(%rbp), %rdi
	leaq	-32(%rbp), %rsi
	leaq	-40(%rbp), %rdx
	movl	-4(%rbp), %eax
	addl	$1, %eax
	movl	%eax, -4(%rbp)
	callq	Coefficients_13_260
	jmp	.LBB136_1
.LBB136_7:                              # %for.end
	addq	$48, %rsp
	popq	%rbp
	retq
.Lfunc_end136:
	.size	Coefficients_13_26, .Lfunc_end136-Coefficients_13_26
	.cfi_endproc
                                        # -- End function
	.p2align	4, 0x90         # -- Begin function Coefficients_27_39
	.type	Coefficients_27_39,@function
Coefficients_27_39:                     # @Coefficients_27_39
	.cfi_startproc
# %bb.0:                                # %entry
	pushq	%rbp
	.cfi_def_cfa_offset 16
	.cfi_offset %rbp, -16
	movq	%rsp, %rbp
	.cfi_def_cfa_register %rbp
	subq	$48, %rsp
	movq	%rdi, -40(%rbp)
	movq	%rsi, -32(%rbp)
	movq	%rdx, -24(%rbp)
	movl	$1, -4(%rbp)
.LBB137_1:                              # %for.cond
                                        # =>This Inner Loop Header: Depth=1
	cmpl	$8, -4(%rbp)
	jg	.LBB137_10
# %bb.2:                                # %for.body
                                        #   in Loop: Header=BB137_1 Depth=1
	movq	-40(%rbp), %rax
	movswl	(%rax), %eax
	sarl	$2, %eax
	cltq
