	.text
	.file	"llvm-link"
	.globl	erase                   # -- Begin function erase
	.p2align	4, 0x90
	.type	erase,@function
erase:                                  # @erase
	.cfi_startproc
# %bb.0:                                # %entry
	pushq	%rbp
	.cfi_def_cfa_offset 16
	.cfi_offset %rbp, -16
	movq	%rsp, %rbp
	.cfi_def_cfa_register %rbp
	subq	$32, %rsp
	movl	$222222222, -24(%rbp)   # imm = 0xD3ED78E
	movl	$555555555, -20(%rbp)   # imm = 0x211D1AE3
	movl	$444444444, -16(%rbp)   # imm = 0x1A7DAF1C
	movl	$222222222, %edi        # imm = 0xD3ED78E
	movl	$555555555, %esi        # imm = 0x211D1AE3
	movl	$444444444, %edx        # imm = 0x1A7DAF1C
	callq	guardMe
	movl	$222222223, -12(%rbp)   # imm = 0xD3ED78F
	movl	$555555556, -8(%rbp)    # imm = 0x211D1AE4
	movl	$444444445, -4(%rbp)    # imm = 0x1A7DAF1D
	movl	$222222223, %edi        # imm = 0xD3ED78F
	movl	$555555556, %esi        # imm = 0x211D1AE4
	movl	$444444445, %edx        # imm = 0x1A7DAF1D
	callq	guardMe
	addq	$32, %rsp
	popq	%rbp
	retq
.Lfunc_end0:
	.size	erase, .Lfunc_end0-erase
	.cfi_endproc
                                        # -- End function
	.globl	move                    # -- Begin function move
	.p2align	4, 0x90
	.type	move,@function
move:                                   # @move
	.cfi_startproc
# %bb.0:                                # %entry
	pushq	%rbp
	.cfi_def_cfa_offset 16
	.cfi_offset %rbp, -16
	movq	%rsp, %rbp
	.cfi_def_cfa_register %rbp
	pushq	%r14
	pushq	%rbx
	subq	$32, %rsp
	.cfi_offset %rbx, -32
	.cfi_offset %r14, -24
	movl	%esi, %r14d
	movl	%edi, %ebx
	movl	$222222234, -44(%rbp)   # imm = 0xD3ED79A
	movl	$555555567, -40(%rbp)   # imm = 0x211D1AEF
	movl	$444444456, -36(%rbp)   # imm = 0x1A7DAF28
	movl	$222222234, %edi        # imm = 0xD3ED79A
	movl	$555555567, %esi        # imm = 0x211D1AEF
	movl	$444444456, %edx        # imm = 0x1A7DAF28
	callq	guardMe
	movl	$222222233, -32(%rbp)   # imm = 0xD3ED799
	movl	$555555566, -28(%rbp)   # imm = 0x211D1AEE
	movl	$444444455, -24(%rbp)   # imm = 0x1A7DAF27
	movl	$222222233, %edi        # imm = 0xD3ED799
	movl	$555555566, %esi        # imm = 0x211D1AEE
	movl	$444444455, %edx        # imm = 0x1A7DAF27
	callq	guardMe
	movl	%ebx, -48(%rbp)
	movl	%r14d, -20(%rbp)
	addq	$32, %rsp
	popq	%rbx
	popq	%r14
	popq	%rbp
	retq
.Lfunc_end1:
	.size	move, .Lfunc_end1-move
	.cfi_endproc
                                        # -- End function
	.globl	inverse                 # -- Begin function inverse
	.p2align	4, 0x90
	.type	inverse,@function
inverse:                                # @inverse
	.cfi_startproc
# %bb.0:                                # %entry
	pushq	%rbp
	.cfi_def_cfa_offset 16
	.cfi_offset %rbp, -16
	movq	%rsp, %rbp
	.cfi_def_cfa_register %rbp
	subq	$48, %rsp
	movl	$222222235, -36(%rbp)   # imm = 0xD3ED79B
	movl	$555555568, -32(%rbp)   # imm = 0x211D1AF0
	movl	$444444457, -28(%rbp)   # imm = 0x1A7DAF29
	movl	$222222235, %edi        # imm = 0xD3ED79B
	movl	$555555568, %esi        # imm = 0x211D1AF0
	movl	$444444457, %edx        # imm = 0x1A7DAF29
	callq	guardMe
	movl	$222222236, -24(%rbp)   # imm = 0xD3ED79C
	movl	$555555569, -20(%rbp)   # imm = 0x211D1AF1
	movl	$444444458, -16(%rbp)   # imm = 0x1A7DAF2A
	movl	$222222236, %edi        # imm = 0xD3ED79C
	movl	$555555569, %esi        # imm = 0x211D1AF1
	movl	$444444458, %edx        # imm = 0x1A7DAF2A
	callq	guardMe
	movl	$222222237, -12(%rbp)   # imm = 0xD3ED79D
	movl	$555555570, -8(%rbp)    # imm = 0x211D1AF2
	movl	$444444459, -4(%rbp)    # imm = 0x1A7DAF2B
	movl	$222222237, %edi        # imm = 0xD3ED79D
	movl	$555555570, %esi        # imm = 0x211D1AF2
	movl	$444444459, %edx        # imm = 0x1A7DAF2B
	callq	guardMe
	addq	$48, %rsp
	popq	%rbp
	retq
.Lfunc_end2:
	.size	inverse, .Lfunc_end2-inverse
	.cfi_endproc
                                        # -- End function
	.globl	normal                  # -- Begin function normal
	.p2align	4, 0x90
	.type	normal,@function
normal:                                 # @normal
	.cfi_startproc
# %bb.0:                                # %entry
	pushq	%rbp
	.cfi_def_cfa_offset 16
	.cfi_offset %rbp, -16
	movq	%rsp, %rbp
	.cfi_def_cfa_register %rbp
	subq	$80, %rsp
	movl	$222222238, -72(%rbp)   # imm = 0xD3ED79E
	movl	$555555571, -68(%rbp)   # imm = 0x211D1AF3
	movl	$444444460, -64(%rbp)   # imm = 0x1A7DAF2C
	movl	$222222238, %edi        # imm = 0xD3ED79E
	movl	$555555571, %esi        # imm = 0x211D1AF3
	movl	$444444460, %edx        # imm = 0x1A7DAF2C
	callq	guardMe
	movl	$222222239, -60(%rbp)   # imm = 0xD3ED79F
	movl	$555555572, -56(%rbp)   # imm = 0x211D1AF4
	movl	$444444461, -52(%rbp)   # imm = 0x1A7DAF2D
	movl	$222222239, %edi        # imm = 0xD3ED79F
	movl	$555555572, %esi        # imm = 0x211D1AF4
	movl	$444444461, %edx        # imm = 0x1A7DAF2D
	callq	guardMe
	movl	$222222240, -48(%rbp)   # imm = 0xD3ED7A0
	movl	$555555573, -44(%rbp)   # imm = 0x211D1AF5
	movl	$444444462, -40(%rbp)   # imm = 0x1A7DAF2E
	movl	$222222240, %edi        # imm = 0xD3ED7A0
	movl	$555555573, %esi        # imm = 0x211D1AF5
	movl	$444444462, %edx        # imm = 0x1A7DAF2E
	callq	guardMe
	movl	$222222241, -36(%rbp)   # imm = 0xD3ED7A1
	movl	$555555574, -32(%rbp)   # imm = 0x211D1AF6
	movl	$444444463, -28(%rbp)   # imm = 0x1A7DAF2F
	movl	$222222241, %edi        # imm = 0xD3ED7A1
	movl	$555555574, %esi        # imm = 0x211D1AF6
	movl	$444444463, %edx        # imm = 0x1A7DAF2F
	callq	guardMe
	movl	$222222242, -24(%rbp)   # imm = 0xD3ED7A2
	movl	$555555575, -20(%rbp)   # imm = 0x211D1AF7
	movl	$444444464, -16(%rbp)   # imm = 0x1A7DAF30
	movl	$222222242, %edi        # imm = 0xD3ED7A2
	movl	$555555575, %esi        # imm = 0x211D1AF7
	movl	$444444464, %edx        # imm = 0x1A7DAF30
	callq	guardMe
	movl	$222222243, -12(%rbp)   # imm = 0xD3ED7A3
	movl	$555555576, -8(%rbp)    # imm = 0x211D1AF8
	movl	$444444465, -4(%rbp)    # imm = 0x1A7DAF31
	movl	$222222243, %edi        # imm = 0xD3ED7A3
	movl	$555555576, %esi        # imm = 0x211D1AF8
	movl	$444444465, %edx        # imm = 0x1A7DAF31
	callq	guardMe
	addq	$80, %rsp
	popq	%rbp
	retq
.Lfunc_end3:
	.size	normal, .Lfunc_end3-normal
	.cfi_endproc
                                        # -- End function
	.globl	backup                  # -- Begin function backup
	.p2align	4, 0x90
	.type	backup,@function
backup:                                 # @backup
	.cfi_startproc
# %bb.0:                                # %entry
	pushq	%rbp
	.cfi_def_cfa_offset 16
	.cfi_offset %rbp, -16
	movq	%rsp, %rbp
	.cfi_def_cfa_register %rbp
	subq	$48, %rsp
	movl	$222222244, -36(%rbp)   # imm = 0xD3ED7A4
	movl	$555555577, -32(%rbp)   # imm = 0x211D1AF9
	movl	$444444466, -28(%rbp)   # imm = 0x1A7DAF32
	movl	$222222244, %edi        # imm = 0xD3ED7A4
	movl	$555555577, %esi        # imm = 0x211D1AF9
	movl	$444444466, %edx        # imm = 0x1A7DAF32
	callq	guardMe
	movl	$222222245, -24(%rbp)   # imm = 0xD3ED7A5
	movl	$555555578, -20(%rbp)   # imm = 0x211D1AFA
	movl	$444444467, -16(%rbp)   # imm = 0x1A7DAF33
	movl	$222222245, %edi        # imm = 0xD3ED7A5
	movl	$555555578, %esi        # imm = 0x211D1AFA
	movl	$444444467, %edx        # imm = 0x1A7DAF33
	callq	guardMe
	movl	$222222246, -12(%rbp)   # imm = 0xD3ED7A6
	movl	$555555579, -8(%rbp)    # imm = 0x211D1AFB
	movl	$444444468, -4(%rbp)    # imm = 0x1A7DAF34
	movl	$222222246, %edi        # imm = 0xD3ED7A6
	movl	$555555579, %esi        # imm = 0x211D1AFB
	movl	$444444468, %edx        # imm = 0x1A7DAF34
	callq	guardMe
	addq	$48, %rsp
	popq	%rbp
	retq
.Lfunc_end4:
	.size	backup, .Lfunc_end4-backup
	.cfi_endproc
                                        # -- End function
	.globl	terminit                # -- Begin function terminit
	.p2align	4, 0x90
	.type	terminit,@function
terminit:                               # @terminit
	.cfi_startproc
# %bb.0:                                # %entry
	pushq	%rbp
	.cfi_def_cfa_offset 16
	.cfi_offset %rbp, -16
	movq	%rsp, %rbp
	.cfi_def_cfa_register %rbp
	pushq	%rbx
	subq	$40, %rsp
	.cfi_offset %rbx, -24
	movl	$.L.str, %edi
	callq	getenv
	movq	%rax, %rbx
	movl	$222222249, -44(%rbp)   # imm = 0xD3ED7A9
	movl	$555555582, -40(%rbp)   # imm = 0x211D1AFE
	movl	$444444471, -36(%rbp)   # imm = 0x1A7DAF37
	movl	$222222249, %edi        # imm = 0xD3ED7A9
	movl	$555555582, %esi        # imm = 0x211D1AFE
	movl	$444444471, %edx        # imm = 0x1A7DAF37
	callq	guardMe
	movl	$222222248, -32(%rbp)   # imm = 0xD3ED7A8
	movl	$555555581, -28(%rbp)   # imm = 0x211D1AFD
	movl	$444444470, -24(%rbp)   # imm = 0x1A7DAF36
	movl	$222222248, %edi        # imm = 0xD3ED7A8
	movl	$555555581, %esi        # imm = 0x211D1AFD
	movl	$444444470, %edx        # imm = 0x1A7DAF36
	callq	guardMe
	movl	$222222247, -20(%rbp)   # imm = 0xD3ED7A7
	movl	$555555580, -16(%rbp)   # imm = 0x211D1AFC
	movl	$444444469, -12(%rbp)   # imm = 0x1A7DAF35
	movl	$222222247, %edi        # imm = 0xD3ED7A7
	movl	$555555580, %esi        # imm = 0x211D1AFC
	movl	$444444469, %edx        # imm = 0x1A7DAF35
	callq	guardMe
	testq	%rbx, %rbx
	je	.LBB5_2
# %bb.1:                                # %if.then
	callq	terminit0
.LBB5_2:                                # %if.end
	movl	$.L.str.1, %edi
	callq	getenv
	testq	%rax, %rax
	je	.LBB5_4
# %bb.3:                                # %if.then5
	callq	terminit1
.LBB5_4:                                # %if.end8
	cmpl	$0, contextsize(%rip)
	je	.LBB5_5
# %bb.6:                                # %if.end11
	cmpl	$11, contextsize(%rip)
	jl	.LBB5_8
.LBB5_7:                                # %if.then13
	movl	$10, contextsize(%rip)
	jmp	.LBB5_10
.LBB5_5:                                # %if.then10
	callq	terminit2
	cmpl	$11, contextsize(%rip)
	jge	.LBB5_7
.LBB5_8:                                # %if.else
	cmpl	$1, contextsize(%rip)
	jg	.LBB5_10
# %bb.9:                                # %if.then15
	movl	$2, contextsize(%rip)
.LBB5_10:                               # %if.end17
	movl	contextsize(%rip), %eax
	addl	$8, %eax
	cmpl	%eax, li(%rip)
	jge	.LBB5_14
# %bb.11:                               # %land.lhs.true
	cmpl	$3, contextsize(%rip)
	jl	.LBB5_14
# %bb.12:                               # %if.then20
	movl	li(%rip), %eax
	addl	$-8, %eax
	movl	%eax, contextsize(%rip)
	cmpl	$1, %eax
	jg	.LBB5_14
# %bb.13:                               # %if.then22
	movl	$2, contextsize(%rip)
.LBB5_14:                               # %if.end24
	cmpl	$9, li(%rip)
	jg	.LBB5_16
# %bb.15:                               # %if.then26
	callq	terminit3
.LBB5_16:                               # %if.end28
	xorl	%edi, %edi
	xorl	%eax, %eax
	callq	isatty
	testl	%eax, %eax
	je	.LBB5_28
# %bb.17:                               # %if.end32
	xorl	%edi, %edi
	movl	$osbuf, %esi
	callq	tcgetattr
	movups	osbuf(%rip), %xmm0
	movups	%xmm0, sbuf(%rip)
	movups	osbuf+16(%rip), %xmm0
	movups	%xmm0, sbuf+16(%rip)
	movups	osbuf+32(%rip), %xmm0
	movups	%xmm0, sbuf+32(%rip)
	movl	$1, termchanged(%rip)
	movups	osbuf+44(%rip), %xmm0
	movups	%xmm0, sbuf+44(%rip)
	callq	terminit5
	movw	$257, sbuf+22(%rip)     # imm = 0x101
	xorl	%edi, %edi
	xorl	%esi, %esi
	movl	$sbuf, %edx
	callq	tcsetattr
	movzbl	osbuf+19(%rip), %eax
	movl	%eax, uerasechar(%rip)
	movzbl	osbuf+20(%rip), %eax
	movl	%eax, ukillchar(%rip)
	movl	$2, %edi
	movl	$1, %esi
	callq	signal
	movq	%rax, oldint(%rip)
	cmpq	$1, %rax
	je	.LBB5_19
# %bb.18:                               # %if.then41
	movl	$2, %edi
	movl	$done, %esi
	callq	signal
.LBB5_19:                               # %if.end43
	movl	$15, %edi
	movl	$1, %esi
	callq	signal
	movq	%rax, oldterm(%rip)
	cmpq	$1, %rax
	je	.LBB5_21
# %bb.20:                               # %if.then47
	movl	$15, %edi
	movl	$done, %esi
	callq	signal
.LBB5_21:                               # %if.end49
	movl	$21, %edi
	movl	$1, %esi
	callq	signal
	movq	%rax, oldttin(%rip)
	cmpq	$1, %rax
	je	.LBB5_23
# %bb.22:                               # %if.then53
	movl	$21, %edi
	movl	$onstop, %esi
	callq	signal
.LBB5_23:                               # %if.end55
	movl	$22, %edi
	movl	$1, %esi
	callq	signal
	movq	%rax, oldttou(%rip)
	cmpq	$1, %rax
	je	.LBB5_25
# %bb.24:                               # %if.then59
	movl	$22, %edi
	movl	$onstop, %esi
	callq	signal
.LBB5_25:                               # %if.end61
	movl	$20, %edi
	movl	$1, %esi
	callq	signal
	movq	%rax, oldtstp(%rip)
	cmpq	$1, %rax
	je	.LBB5_27
# %bb.26:                               # %if.then65
	movl	$20, %edi
	movl	$onstop, %esi
	callq	signal
.LBB5_27:                               # %if.end67
	addq	$40, %rsp
	popq	%rbx
	popq	%rbp
	retq
.LBB5_28:                               # %if.then30
	callq	terminit4
.Lfunc_end5:
	.size	terminit, .Lfunc_end5-terminit
	.cfi_endproc
                                        # -- End function
	.globl	terminit0               # -- Begin function terminit0
	.p2align	4, 0x90
	.type	terminit0,@function
terminit0:                              # @terminit0
	.cfi_startproc
# %bb.0:                                # %entry
	pushq	%rax
	.cfi_def_cfa_offset 16
	movl	$.L.str, %edi
	callq	getenv
	movq	%rax, %rdi
	callq	atoi
	movl	%eax, co(%rip)
	popq	%rax
	retq
.Lfunc_end6:
	.size	terminit0, .Lfunc_end6-terminit0
	.cfi_endproc
                                        # -- End function
	.globl	terminit1               # -- Begin function terminit1
	.p2align	4, 0x90
	.type	terminit1,@function
terminit1:                              # @terminit1
	.cfi_startproc
# %bb.0:                                # %entry
	pushq	%rax
	.cfi_def_cfa_offset 16
	movl	$.L.str.1, %edi
	callq	getenv
	movq	%rax, %rdi
	callq	atoi
	movl	%eax, li(%rip)
	popq	%rax
	retq
.Lfunc_end7:
	.size	terminit1, .Lfunc_end7-terminit1
	.cfi_endproc
                                        # -- End function
	.globl	terminit2               # -- Begin function terminit2
	.p2align	4, 0x90
	.type	terminit2,@function
terminit2:                              # @terminit2
	.cfi_startproc
# %bb.0:                                # %entry
	movl	li(%rip), %eax
	addl	%eax, %eax
	leal	(%rax,%rax,4), %eax
	cltq
	imulq	$1374389535, %rax, %rax # imm = 0x51EB851F
	movq	%rax, %rcx
	shrq	$63, %rcx
	sarq	$37, %rax
	addl	%ecx, %eax
	movl	%eax, contextsize(%rip)
	retq
.Lfunc_end8:
	.size	terminit2, .Lfunc_end8-terminit2
	.cfi_endproc
                                        # -- End function
	.globl	terminit3               # -- Begin function terminit3
	.p2align	4, 0x90
	.type	terminit3,@function
terminit3:                              # @terminit3
	.cfi_startproc
# %bb.0:                                # %entry
	pushq	%rax
	.cfi_def_cfa_offset 16
	movq	stderr(%rip), %rdi
	movl	$.L.str.2, %esi
	movl	$10, %edx
	xorl	%eax, %eax
	callq	fprintf
	popq	%rax
	retq
.Lfunc_end9:
	.size	terminit3, .Lfunc_end9-terminit3
	.cfi_endproc
                                        # -- End function
	.globl	terminit4               # -- Begin function terminit4
	.p2align	4, 0x90
	.type	terminit4,@function
terminit4:                              # @terminit4
	.cfi_startproc
# %bb.0:                                # %entry
	pushq	%rax
	.cfi_def_cfa_offset 16
	movq	stderr(%rip), %rdi
	movl	$.L.str.3, %esi
	xorl	%eax, %eax
	callq	fprintf
	movl	$1, %edi
	callq	exit
	popq	%rax
	retq
.Lfunc_end10:
	.size	terminit4, .Lfunc_end10-terminit4
	.cfi_endproc
                                        # -- End function
	.globl	terminit5               # -- Begin function terminit5
	.p2align	4, 0x90
	.type	terminit5,@function
terminit5:                              # @terminit5
	.cfi_startproc
# %bb.0:                                # %entry
	andb	$-107, sbuf+12(%rip)
	andb	$-2, sbuf+4(%rip)
	andl	$-449, sbuf(%rip)       # imm = 0xFE3F
	retq
.Lfunc_end11:
	.size	terminit5, .Lfunc_end11-terminit5
	.cfi_endproc
                                        # -- End function
	.globl	done                    # -- Begin function done
	.p2align	4, 0x90
	.type	done,@function
done:                                   # @done
	.cfi_startproc
# %bb.0:                                # %entry
	pushq	%rbp
	.cfi_def_cfa_offset 16
	.cfi_offset %rbp, -16
	movq	%rsp, %rbp
	.cfi_def_cfa_register %rbp
	pushq	%rbx
	subq	$56, %rsp
	.cfi_offset %rbx, -24
	movl	%edi, %ebx
	movl	$222222253, -56(%rbp)   # imm = 0xD3ED7AD
	movl	$555555586, -52(%rbp)   # imm = 0x211D1B02
	movl	$444444475, -48(%rbp)   # imm = 0x1A7DAF3B
	movl	$222222253, %edi        # imm = 0xD3ED7AD
	movl	$555555586, %esi        # imm = 0x211D1B02
	movl	$444444475, %edx        # imm = 0x1A7DAF3B
	callq	guardMe
	movl	$222222252, -44(%rbp)   # imm = 0xD3ED7AC
	movl	$555555585, -40(%rbp)   # imm = 0x211D1B01
	movl	$444444474, -36(%rbp)   # imm = 0x1A7DAF3A
	movl	$222222252, %edi        # imm = 0xD3ED7AC
	movl	$555555585, %esi        # imm = 0x211D1B01
	movl	$444444474, %edx        # imm = 0x1A7DAF3A
	callq	guardMe
	movl	$222222251, -32(%rbp)   # imm = 0xD3ED7AB
	movl	$555555584, -28(%rbp)   # imm = 0x211D1B00
	movl	$444444473, -24(%rbp)   # imm = 0x1A7DAF39
	movl	$222222251, %edi        # imm = 0xD3ED7AB
	movl	$555555584, %esi        # imm = 0x211D1B00
	movl	$444444473, %edx        # imm = 0x1A7DAF39
	callq	guardMe
	movl	$222222250, -20(%rbp)   # imm = 0xD3ED7AA
	movl	$555555583, -16(%rbp)   # imm = 0x211D1AFF
	movl	$444444472, -12(%rbp)   # imm = 0x1A7DAF38
	movl	$222222250, %edi        # imm = 0xD3ED7AA
	movl	$555555583, %esi        # imm = 0x211D1AFF
	movl	$444444472, %edx        # imm = 0x1A7DAF38
	callq	guardMe
	movl	%ebx, -60(%rbp)
	cmpb	$0, tempfile(%rip)
	je	.LBB12_2
# %bb.1:                                # %if.then
	movl	$tempfile, %edi
	xorl	%eax, %eax
	callq	unlink
.LBB12_2:                               # %if.end3
	xorl	%edi, %edi
	callq	exit
.Lfunc_end12:
	.size	done, .Lfunc_end12-done
	.cfi_endproc
                                        # -- End function
	.p2align	4, 0x90         # -- Begin function onstop
	.type	onstop,@function
onstop:                                 # @onstop
	.cfi_startproc
# %bb.0:                                # %entry
	pushq	%rbp
	.cfi_def_cfa_offset 16
	.cfi_offset %rbp, -16
	movq	%rsp, %rbp
	.cfi_def_cfa_register %rbp
	pushq	%rbx
	subq	$88, %rsp
	.cfi_offset %rbx, -24
	movl	%edi, %ebx
	movl	$222222259, -84(%rbp)   # imm = 0xD3ED7B3
	movl	$555555592, -80(%rbp)   # imm = 0x211D1B08
	movl	$444444481, -76(%rbp)   # imm = 0x1A7DAF41
	movl	$222222259, %edi        # imm = 0xD3ED7B3
	movl	$555555592, %esi        # imm = 0x211D1B08
	movl	$444444481, %edx        # imm = 0x1A7DAF41
	callq	guardMe
	movl	$222222258, -72(%rbp)   # imm = 0xD3ED7B2
	movl	$555555591, -68(%rbp)   # imm = 0x211D1B07
	movl	$444444480, -64(%rbp)   # imm = 0x1A7DAF40
	movl	$222222258, %edi        # imm = 0xD3ED7B2
	movl	$555555591, %esi        # imm = 0x211D1B07
	movl	$444444480, %edx        # imm = 0x1A7DAF40
	callq	guardMe
	movl	$222222257, -60(%rbp)   # imm = 0xD3ED7B1
	movl	$555555590, -56(%rbp)   # imm = 0x211D1B06
	movl	$444444479, -52(%rbp)   # imm = 0x1A7DAF3F
	movl	$222222257, %edi        # imm = 0xD3ED7B1
	movl	$555555590, %esi        # imm = 0x211D1B06
	movl	$444444479, %edx        # imm = 0x1A7DAF3F
	callq	guardMe
	movl	$222222256, -48(%rbp)   # imm = 0xD3ED7B0
	movl	$555555589, -44(%rbp)   # imm = 0x211D1B05
	movl	$444444478, -40(%rbp)   # imm = 0x1A7DAF3E
	movl	$222222256, %edi        # imm = 0xD3ED7B0
	movl	$555555589, %esi        # imm = 0x211D1B05
	movl	$444444478, %edx        # imm = 0x1A7DAF3E
	callq	guardMe
	movl	$222222255, -36(%rbp)   # imm = 0xD3ED7AF
	movl	$555555588, -32(%rbp)   # imm = 0x211D1B04
	movl	$444444477, -28(%rbp)   # imm = 0x1A7DAF3D
	movl	$222222255, %edi        # imm = 0xD3ED7AF
	movl	$555555588, %esi        # imm = 0x211D1B04
	movl	$444444477, %edx        # imm = 0x1A7DAF3D
	callq	guardMe
	movl	$222222254, -24(%rbp)   # imm = 0xD3ED7AE
	movl	$555555587, -20(%rbp)   # imm = 0x211D1B03
	movl	$444444476, -16(%rbp)   # imm = 0x1A7DAF3C
	movl	$222222254, %edi        # imm = 0xD3ED7AE
	movl	$555555587, %esi        # imm = 0x211D1B03
	movl	$444444476, %edx        # imm = 0x1A7DAF3C
	callq	guardMe
	movl	%ebx, -12(%rbp)
	leaq	-12(%rbp), %rdi
	callq	onstop0
	addq	$88, %rsp
	popq	%rbx
	popq	%rbp
	retq
.Lfunc_end13:
	.size	onstop, .Lfunc_end13-onstop
	.cfi_endproc
                                        # -- End function
	.globl	onstop0                 # -- Begin function onstop0
	.p2align	4, 0x90
	.type	onstop0,@function
onstop0:                                # @onstop0
	.cfi_startproc
# %bb.0:                                # %entry
	subq	$24, %rsp
	.cfi_def_cfa_offset 32
	movq	%rdi, 16(%rsp)
	movl	(%rdi), %eax
	movl	%eax, 12(%rsp)
	xorl	%edi, %edi
	xorl	%esi, %esi
	movl	$osbuf, %edx
	callq	tcsetattr
	movl	12(%rsp), %edi
	xorl	%esi, %esi
	callq	signal
	movl	12(%rsp), %esi
	xorl	%edi, %edi
	callq	kill
	movl	12(%rsp), %edi
	movl	$onstop, %esi
	callq	signal
	xorl	%edi, %edi
	xorl	%esi, %esi
	movl	$sbuf, %edx
	callq	tcsetattr
	movq	16(%rsp), %rax
	movl	12(%rsp), %ecx
	movl	%ecx, (%rax)
	addq	$24, %rsp
	retq
.Lfunc_end14:
	.size	onstop0, .Lfunc_end14-onstop0
	.cfi_endproc
                                        # -- End function
	.globl	stop                    # -- Begin function stop
	.p2align	4, 0x90
	.type	stop,@function
stop:                                   # @stop
	.cfi_startproc
# %bb.0:                                # %entry
	pushq	%rbp
	.cfi_def_cfa_offset 16
	.cfi_offset %rbp, -16
	movq	%rsp, %rbp
	.cfi_def_cfa_register %rbp
	subq	$48, %rsp
	movl	$20, %edi
	callq	onstop
	movl	$222222263, -48(%rbp)   # imm = 0xD3ED7B7
	movl	$555555596, -44(%rbp)   # imm = 0x211D1B0C
	movl	$444444485, -40(%rbp)   # imm = 0x1A7DAF45
	movl	$222222263, %edi        # imm = 0xD3ED7B7
	movl	$555555596, %esi        # imm = 0x211D1B0C
	movl	$444444485, %edx        # imm = 0x1A7DAF45
	callq	guardMe
	movl	$222222262, -36(%rbp)   # imm = 0xD3ED7B6
	movl	$555555595, -32(%rbp)   # imm = 0x211D1B0B
	movl	$444444484, -28(%rbp)   # imm = 0x1A7DAF44
	movl	$222222262, %edi        # imm = 0xD3ED7B6
	movl	$555555595, %esi        # imm = 0x211D1B0B
	movl	$444444484, %edx        # imm = 0x1A7DAF44
	callq	guardMe
	movl	$222222261, -24(%rbp)   # imm = 0xD3ED7B5
	movl	$555555594, -20(%rbp)   # imm = 0x211D1B0A
	movl	$444444483, -16(%rbp)   # imm = 0x1A7DAF43
	movl	$222222261, %edi        # imm = 0xD3ED7B5
	movl	$555555594, %esi        # imm = 0x211D1B0A
	movl	$444444483, %edx        # imm = 0x1A7DAF43
	callq	guardMe
	movl	$222222260, -12(%rbp)   # imm = 0xD3ED7B4
	movl	$555555593, -8(%rbp)    # imm = 0x211D1B09
	movl	$444444482, -4(%rbp)    # imm = 0x1A7DAF42
	movl	$222222260, %edi        # imm = 0xD3ED7B4
	movl	$555555593, %esi        # imm = 0x211D1B09
	movl	$444444482, %edx        # imm = 0x1A7DAF42
	callq	guardMe
	addq	$48, %rsp
	popq	%rbp
	retq
.Lfunc_end15:
	.size	stop, .Lfunc_end15-stop
	.cfi_endproc
                                        # -- End function
	.globl	shellescape             # -- Begin function shellescape
	.p2align	4, 0x90
	.type	shellescape,@function
shellescape:                            # @shellescape
	.cfi_startproc
# %bb.0:                                # %entry
	pushq	%rbp
	.cfi_def_cfa_offset 16
	.cfi_offset %rbp, -16
	movq	%rsp, %rbp
	.cfi_def_cfa_register %rbp
	pushq	%rbx
	subq	$904, %rsp              # imm = 0x388
	.cfi_offset %rbx, -24
	movq	%rdi, %rbx
	movl	$222222273, -112(%rbp)  # imm = 0xD3ED7C1
	movl	$555555606, -108(%rbp)  # imm = 0x211D1B16
	movl	$444444495, -104(%rbp)  # imm = 0x1A7DAF4F
	movl	$222222273, %edi        # imm = 0xD3ED7C1
	movl	$555555606, %esi        # imm = 0x211D1B16
	movl	$444444495, %edx        # imm = 0x1A7DAF4F
	callq	guardMe
	movl	$222222272, -100(%rbp)  # imm = 0xD3ED7C0
	movl	$555555605, -96(%rbp)   # imm = 0x211D1B15
	movl	$444444494, -92(%rbp)   # imm = 0x1A7DAF4E
	movl	$222222272, %edi        # imm = 0xD3ED7C0
	movl	$555555605, %esi        # imm = 0x211D1B15
	movl	$444444494, %edx        # imm = 0x1A7DAF4E
	callq	guardMe
	movl	$222222271, -88(%rbp)   # imm = 0xD3ED7BF
	movl	$555555604, -84(%rbp)   # imm = 0x211D1B14
	movl	$444444493, -80(%rbp)   # imm = 0x1A7DAF4D
	movl	$222222271, %edi        # imm = 0xD3ED7BF
	movl	$555555604, %esi        # imm = 0x211D1B14
	movl	$444444493, %edx        # imm = 0x1A7DAF4D
	callq	guardMe
	movl	$222222270, -76(%rbp)   # imm = 0xD3ED7BE
	movl	$555555603, -72(%rbp)   # imm = 0x211D1B13
	movl	$444444492, -68(%rbp)   # imm = 0x1A7DAF4C
	movl	$222222270, %edi        # imm = 0xD3ED7BE
	movl	$555555603, %esi        # imm = 0x211D1B13
	movl	$444444492, %edx        # imm = 0x1A7DAF4C
	callq	guardMe
	movl	$222222269, -64(%rbp)   # imm = 0xD3ED7BD
	movl	$555555602, -60(%rbp)   # imm = 0x211D1B12
	movl	$444444491, -56(%rbp)   # imm = 0x1A7DAF4B
	movl	$222222269, %edi        # imm = 0xD3ED7BD
	movl	$555555602, %esi        # imm = 0x211D1B12
	movl	$444444491, %edx        # imm = 0x1A7DAF4B
	callq	guardMe
	movl	$222222268, -52(%rbp)   # imm = 0xD3ED7BC
	movl	$555555601, -48(%rbp)   # imm = 0x211D1B11
	movl	$444444490, -44(%rbp)   # imm = 0x1A7DAF4A
	movl	$222222268, %edi        # imm = 0xD3ED7BC
	movl	$555555601, %esi        # imm = 0x211D1B11
	movl	$444444490, %edx        # imm = 0x1A7DAF4A
	callq	guardMe
	movq	%rbx, -40(%rbp)
	leaq	-24(%rbp), %rbx
	leaq	-40(%rbp), %rsi
	movq	%rbx, %rdi
	callq	shellescape0
	movl	$0, -12(%rbp)
	jmp	.LBB16_2
	.p2align	4, 0x90
.LBB16_1:                               # %if.then29
                                        #   in Loop: Header=BB16_2 Depth=1
	movq	%rbx, %rdi
	callq	shellescape3
.LBB16_2:                               # %while.cond
                                        # =>This Loop Header: Depth=1
                                        #     Child Loop BB16_4 Depth 2
                                        #     Child Loop BB16_10 Depth 2
	movq	-24(%rbp), %rax
	cmpb	$0, (%rax)
	jne	.LBB16_4
	jmp	.LBB16_16
	.p2align	4, 0x90
.LBB16_3:                               # %while.body9
                                        #   in Loop: Header=BB16_4 Depth=2
	movq	%rbx, %rdi
	callq	shellescape1
.LBB16_4:                               # %while.cond2
                                        #   Parent Loop BB16_2 Depth=1
                                        # =>  This Inner Loop Header: Depth=2
	movq	-24(%rbp), %rcx
	movb	$1, %al
	cmpb	$32, (%rcx)
	je	.LBB16_6
# %bb.5:                                # %lor.rhs
                                        #   in Loop: Header=BB16_4 Depth=2
	movq	-24(%rbp), %rax
	cmpb	$9, (%rax)
	sete	%al
.LBB16_6:                               # %lor.end
                                        #   in Loop: Header=BB16_4 Depth=2
	testb	%al, %al
	jne	.LBB16_3
# %bb.7:                                # %while.end
                                        #   in Loop: Header=BB16_2 Depth=1
	movq	-24(%rbp), %rax
	cmpb	$0, (%rax)
	je	.LBB16_16
# %bb.8:                                # %if.end
                                        #   in Loop: Header=BB16_2 Depth=1
	movq	-24(%rbp), %rax
	movslq	-12(%rbp), %rcx
	leal	1(%rcx), %edx
	movl	%edx, -12(%rbp)
	movq	%rax, -912(%rbp,%rcx,8)
	jmp	.LBB16_10
	.p2align	4, 0x90
.LBB16_9:                               # %while.body23
                                        #   in Loop: Header=BB16_10 Depth=2
	movq	%rbx, %rdi
	callq	shellescape2
.LBB16_10:                              # %while.cond13
                                        #   Parent Loop BB16_2 Depth=1
                                        # =>  This Inner Loop Header: Depth=2
	movq	-24(%rbp), %rax
	cmpb	$32, (%rax)
	je	.LBB16_14
# %bb.11:                               # %land.lhs.true
                                        #   in Loop: Header=BB16_10 Depth=2
	movq	-24(%rbp), %rax
	cmpb	$9, (%rax)
	je	.LBB16_14
# %bb.12:                               # %land.rhs
                                        #   in Loop: Header=BB16_10 Depth=2
	movq	-24(%rbp), %rax
	cmpb	$0, (%rax)
	setne	%al
	testb	%al, %al
	jne	.LBB16_9
	jmp	.LBB16_15
	.p2align	4, 0x90
.LBB16_14:                              #   in Loop: Header=BB16_10 Depth=2
	xorl	%eax, %eax
	testb	%al, %al
	jne	.LBB16_9
.LBB16_15:                              # %while.end25
                                        #   in Loop: Header=BB16_2 Depth=1
	movq	-24(%rbp), %rax
	cmpb	$0, (%rax)
	je	.LBB16_2
	jmp	.LBB16_1
.LBB16_16:                              # %while.end32
	movslq	-12(%rbp), %rax
	movq	$0, -912(%rbp,%rax,8)
	xorl	%edi, %edi
	xorl	%esi, %esi
	movl	$osbuf, %edx
	callq	tcsetattr
	movq	oldint(%rip), %rsi
	movl	$2, %edi
	callq	signal
	movq	oldterm(%rip), %rsi
	movl	$15, %edi
	callq	signal
	movq	oldttin(%rip), %rsi
	movl	$21, %edi
	callq	signal
	movq	oldttou(%rip), %rsi
	movl	$22, %edi
	callq	signal
	movq	oldtstp(%rip), %rsi
	movl	$20, %edi
	callq	signal
	xorl	%eax, %eax
	callq	fork
	movl	%eax, -12(%rbp)
	testl	%eax, %eax
	je	.LBB16_35
# %bb.17:                               # %if.else
	cmpl	$0, -12(%rbp)
	jle	.LBB16_34
# %bb.18:                               # %if.then48
	leaq	-28(%rbp), %rbx
	.p2align	4, 0x90
.LBB16_19:                              # %while.cond49
                                        # =>This Inner Loop Header: Depth=1
	xorl	%eax, %eax
	movq	%rbx, %rdi
	callq	wait
	cmpl	-12(%rbp), %eax
	jne	.LBB16_19
# %bb.20:                               # %while.end54
	leaq	-28(%rbp), %rdi
	callq	shellescape4
	cmpq	$1, oldint(%rip)
	je	.LBB16_22
.LBB16_21:                              # %if.then63
	movl	$2, %edi
	movl	$done, %esi
	callq	signal
.LBB16_22:                              # %if.end65
	cmpq	$1, oldterm(%rip)
	je	.LBB16_24
# %bb.23:                               # %if.then68
	movl	$15, %edi
	movl	$done, %esi
	callq	signal
.LBB16_24:                              # %if.end70
	cmpq	$1, oldttin(%rip)
	je	.LBB16_26
# %bb.25:                               # %if.then73
	movl	$21, %edi
	movl	$onstop, %esi
	callq	signal
.LBB16_26:                              # %if.end75
	cmpq	$1, oldttou(%rip)
	je	.LBB16_28
# %bb.27:                               # %if.then78
	movl	$22, %edi
	movl	$onstop, %esi
	callq	signal
.LBB16_28:                              # %if.end80
	cmpq	$1, oldtstp(%rip)
	je	.LBB16_30
# %bb.29:                               # %if.then83
	movl	$20, %edi
	movl	$onstop, %esi
	callq	signal
.LBB16_30:                              # %if.end85
	xorl	%edi, %edi
	xorl	%esi, %esi
	movl	$sbuf, %edx
	callq	tcsetattr
	cmpl	$0, -28(%rbp)
	je	.LBB16_33
# %bb.31:                               # %if.then87
	callq	shellescape5
	.p2align	4, 0x90
.LBB16_32:                              # %while.cond90
                                        # =>This Inner Loop Header: Depth=1
	callq	getchar
	cmpl	$32, %eax
	jne	.LBB16_32
.LBB16_33:                              # %if.end96
	movl	-28(%rbp), %eax
	addq	$904, %rsp              # imm = 0x388
	popq	%rbx
	popq	%rbp
	retq
.LBB16_34:                              # %if.else57
	movl	$.L.str.4, %edi
	xorl	%eax, %eax
	callq	printf
	movl	$-1, -28(%rbp)
	cmpq	$1, oldint(%rip)
	jne	.LBB16_21
	jmp	.LBB16_22
.LBB16_35:                              # %if.then43
	movq	-912(%rbp), %rdi
	leaq	-912(%rbp), %rsi
	xorl	%eax, %eax
	callq	execvp
	movl	$123, %edi
	callq	_exit
.Lfunc_end16:
	.size	shellescape, .Lfunc_end16-shellescape
	.cfi_endproc
                                        # -- End function
	.globl	shellescape0            # -- Begin function shellescape0
	.p2align	4, 0x90
	.type	shellescape0,@function
shellescape0:                           # @shellescape0
	.cfi_startproc
# %bb.0:                                # %entry
	movq	%rdi, -24(%rsp)
	movq	(%rdi), %rax
	movq	%rax, -32(%rsp)
	movq	%rsi, -8(%rsp)
	movq	(%rsi), %rax
	movq	%rax, -16(%rsp)
	movq	%rax, -32(%rsp)
	movq	%rax, (%rsi)
	movq	-24(%rsp), %rax
	movq	-32(%rsp), %rcx
	movq	%rcx, (%rax)
	retq
.Lfunc_end17:
	.size	shellescape0, .Lfunc_end17-shellescape0
	.cfi_endproc
                                        # -- End function
	.globl	shellescape1            # -- Begin function shellescape1
	.p2align	4, 0x90
	.type	shellescape1,@function
shellescape1:                           # @shellescape1
	.cfi_startproc
# %bb.0:                                # %entry
	movq	%rdi, -8(%rsp)
	movq	(%rdi), %rax
	incq	%rax
	movq	%rax, -16(%rsp)
	movq	%rax, (%rdi)
	retq
.Lfunc_end18:
	.size	shellescape1, .Lfunc_end18-shellescape1
	.cfi_endproc
                                        # -- End function
	.globl	shellescape2            # -- Begin function shellescape2
	.p2align	4, 0x90
	.type	shellescape2,@function
shellescape2:                           # @shellescape2
	.cfi_startproc
# %bb.0:                                # %entry
	movq	%rdi, -8(%rsp)
	movq	(%rdi), %rax
	incq	%rax
	movq	%rax, -16(%rsp)
	movq	%rax, (%rdi)
	retq
.Lfunc_end19:
	.size	shellescape2, .Lfunc_end19-shellescape2
	.cfi_endproc
                                        # -- End function
	.globl	shellescape3            # -- Begin function shellescape3
	.p2align	4, 0x90
	.type	shellescape3,@function
shellescape3:                           # @shellescape3
	.cfi_startproc
# %bb.0:                                # %entry
	movq	%rdi, -8(%rsp)
	movq	(%rdi), %rax
	leaq	1(%rax), %rcx
	movq	%rcx, -16(%rsp)
	movb	$0, (%rax)
	movq	-8(%rsp), %rax
	movq	-16(%rsp), %rcx
	movq	%rcx, (%rax)
	retq
.Lfunc_end20:
	.size	shellescape3, .Lfunc_end20-shellescape3
	.cfi_endproc
                                        # -- End function
	.globl	shellescape4            # -- Begin function shellescape4
	.p2align	4, 0x90
	.type	shellescape4,@function
shellescape4:                           # @shellescape4
	.cfi_startproc
# %bb.0:                                # %entry
	movq	%rdi, -8(%rsp)
	xorl	%eax, %eax
	cmpl	$31488, (%rdi)          # imm = 0x7B00
	sete	%al
	decl	%eax
	movl	%eax, -12(%rsp)
	movl	%eax, (%rdi)
	retq
.Lfunc_end21:
	.size	shellescape4, .Lfunc_end21-shellescape4
	.cfi_endproc
                                        # -- End function
	.globl	shellescape5            # -- Begin function shellescape5
	.p2align	4, 0x90
	.type	shellescape5,@function
shellescape5:                           # @shellescape5
	.cfi_startproc
# %bb.0:                                # %entry
	pushq	%rax
	.cfi_def_cfa_offset 16
	movl	$.L.str.5, %edi
	xorl	%eax, %eax
	callq	printf
	movq	stdout(%rip), %rdi
	callq	fflush
	popq	%rax
	retq
.Lfunc_end22:
	.size	shellescape5, .Lfunc_end22-shellescape5
	.cfi_endproc
                                        # -- End function
	.globl	main                    # -- Begin function main
	.p2align	4, 0x90
	.type	main,@function
main:                                   # @main
	.cfi_startproc
# %bb.0:                                # %entry
	pushq	%rbp
	.cfi_def_cfa_offset 16
	.cfi_offset %rbp, -16
	movq	%rsp, %rbp
	.cfi_def_cfa_register %rbp
	pushq	%r14
	pushq	%rbx
	subq	$96, %rsp
	.cfi_offset %rbx, -32
	.cfi_offset %r14, -24
	movq	%rsi, %r14
	movl	%edi, %ebx
	movl	$222222274, -100(%rbp)  # imm = 0xD3ED7C2
	movl	$555555607, -96(%rbp)   # imm = 0x211D1B17
	movl	$444444496, -92(%rbp)   # imm = 0x1A7DAF50
	movl	$222222274, %edi        # imm = 0xD3ED7C2
	movl	$555555607, %esi        # imm = 0x211D1B17
	movl	$444444496, %edx        # imm = 0x1A7DAF50
	callq	guardMe
	movl	$0, -104(%rbp)
	movl	%ebx, -44(%rbp)
	movq	%r14, -40(%rbp)
	movq	$0, -80(%rbp)
	movq	$0, -56(%rbp)
	leaq	-40(%rbp), %rdi
	callq	main0
	movl	$0, Trynum(%rip)
	movl	$.L.str.13, %edi
	callq	getenv
	movq	%rax, -32(%rbp)
	testq	%rax, %rax
	je	.LBB23_12
# %bb.1:                                # %if.then
	movq	-32(%rbp), %rdi
	movl	$47, %esi
	callq	index
	leaq	-32(%rbp), %rdi
	testq	%rax, %rax
	je	.LBB23_3
# %bb.2:                                # %if.then3
	callq	main1
	jmp	.LBB23_4
.LBB23_12:                              # %if.else23
	movl	$hashname, %edi
	movl	$.L.str.1.14, %esi
	movl	$.L.str.2.15, %edx
	movl	$.L.str.4.17, %ecx
	xorl	%eax, %eax
	callq	sprintf
	jmp	.LBB23_13
.LBB23_3:                               # %if.else
	callq	main2
.LBB23_4:                               # %if.end
	movq	-32(%rbp), %rsi
	movl	$main.libdictname, %edi
	callq	strcpy
	movq	-32(%rbp), %rdi
	movl	$46, %esi
	callq	rindex
	movq	%rax, -32(%rbp)
	testq	%rax, %rax
	je	.LBB23_6
# %bb.5:                                # %lor.lhs.false
	movq	-32(%rbp), %rdi
	movl	$.L.str.3.16, %esi
	callq	strcmp
	testl	%eax, %eax
	je	.LBB23_7
.LBB23_6:                               # %if.then11
	movl	$hashname, %edi
	movl	$.L.str.3.16, %esi
	callq	strcat
.LBB23_7:                               # %if.end13
	movl	$main.libdictname, %edi
	movl	$47, %esi
	callq	rindex
	movq	%rax, LibDict(%rip)
	testq	%rax, %rax
	je	.LBB23_9
# %bb.8:                                # %if.then16
	callq	main3
	jmp	.LBB23_10
.LBB23_9:                               # %if.else17
	movq	$main.libdictname, LibDict(%rip)
.LBB23_10:                              # %if.end18
	movl	$main.libdictname, %edi
	movl	$46, %esi
	callq	rindex
	movq	%rax, -32(%rbp)
	testq	%rax, %rax
	je	.LBB23_13
# %bb.11:                               # %if.then21
	leaq	-32(%rbp), %rdi
	callq	main4
.LBB23_13:                              # %if.end25
	movq	$0, -72(%rbp)
	leaq	-44(%rbp), %r14
	leaq	-40(%rbp), %rbx
	movq	%r14, %rdi
	movq	%rbx, %rsi
	callq	main5
	cmpl	$0, -44(%rbp)
	jne	.LBB23_16
	jmp	.LBB23_15
	.p2align	4, 0x90
.LBB23_145:                             # %sw.epilog
	movq	%r14, %rdi
	movq	%rbx, %rsi
	callq	main30
	cmpl	$0, -44(%rbp)
	je	.LBB23_15
.LBB23_16:                              # %land.rhs
	movq	-40(%rbp), %rax
	movq	(%rax), %rax
	cmpb	$45, (%rax)
	sete	%al
	testb	%al, %al
	jne	.LBB23_18
	jmp	.LBB23_146
	.p2align	4, 0x90
.LBB23_15:
	xorl	%eax, %eax
	testb	%al, %al
	je	.LBB23_146
.LBB23_18:                              # %while.body
	movq	-40(%rbp), %rax
	movq	(%rax), %rdi
	callq	strlen
	movl	%eax, -20(%rbp)
	movq	-40(%rbp), %rax
	movq	(%rax), %rax
	movsbl	1(%rax), %eax
	addl	$-65, %eax
	cmpl	$55, %eax
	ja	.LBB23_144
# %bb.19:                               # %while.body
	jmpq	*.LJTI23_0(,%rax,8)
.LBB23_43:                              # %sw.bb166
	cmpl	$3, -20(%rbp)
	jl	.LBB23_45
# %bb.44:                               # %if.then169
	callq	usage
.LBB23_45:                              # %if.end170
	movl	$1, incfileflag(%rip)
	movl	$1, aflag(%rip)
	jmp	.LBB23_145
.LBB23_135:                             # %sw.bb386
	movq	-40(%rbp), %rax
	movq	(%rax), %rax
	leaq	2(%rax), %rcx
	movq	%rcx, -80(%rbp)
	cmpb	$0, 2(%rax)
	jne	.LBB23_145
# %bb.136:                              # %if.then391
	addq	$8, -40(%rbp)
	addl	$-1, -44(%rbp)
	jne	.LBB23_138
# %bb.137:                              # %if.then396
	callq	usage
.LBB23_138:                             # %if.end397
	leaq	-80(%rbp), %rdi
	leaq	-40(%rbp), %rsi
	callq	main27
	jmp	.LBB23_145
.LBB23_82:                              # %sw.bb266
	cmpl	$3, -20(%rbp)
	jl	.LBB23_84
# %bb.83:                               # %if.then269
	callq	usage
.LBB23_84:                              # %if.end270
	callq	main19
	jmp	.LBB23_145
.LBB23_109:                             # %sw.bb313
	movq	-40(%rbp), %rax
	movq	(%rax), %rax
	leaq	2(%rax), %rcx
	movq	%rcx, -72(%rbp)
	cmpb	$0, 2(%rax)
	jne	.LBB23_114
# %bb.110:                              # %if.then318
	addq	$8, -40(%rbp)
	addl	$-1, -44(%rbp)
	jne	.LBB23_112
# %bb.111:                              # %if.then323
	callq	usage
.LBB23_112:                             # %if.end324
	movq	-40(%rbp), %rax
	movq	(%rax), %rax
	movq	%rax, -72(%rbp)
	cmpb	$0, (%rax)
	jne	.LBB23_114
# %bb.113:                              # %if.then328
	movq	$0, -72(%rbp)
.LBB23_114:                             # %if.end330
	movq	$0, LibDict(%rip)
	jmp	.LBB23_145
.LBB23_65:                              # %sw.bb223
	cmpl	$3, -20(%rbp)
	jl	.LBB23_67
# %bb.66:                               # %if.then226
	callq	usage
.LBB23_67:                              # %if.end227
	movl	$0, xflag(%rip)
	jmp	.LBB23_145
.LBB23_88:                              # %sw.bb278
	cmpl	$3, -20(%rbp)
	jl	.LBB23_90
# %bb.89:                               # %if.then281
	callq	usage
.LBB23_90:                              # %if.end282
	movl	$0, sortit(%rip)
	jmp	.LBB23_145
.LBB23_103:                             # %sw.bb303
	cmpl	$3, -20(%rbp)
	jl	.LBB23_105
# %bb.104:                              # %if.then306
	callq	usage
.LBB23_105:                             # %if.end307
	movl	$0, minimenusize(%rip)
	jmp	.LBB23_145
.LBB23_34:                              # %sw.bb144
	cmpl	$3, -20(%rbp)
	jl	.LBB23_36
# %bb.35:                               # %if.then147
	callq	usage
.LBB23_36:                              # %if.end148
	movl	$1, tflag(%rip)
	movl	$1, deftflag(%rip)
	cmpq	$0, -56(%rbp)
	jne	.LBB23_145
# %bb.37:                               # %if.then151
	movq	$.L.str.128, -56(%rbp)
	jmp	.LBB23_145
.LBB23_132:                             # %sw.bb381
	cmpl	$3, -20(%rbp)
	jl	.LBB23_134
# %bb.133:                              # %if.then384
	callq	usage
.LBB23_134:                             # %if.end385
	movl	$1, vflag(%rip)
	jmp	.LBB23_145
.LBB23_49:                              # %sw.bb176
	cmpl	$3, -20(%rbp)
	jl	.LBB23_51
# %bb.50:                               # %if.then179
	callq	usage
.LBB23_51:                              # %if.end180
	callq	main12
	jmp	.LBB23_145
.LBB23_91:                              # %sw.bb283
	cmpl	$3, -20(%rbp)
	jl	.LBB23_93
# %bb.92:                               # %if.then286
	callq	usage
.LBB23_93:                              # %if.end287
	movl	$0, compoundflag(%rip)
	jmp	.LBB23_145
.LBB23_94:                              # %sw.bb288
	cmpl	$3, -20(%rbp)
	jl	.LBB23_96
# %bb.95:                               # %if.then291
	callq	usage
.LBB23_96:                              # %if.end292
	movl	$1, compoundflag(%rip)
	jmp	.LBB23_145
.LBB23_85:                              # %sw.bb272
	cmpl	$3, -20(%rbp)
	jl	.LBB23_87
# %bb.86:                               # %if.then275
	callq	usage
.LBB23_87:                              # %if.end276
	callq	main20
	jmp	.LBB23_145
.LBB23_68:                              # %sw.bb228
	cmpl	$3, -20(%rbp)
	jl	.LBB23_70
# %bb.69:                               # %if.then231
	callq	usage
.LBB23_70:                              # %if.end232
	movl	$1, xflag(%rip)
	jmp	.LBB23_145
.LBB23_46:                              # %sw.bb171
	cmpl	$3, -20(%rbp)
	jl	.LBB23_48
# %bb.47:                               # %if.then174
	callq	usage
.LBB23_48:                              # %if.end175
	callq	main11
	jmp	.LBB23_145
.LBB23_100:                             # %sw.bb298
	cmpl	$3, -20(%rbp)
	jl	.LBB23_102
# %bb.101:                              # %if.then301
	callq	usage
.LBB23_102:                             # %if.end302
	movl	$1, tryhardflag(%rip)
	jmp	.LBB23_145
.LBB23_139:                             # %sw.bb399
	movq	-40(%rbp), %rax
	movq	(%rax), %rax
	cmpb	$0, 2(%rax)
	je	.LBB23_140
# %bb.143:                              # %if.else412
	leaq	-40(%rbp), %rdi
	callq	main29
	jmp	.LBB23_145
.LBB23_77:                              # %sw.bb252
	movq	-40(%rbp), %rax
	movq	(%rax), %rax
	leaq	2(%rax), %rcx
	movq	%rcx, -32(%rbp)
	cmpb	$0, 2(%rax)
	jne	.LBB23_81
# %bb.78:                               # %if.then257
	addq	$8, -40(%rbp)
	addl	$-1, -44(%rbp)
	jne	.LBB23_80
# %bb.79:                               # %if.then262
	callq	usage
.LBB23_80:                              # %if.end263
	leaq	-32(%rbp), %rdi
	leaq	-40(%rbp), %rsi
	callq	main17
.LBB23_81:                              # %if.end264
	leaq	-32(%rbp), %rdi
	callq	main18
	jmp	.LBB23_145
.LBB23_106:                             # %sw.bb308
	cmpl	$3, -20(%rbp)
	jl	.LBB23_108
# %bb.107:                              # %if.then311
	callq	usage
.LBB23_108:                             # %if.end312
	movl	$2, minimenusize(%rip)
	jmp	.LBB23_145
.LBB23_62:                              # %sw.bb215
	cmpl	$3, -20(%rbp)
	jl	.LBB23_64
# %bb.63:                               # %if.then218
	callq	usage
.LBB23_64:                              # %if.end219
	callq	main15
	jmp	.LBB23_145
.LBB23_115:                             # %sw.bb331
	movq	-40(%rbp), %rax
	movq	(%rax), %rax
	leaq	2(%rax), %rcx
	movq	%rcx, -32(%rbp)
	cmpb	$0, 2(%rax)
	jne	.LBB23_119
# %bb.116:                              # %if.then336
	addq	$8, -40(%rbp)
	addl	$-1, -44(%rbp)
	jne	.LBB23_118
# %bb.117:                              # %if.then341
	callq	usage
.LBB23_118:                             # %if.end342
	leaq	-32(%rbp), %rdi
	leaq	-40(%rbp), %rsi
	callq	main21
.LBB23_119:                             # %if.end343
	movq	-32(%rbp), %rdi
	movl	$47, %esi
	callq	index
	leaq	-32(%rbp), %rdi
	testq	%rax, %rax
	je	.LBB23_121
# %bb.120:                              # %if.then347
	callq	main22
	cmpq	$0, -72(%rbp)
	jne	.LBB23_125
	jmp	.LBB23_123
.LBB23_97:                              # %sw.bb293
	cmpl	$3, -20(%rbp)
	jl	.LBB23_99
# %bb.98:                               # %if.then296
	callq	usage
.LBB23_99:                              # %if.end297
	movl	$0, tryhardflag(%rip)
	jmp	.LBB23_145
.LBB23_38:                              # %sw.bb153
	movq	-40(%rbp), %rax
	movq	(%rax), %rax
	leaq	2(%rax), %rcx
	movq	%rcx, -32(%rbp)
	cmpb	$0, 2(%rax)
	jne	.LBB23_42
# %bb.39:                               # %if.then158
	addq	$8, -40(%rbp)
	addl	$-1, -44(%rbp)
	jne	.LBB23_41
# %bb.40:                               # %if.then163
	callq	usage
.LBB23_41:                              # %if.end164
	leaq	-32(%rbp), %rdi
	leaq	-40(%rbp), %rsi
	callq	main9
.LBB23_42:                              # %if.end165
	leaq	-56(%rbp), %rdi
	leaq	-32(%rbp), %rsi
	callq	main10
	jmp	.LBB23_145
.LBB23_71:                              # %sw.bb233
	addl	$1, fflag(%rip)
	movq	-40(%rbp), %rax
	movq	(%rax), %rax
	leaq	2(%rax), %rcx
	movq	%rcx, -32(%rbp)
	cmpb	$0, 2(%rax)
	jne	.LBB23_75
# %bb.72:                               # %if.then239
	addq	$8, -40(%rbp)
	addl	$-1, -44(%rbp)
	jne	.LBB23_74
# %bb.73:                               # %if.then244
	callq	usage
.LBB23_74:                              # %if.end245
	leaq	-32(%rbp), %rdi
	leaq	-40(%rbp), %rsi
	callq	main16
.LBB23_75:                              # %if.end246
	movq	-32(%rbp), %rax
	movq	%rax, askfilename(%rip)
	cmpb	$0, (%rax)
	jne	.LBB23_145
# %bb.76:                               # %if.then250
	movq	$0, askfilename(%rip)
	jmp	.LBB23_145
.LBB23_52:                              # %sw.bb183
	cmpl	$4, -20(%rbp)
	jl	.LBB23_54
# %bb.53:                               # %if.then186
	callq	usage
.LBB23_54:                              # %if.end187
	movl	$1, eflag(%rip)
	movq	-40(%rbp), %rax
	movq	(%rax), %rax
	cmpb	$101, 2(%rax)
	jne	.LBB23_56
# %bb.55:                               # %if.then192
	movl	$2, eflag(%rip)
	callq	main14
	jmp	.LBB23_145
.LBB23_30:                              # %sw.bb135
	cmpl	$3, -20(%rbp)
	jl	.LBB23_32
# %bb.31:                               # %if.then138
	callq	usage
.LBB23_32:                              # %if.end139
	movl	$0, tflag(%rip)
	movl	$0, deftflag(%rip)
	cmpq	$0, -56(%rbp)
	jne	.LBB23_145
# %bb.33:                               # %if.then142
	movq	$.L.str.127, -56(%rbp)
	jmp	.LBB23_145
.LBB23_144:                             # %sw.default
	callq	usage
	jmp	.LBB23_145
.LBB23_56:                              # %if.else193
	movq	-40(%rbp), %rax
	movq	(%rax), %rax
	movsbl	2(%rax), %eax
	cmpl	$49, %eax
	jl	.LBB23_59
# %bb.57:                               # %land.lhs.true
	movq	-40(%rbp), %rax
	movq	(%rax), %rax
	movsbl	2(%rax), %eax
	cmpl	$52, %eax
	jg	.LBB23_59
# %bb.58:                               # %if.then202
	leaq	-40(%rbp), %rdi
	callq	main13
	callq	main14
	jmp	.LBB23_145
.LBB23_140:                             # %if.then404
	addq	$8, -40(%rbp)
	addl	$-1, -44(%rbp)
	jne	.LBB23_142
# %bb.141:                              # %if.then409
	callq	usage
.LBB23_142:                             # %if.end410
	leaq	-40(%rbp), %rdi
	callq	main28
	jmp	.LBB23_145
.LBB23_121:                             # %if.else349
	callq	main23
	cmpq	$0, -72(%rbp)
	jne	.LBB23_125
.LBB23_123:                             # %land.lhs.true354
	movq	-32(%rbp), %rax
	cmpb	$0, (%rax)
	je	.LBB23_125
# %bb.124:                              # %if.then358
	leaq	-32(%rbp), %rdi
	callq	main24
.LBB23_125:                             # %if.end359
	movq	-32(%rbp), %rdi
	movl	$46, %esi
	callq	rindex
	movq	%rax, -32(%rbp)
	testq	%rax, %rax
	je	.LBB23_128
# %bb.126:                              # %land.lhs.true363
	movq	-32(%rbp), %rdi
	movl	$.L.str.3.16, %esi
	callq	strcmp
	testl	%eax, %eax
	je	.LBB23_127
.LBB23_128:                             # %if.else368
	movl	$hashname, %edi
	movl	$.L.str.3.16, %esi
	callq	strcat
	cmpq	$0, LibDict(%rip)
	jne	.LBB23_130
	jmp	.LBB23_145
.LBB23_59:                              # %if.else205
	movq	-40(%rbp), %rax
	movq	(%rax), %rax
	cmpb	$0, 2(%rax)
	je	.LBB23_61
# %bb.60:                               # %if.then210
	callq	usage
.LBB23_61:                              # %if.end213
	callq	main14
	jmp	.LBB23_145
.LBB23_127:                             # %if.then367
	leaq	-32(%rbp), %rdi
	callq	main25
	cmpq	$0, LibDict(%rip)
	je	.LBB23_145
.LBB23_130:                             # %if.then373
	movq	LibDict(%rip), %rdi
	movl	$47, %esi
	callq	rindex
	movq	%rax, -32(%rbp)
	testq	%rax, %rax
	je	.LBB23_145
# %bb.131:                              # %if.then377
	leaq	-32(%rbp), %rdi
	callq	main26
	jmp	.LBB23_145
.LBB23_146:                             # %while.end
	cmpl	$0, -44(%rbp)
	jne	.LBB23_152
# %bb.147:                              # %land.lhs.true419
	cmpl	$0, lflag(%rip)
	jne	.LBB23_152
# %bb.148:                              # %land.lhs.true421
	cmpl	$0, aflag(%rip)
	jne	.LBB23_152
# %bb.149:                              # %land.lhs.true423
	cmpl	$0, eflag(%rip)
	jne	.LBB23_152
# %bb.150:                              # %land.lhs.true425
	cmpl	$0, dumpflag(%rip)
	jne	.LBB23_152
# %bb.151:                              # %if.then427
	callq	usage
.LBB23_152:                             # %if.end428
	movl	$0, -60(%rbp)
	leaq	-60(%rbp), %rbx
	jmp	.LBB23_153
	.p2align	4, 0x90
.LBB23_155:                             # %for.inc
                                        #   in Loop: Header=BB23_153 Depth=1
	movq	%rbx, %rdi
	callq	main31
.LBB23_153:                             # %for.cond429
                                        # =>This Inner Loop Header: Depth=1
	movl	-60(%rbp), %eax
	cmpl	-44(%rbp), %eax
	jge	.LBB23_156
# %bb.154:                              # %for.body432
                                        #   in Loop: Header=BB23_153 Depth=1
	movslq	-60(%rbp), %rax
	movq	-40(%rbp), %rcx
	movq	(%rcx,%rax,8), %rdi
	movl	$4, %esi
	xorl	%eax, %eax
	callq	access
	testl	%eax, %eax
	js	.LBB23_155
.LBB23_156:                             # %for.end440
	movl	-60(%rbp), %eax
	cmpl	-44(%rbp), %eax
	jl	.LBB23_161
# %bb.157:                              # %land.lhs.true443
	cmpl	$0, lflag(%rip)
	jne	.LBB23_161
# %bb.158:                              # %land.lhs.true445
	cmpl	$0, aflag(%rip)
	jne	.LBB23_161
# %bb.159:                              # %land.lhs.true447
	cmpl	$0, eflag(%rip)
	jne	.LBB23_161
# %bb.160:                              # %land.lhs.true449
	cmpl	$0, dumpflag(%rip)
	je	.LBB23_187
.LBB23_161:                             # %if.end455
	callq	linit
	testl	%eax, %eax
	js	.LBB23_188
# %bb.162:                              # %if.end460
	cmpq	$0, -56(%rbp)
	je	.LBB23_166
# %bb.163:                              # %if.then463
	movq	-56(%rbp), %rdi
	movl	$deftflag, %eax
	xorl	%edx, %edx
	cmpl	$0, deftflag(%rip)
	cmovsq	%rax, %rdx
	movl	$1, %esi
	callq	findfiletype
	movl	%eax, prefstringchar(%rip)
	testl	%eax, %eax
	jns	.LBB23_166
# %bb.164:                              # %land.lhs.true470
	movq	-56(%rbp), %rdi
	movl	$.L.str.128, %esi
	callq	strcmp
	testl	%eax, %eax
	je	.LBB23_166
# %bb.165:                              # %land.lhs.true474
	movq	-56(%rbp), %rdi
	movl	$.L.str.127, %esi
	callq	strcmp
	testl	%eax, %eax
	jne	.LBB23_189
.LBB23_166:                             # %if.end481
	cmpl	$0, prefstringchar(%rip)
	js	.LBB23_167
# %bb.168:                              # %if.else485
	callq	main34
	cmpl	$0, compoundflag(%rip)
	jns	.LBB23_171
.LBB23_170:                             # %if.then489
	callq	main35
.LBB23_171:                             # %if.end491
	cmpl	$0, tryhardflag(%rip)
	jns	.LBB23_173
# %bb.172:                              # %if.then494
	callq	main36
.LBB23_173:                             # %if.end496
	movq	-80(%rbp), %rdi
	callq	initckch
	cmpq	$0, LibDict(%rip)
	je	.LBB23_174
.LBB23_177:                             # %if.end510
	cmpl	$0, nodictflag(%rip)
	jne	.LBB23_179
.LBB23_178:                             # %if.then512
	leaq	-72(%rbp), %rdi
	callq	main38
.LBB23_179:                             # %if.end513
	cmpl	$0, aflag(%rip)
	jne	.LBB23_190
# %bb.180:                              # %if.else516
	cmpl	$0, eflag(%rip)
	jne	.LBB23_191
# %bb.181:                              # %if.else519
	cmpl	$0, dumpflag(%rip)
	jne	.LBB23_192
# %bb.182:                              # %if.end524
	movq	stdout(%rip), %rdi
	movl	$main.outbuf, %esi
	callq	setbuf
	cmpl	$0, lflag(%rip)
	jne	.LBB23_193
# %bb.183:                              # %if.end527
	callq	terminit
	leaq	-40(%rbp), %rbx
	jmp	.LBB23_184
	.p2align	4, 0x90
.LBB23_185:                             # %while.body531
                                        #   in Loop: Header=BB23_184 Depth=1
	movq	%rbx, %rdi
	callq	main43
.LBB23_184:                             # %while.cond528
                                        # =>This Inner Loop Header: Depth=1
	movl	-44(%rbp), %eax
	leal	-1(%rax), %ecx
	movl	%ecx, -44(%rbp)
	testl	%eax, %eax
	jne	.LBB23_185
# %bb.186:                              # %while.end533
	xorl	%edi, %edi
	callq	done
	xorl	%eax, %eax
	addq	$96, %rsp
	popq	%rbx
	popq	%r14
	popq	%rbp
	retq
.LBB23_20:                              # %sw.bb
	cmpl	$4, -20(%rbp)
	jl	.LBB23_22
# %bb.21:                               # %if.then34
	callq	usage
.LBB23_22:                              # %if.end35
	movq	$Version_ID, -88(%rbp)
	leaq	-32(%rbp), %rbx
	jmp	.LBB23_23
	.p2align	4, 0x90
.LBB23_26:                              # %if.end42
                                        #   in Loop: Header=BB23_23 Depth=1
	movq	%rbx, %rdi
	callq	main7
.LBB23_23:                              # %for.cond
                                        # =>This Inner Loop Header: Depth=1
	movq	-88(%rbp), %rax
	cmpq	$0, (%rax)
	je	.LBB23_27
# %bb.24:                               # %for.body
                                        #   in Loop: Header=BB23_23 Depth=1
	movq	-88(%rbp), %rax
	leaq	8(%rax), %rcx
	movq	%rcx, -88(%rbp)
	movq	(%rax), %rdi
	movq	%rdi, -32(%rbp)
	movl	$.L.str.5.18, %esi
	movl	$5, %edx
	callq	strncmp
	testl	%eax, %eax
	jne	.LBB23_26
# %bb.25:                               # %if.then41
                                        #   in Loop: Header=BB23_23 Depth=1
	movq	%rbx, %rdi
	callq	main6
	jmp	.LBB23_26
.LBB23_27:                              # %for.end
	movq	-40(%rbp), %rax
	movq	(%rax), %rax
	cmpb	$118, 2(%rax)
	jne	.LBB23_29
# %bb.28:                               # %if.then48
	callq	main8
.LBB23_29:                              # %if.end134
	xorl	%edi, %edi
	callq	exit
.LBB23_167:                             # %if.then484
	movl	$0, defdupchar(%rip)
	cmpl	$0, compoundflag(%rip)
	jns	.LBB23_171
	jmp	.LBB23_170
.LBB23_174:                             # %if.then499
	movl	$main.libdictname, %edi
	movl	$.L.str.4.17, %esi
	callq	strcpy
	movq	$main.libdictname, LibDict(%rip)
	movl	$main.libdictname, %edi
	movl	$46, %esi
	callq	rindex
	movq	%rax, -32(%rbp)
	testq	%rax, %rax
	je	.LBB23_177
# %bb.175:                              # %land.lhs.true504
	movq	-32(%rbp), %rdi
	movl	$.L.str.3.16, %esi
	callq	strcmp
	testl	%eax, %eax
	jne	.LBB23_177
# %bb.176:                              # %if.then508
	leaq	-32(%rbp), %rdi
	callq	main37
	cmpl	$0, nodictflag(%rip)
	jne	.LBB23_179
	jmp	.LBB23_178
.LBB23_188:                             # %if.then459
	movl	$1, %edi
	callq	exit
.LBB23_190:                             # %if.then515
	callq	main39
.LBB23_191:                             # %if.then518
	callq	main40
.LBB23_192:                             # %if.then521
	callq	main41
.LBB23_193:                             # %if.then526
	callq	main42
.LBB23_187:                             # %if.then451
	leaq	-44(%rbp), %rdi
	callq	main32
.LBB23_189:                             # %if.then478
	leaq	-56(%rbp), %rdi
	callq	main33
.Lfunc_end23:
	.size	main, .Lfunc_end23-main
	.cfi_endproc
	.section	.rodata,"a",@progbits
	.p2align	3
.LJTI23_0:
	.quad	.LBB23_43
	.quad	.LBB23_91
	.quad	.LBB23_94
	.quad	.LBB23_49
	.quad	.LBB23_144
	.quad	.LBB23_144
	.quad	.LBB23_144
	.quad	.LBB23_144
	.quad	.LBB23_144
	.quad	.LBB23_144
	.quad	.LBB23_144
	.quad	.LBB23_77
	.quad	.LBB23_106
	.quad	.LBB23_103
	.quad	.LBB23_144
	.quad	.LBB23_97
	.quad	.LBB23_144
	.quad	.LBB23_144
	.quad	.LBB23_88
	.quad	.LBB23_38
	.quad	.LBB23_144
	.quad	.LBB23_132
	.quad	.LBB23_139
	.quad	.LBB23_144
	.quad	.LBB23_144
	.quad	.LBB23_144
	.quad	.LBB23_144
	.quad	.LBB23_144
	.quad	.LBB23_144
	.quad	.LBB23_144
	.quad	.LBB23_144
	.quad	.LBB23_144
	.quad	.LBB23_46
	.quad	.LBB23_65
	.quad	.LBB23_62
	.quad	.LBB23_115
	.quad	.LBB23_52
	.quad	.LBB23_71
	.quad	.LBB23_144
	.quad	.LBB23_144
	.quad	.LBB23_144
	.quad	.LBB23_144
	.quad	.LBB23_144
	.quad	.LBB23_82
	.quad	.LBB23_100
	.quad	.LBB23_30
	.quad	.LBB23_144
	.quad	.LBB23_109
	.quad	.LBB23_144
	.quad	.LBB23_144
	.quad	.LBB23_85
	.quad	.LBB23_34
	.quad	.LBB23_144
	.quad	.LBB23_20
	.quad	.LBB23_135
	.quad	.LBB23_68
                                        # -- End function
	.text
	.globl	main0                   # -- Begin function main0
	.p2align	4, 0x90
	.type	main0,@function
main0:                                  # @main0
	.cfi_startproc
# %bb.0:                                # %entry
	movq	%rdi, -8(%rsp)
	movq	(%rdi), %rax
	movq	%rax, -16(%rsp)
	movq	(%rax), %rcx
	movq	%rcx, Cmd(%rip)
	movq	%rax, (%rdi)
	retq
.Lfunc_end24:
	.size	main0, .Lfunc_end24-main0
	.cfi_endproc
                                        # -- End function
	.globl	main1                   # -- Begin function main1
	.p2align	4, 0x90
	.type	main1,@function
main1:                                  # @main1
	.cfi_startproc
# %bb.0:                                # %entry
	subq	$24, %rsp
	.cfi_def_cfa_offset 32
	movq	%rdi, 16(%rsp)
	movq	(%rdi), %rsi
	movq	%rsi, 8(%rsp)
	movl	$hashname, %edi
	callq	strcpy
	movq	16(%rsp), %rax
	movq	8(%rsp), %rcx
	movq	%rcx, (%rax)
	addq	$24, %rsp
	retq
.Lfunc_end25:
	.size	main1, .Lfunc_end25-main1
	.cfi_endproc
                                        # -- End function
	.globl	main2                   # -- Begin function main2
	.p2align	4, 0x90
	.type	main2,@function
main2:                                  # @main2
	.cfi_startproc
# %bb.0:                                # %entry
	subq	$24, %rsp
	.cfi_def_cfa_offset 32
	movq	%rdi, 16(%rsp)
	movq	(%rdi), %rcx
	movq	%rcx, 8(%rsp)
	movl	$hashname, %edi
	movl	$.L.str.1.14, %esi
	movl	$.L.str.2.15, %edx
	xorl	%eax, %eax
	callq	sprintf
	movq	16(%rsp), %rax
	movq	8(%rsp), %rcx
	movq	%rcx, (%rax)
	addq	$24, %rsp
	retq
.Lfunc_end26:
	.size	main2, .Lfunc_end26-main2
	.cfi_endproc
                                        # -- End function
	.globl	main3                   # -- Begin function main3
	.p2align	4, 0x90
	.type	main3,@function
main3:                                  # @main3
	.cfi_startproc
# %bb.0:                                # %entry
	incq	LibDict(%rip)
	retq
.Lfunc_end27:
	.size	main3, .Lfunc_end27-main3
	.cfi_endproc
                                        # -- End function
	.globl	main4                   # -- Begin function main4
	.p2align	4, 0x90
	.type	main4,@function
main4:                                  # @main4
	.cfi_startproc
# %bb.0:                                # %entry
	movq	%rdi, -8(%rsp)
	movq	(%rdi), %rax
	movq	%rax, -16(%rsp)
	movb	$0, (%rax)
	movq	-8(%rsp), %rax
	movq	-16(%rsp), %rcx
	movq	%rcx, (%rax)
	retq
.Lfunc_end28:
	.size	main4, .Lfunc_end28-main4
	.cfi_endproc
                                        # -- End function
	.globl	main5                   # -- Begin function main5
	.p2align	4, 0x90
	.type	main5,@function
main5:                                  # @main5
	.cfi_startproc
# %bb.0:                                # %entry
	movq	%rdi, -24(%rsp)
	movl	(%rdi), %eax
	movl	%eax, -28(%rsp)
	movq	%rsi, -8(%rsp)
	movq	(%rsi), %rcx
	addq	$8, %rcx
	movq	%rcx, -16(%rsp)
	decl	%eax
	movl	%eax, -28(%rsp)
	movq	%rcx, (%rsi)
	movq	-24(%rsp), %rax
	movl	-28(%rsp), %ecx
	movl	%ecx, (%rax)
	retq
.Lfunc_end29:
	.size	main5, .Lfunc_end29-main5
	.cfi_endproc
                                        # -- End function
	.p2align	4, 0x90         # -- Begin function usage
	.type	usage,@function
usage:                                  # @usage
	.cfi_startproc
# %bb.0:                                # %entry
	pushq	%rbp
	.cfi_def_cfa_offset 16
	.cfi_offset %rbp, -16
	movq	%rsp, %rbp
	.cfi_def_cfa_register %rbp
	subq	$32, %rsp
	callq	usage0
	movl	$222222276, -24(%rbp)   # imm = 0xD3ED7C4
	movl	$555555609, -20(%rbp)   # imm = 0x211D1B19
	movl	$444444498, -16(%rbp)   # imm = 0x1A7DAF52
	movl	$222222276, %edi        # imm = 0xD3ED7C4
	movl	$555555609, %esi        # imm = 0x211D1B19
	movl	$444444498, %edx        # imm = 0x1A7DAF52
	callq	guardMe
	movl	$222222275, -12(%rbp)   # imm = 0xD3ED7C3
	movl	$555555608, -8(%rbp)    # imm = 0x211D1B18
	movl	$444444497, -4(%rbp)    # imm = 0x1A7DAF51
	movl	$222222275, %edi        # imm = 0xD3ED7C3
	movl	$555555608, %esi        # imm = 0x211D1B18
	movl	$444444497, %edx        # imm = 0x1A7DAF51
	callq	guardMe
	xorl	%edi, %edi
	callq	givehelp
	movl	$1, %edi
	callq	exit
.Lfunc_end30:
	.size	usage, .Lfunc_end30-usage
	.cfi_endproc
                                        # -- End function
	.globl	main6                   # -- Begin function main6
	.p2align	4, 0x90
	.type	main6,@function
main6:                                  # @main6
	.cfi_startproc
# %bb.0:                                # %entry
	movq	%rdi, -8(%rsp)
	movq	(%rdi), %rax
	addq	$5, %rax
	movq	%rax, -16(%rsp)
	movq	%rax, (%rdi)
	retq
.Lfunc_end31:
	.size	main6, .Lfunc_end31-main6
	.cfi_endproc
                                        # -- End function
	.globl	main7                   # -- Begin function main7
	.p2align	4, 0x90
	.type	main7,@function
main7:                                  # @main7
	.cfi_startproc
# %bb.0:                                # %entry
	subq	$24, %rsp
	.cfi_def_cfa_offset 32
	movq	%rdi, 16(%rsp)
	movq	(%rdi), %rsi
	movq	%rsi, 8(%rsp)
	movl	$.L.str.6, %edi
	xorl	%eax, %eax
	callq	printf
	movq	16(%rsp), %rax
	movq	8(%rsp), %rcx
	movq	%rcx, (%rax)
	addq	$24, %rsp
	retq
.Lfunc_end32:
	.size	main7, .Lfunc_end32-main7
	.cfi_endproc
                                        # -- End function
	.globl	main8                   # -- Begin function main8
	.p2align	4, 0x90
	.type	main8,@function
main8:                                  # @main8
	.cfi_startproc
# %bb.0:                                # %entry
	pushq	%rax
	.cfi_def_cfa_offset 16
	movl	$.L.str.7, %edi
	xorl	%eax, %eax
	callq	printf
	movl	$.L.str.8, %edi
	xorl	%eax, %eax
	callq	printf
	movl	$.L.str.9, %edi
	movl	$.L.str.10, %esi
	xorl	%eax, %eax
	callq	printf
	movl	$.L.str.11, %edi
	movl	$.L.str.12, %esi
	xorl	%eax, %eax
	callq	printf
	movl	$.L.str.13.19, %edi
	xorl	%eax, %eax
	callq	printf
	movl	$.L.str.14, %edi
	xorl	%eax, %eax
	callq	printf
	movl	$.L.str.15, %edi
	movl	$.L.str.16, %esi
	xorl	%eax, %eax
	callq	printf
	movl	$.L.str.17, %edi
	movl	$.L.str.18, %esi
	xorl	%eax, %eax
	callq	printf
	movl	$.L.str.19, %edi
	xorl	%eax, %eax
	callq	printf
	movl	$.L.str.20, %edi
	xorl	%eax, %eax
	callq	printf
	movl	$.L.str.21, %edi
	movl	$10, %esi
	xorl	%eax, %eax
	callq	printf
	movl	$.L.str.22, %edi
	movl	$.L.str.23, %esi
	xorl	%eax, %eax
	callq	printf
	movl	$.L.str.24, %edi
	movl	$.L.str.4.17, %esi
	xorl	%eax, %eax
	callq	printf
	movl	$.L.str.25, %edi
	movl	$.L.str.26, %esi
	xorl	%eax, %eax
	callq	printf
	movl	$.L.str.27, %edi
	movl	$.L.str.28, %esi
	xorl	%eax, %eax
	callq	printf
	movl	$.L.str.29, %edi
	xorl	%esi, %esi
	xorl	%eax, %eax
	callq	printf
	movl	$.L.str.30, %edi
	movl	$.L.str.31, %esi
	xorl	%eax, %eax
	callq	printf
	movl	$.L.str.32, %edi
	movl	$.L.str.33, %esi
	xorl	%eax, %eax
	callq	printf
	movl	$.L.str.34, %edi
	xorl	%esi, %esi
	xorl	%eax, %eax
	callq	printf
	movl	$.L.str.35, %edi
	movl	$.L.str.36, %esi
	xorl	%eax, %eax
	callq	printf
	movl	$.L.str.37, %edi
	movl	$.L.str.38, %esi
	xorl	%eax, %eax
	callq	printf
	movl	$.L.str.39, %edi
	movl	$.L.str.40, %esi
	xorl	%eax, %eax
	callq	printf
	movl	$.L.str.41, %edi
	xorl	%eax, %eax
	callq	printf
	movl	$.L.str.42, %edi
	xorl	%eax, %eax
	callq	printf
	movl	$.L.str.43, %edi
	xorl	%eax, %eax
	callq	printf
	movl	$.L.str.44, %edi
	movl	$.L.str.3.16, %esi
	xorl	%eax, %eax
	callq	printf
	movl	$.L.str.45, %edi
	movl	$.L.str.46, %esi
	xorl	%eax, %eax
	callq	printf
	movl	$.L.str.47, %edi
	xorl	%eax, %eax
	callq	printf
	movl	$.L.str.48, %edi
	movl	$.L.str.49, %esi
	xorl	%eax, %eax
	callq	printf
	movl	$.L.str.50, %edi
	movl	$100, %esi
	xorl	%eax, %eax
	callq	printf
	movl	$.L.str.51, %edi
	movl	$.L.str.52, %esi
	xorl	%eax, %eax
	callq	printf
	movl	$.L.str.53, %edi
	movl	$.L.str.2.15, %esi
	xorl	%eax, %eax
	callq	printf
	movl	$.L.str.54, %edi
	movl	$.L.str.55, %esi
	xorl	%eax, %eax
	callq	printf
	movl	$.L.str.56, %edi
	movl	$.L.str.57, %esi
	xorl	%eax, %eax
	callq	printf
	movl	$.L.str.58, %edi
	movl	$.L.str.55, %esi
	xorl	%eax, %eax
	callq	printf
	movl	$.L.str.59, %edi
	movl	$.L.str.60, %esi
	xorl	%eax, %eax
	callq	printf
	movl	$.L.str.61, %edi
	movl	$.L.str.62, %esi
	xorl	%eax, %eax
	callq	printf
	movl	$.L.str.63, %edi
	movl	$4088, %esi             # imm = 0xFF8
	xorl	%eax, %eax
	callq	printf
	movl	$.L.str.64, %edi
	movl	$.L.str.65, %esi
	xorl	%eax, %eax
	callq	printf
	movl	$.L.str.66, %edi
	movl	$.L.str.67, %esi
	xorl	%eax, %eax
	callq	printf
	movl	$.L.str.68, %edi
	movl	$.L.str.69, %esi
	xorl	%eax, %eax
	callq	printf
	movl	$.L.str.70, %edi
	movl	$.L.str.71, %esi
	xorl	%eax, %eax
	callq	printf
	movl	$.L.str.72, %edi
	movl	$32, %esi
	xorl	%eax, %eax
	callq	printf
	movl	$.L.str.73, %edi
	movl	$.L.str.74, %esi
	xorl	%eax, %eax
	callq	printf
	movl	$.L.str.75, %edi
	movl	$32, %esi
	xorl	%eax, %eax
	callq	printf
	movl	$.L.str.76, %edi
	movl	$.L.str.77, %esi
	xorl	%eax, %eax
	callq	printf
	movl	$.L.str.78, %edi
	movl	$20, %esi
	xorl	%eax, %eax
	callq	printf
	movl	$.L.str.79, %edi
	movl	$10, %esi
	xorl	%eax, %eax
	callq	printf
	movl	$.L.str.80, %edi
	movl	$5, %esi
	xorl	%eax, %eax
	callq	printf
	movl	$.L.str.81, %edi
	movl	$255, %esi
	xorl	%eax, %eax
	callq	printf
	movl	$.L.str.82, %edi
	movl	$4096, %esi             # imm = 0x1000
	xorl	%eax, %eax
	callq	printf
	movl	$.L.str.83, %edi
	movl	$70, %esi
	xorl	%eax, %eax
	callq	printf
	movl	$.L.str.84, %edi
	movl	$4, %esi
	xorl	%eax, %eax
	callq	printf
	movl	$.L.str.85, %edi
	movl	$10, %esi
	xorl	%eax, %eax
	callq	printf
	movl	$.L.str.86, %edi
	movl	$100, %esi
	xorl	%eax, %eax
	callq	printf
	movl	$.L.str.87, %edi
	movl	$10, %esi
	xorl	%eax, %eax
	callq	printf
	movl	$.L.str.88, %edi
	movl	$10, %esi
	xorl	%eax, %eax
	callq	printf
	movl	$.L.str.89, %edi
	xorl	%esi, %esi
	xorl	%eax, %eax
	callq	printf
	movl	$.L.str.90, %edi
	movl	$2, %esi
	xorl	%eax, %eax
	callq	printf
	movl	$.L.str.91, %edi
	xorl	%eax, %eax
	callq	printf
	movl	$.L.str.92, %edi
	movl	$1, %esi
	xorl	%eax, %eax
	callq	printf
	movl	$.L.str.93, %edi
	xorl	%esi, %esi
	xorl	%eax, %eax
	callq	printf
	movl	$.L.str.94, %edi
	movl	$.L.str.95, %esi
	xorl	%eax, %eax
	callq	printf
	movl	$.L.str.96, %edi
	xorl	%eax, %eax
	callq	printf
	movl	$.L.str.97, %edi
	xorl	%eax, %eax
	callq	printf
	movl	$.L.str.98, %edi
	xorl	%eax, %eax
	callq	printf
	movl	$.L.str.99, %edi
	movl	$.L.str.100, %esi
	xorl	%eax, %eax
	callq	printf
	movl	$.L.str.101, %edi
	movl	$.L.str.31, %esi
	xorl	%eax, %eax
	callq	printf
	movl	$.L.str.102, %edi
	movl	$.L.str.33, %esi
	xorl	%eax, %eax
	callq	printf
	movl	$.L.str.103, %edi
	xorl	%eax, %eax
	callq	printf
	movl	$.L.str.104, %edi
	movl	$.L.str.105, %esi
	xorl	%eax, %eax
	callq	printf
	movl	$.L.str.106, %edi
	xorl	%eax, %eax
	callq	printf
	movl	$.L.str.107, %edi
	xorl	%eax, %eax
	callq	printf
	movl	$.L.str.108, %edi
	movl	$.L.str.55, %esi
	xorl	%eax, %eax
	callq	printf
	movl	$.L.str.109, %edi
	movl	$.L.str.110, %esi
	xorl	%eax, %eax
	callq	printf
	movl	$.L.str.111, %edi
	movl	$1000, %esi             # imm = 0x3E8
	xorl	%eax, %eax
	callq	printf
	movl	$.L.str.112, %edi
	movl	$.L.str.113, %esi
	xorl	%eax, %eax
	callq	printf
	movl	$.L.str.114, %edi
	movl	$.L.str.115, %esi
	xorl	%eax, %eax
	callq	printf
	movl	$.L.str.116, %edi
	movl	$.L.str.55, %esi
	xorl	%eax, %eax
	callq	printf
	movl	$.L.str.117, %edi
	movl	$.L.str.118, %esi
	xorl	%eax, %eax
	callq	printf
	movl	$.L.str.119, %edi
	movl	$.L.str.120, %esi
	xorl	%eax, %eax
	callq	printf
	movl	$.L.str.121, %edi
	xorl	%eax, %eax
	callq	printf
	movl	$.L.str.122, %edi
	xorl	%eax, %eax
	callq	printf
	movl	$.L.str.123, %edi
	movl	$.L.str.124, %esi
	xorl	%eax, %eax
	callq	printf
	movl	$.L.str.125, %edi
	movl	$.L.str.126, %esi
	xorl	%eax, %eax
	callq	printf
	popq	%rax
	retq
.Lfunc_end33:
	.size	main8, .Lfunc_end33-main8
	.cfi_endproc
                                        # -- End function
	.globl	main9                   # -- Begin function main9
	.p2align	4, 0x90
	.type	main9,@function
main9:                                  # @main9
	.cfi_startproc
# %bb.0:                                # %entry
	movq	%rdi, -24(%rsp)
	movq	(%rdi), %rax
	movq	%rax, -32(%rsp)
	movq	%rsi, -8(%rsp)
	movq	(%rsi), %rax
	movq	%rax, -16(%rsp)
	movq	(%rax), %rcx
	movq	%rcx, -32(%rsp)
	movq	%rax, (%rsi)
	movq	-24(%rsp), %rax
	movq	-32(%rsp), %rcx
	movq	%rcx, (%rax)
	retq
.Lfunc_end34:
	.size	main9, .Lfunc_end34-main9
	.cfi_endproc
                                        # -- End function
	.globl	main10                  # -- Begin function main10
	.p2align	4, 0x90
	.type	main10,@function
main10:                                 # @main10
	.cfi_startproc
# %bb.0:                                # %entry
	movq	%rdi, -24(%rsp)
	movq	(%rdi), %rax
	movq	%rax, -32(%rsp)
	movq	%rsi, -8(%rsp)
	movq	(%rsi), %rax
	movq	%rax, -16(%rsp)
	movq	%rax, -32(%rsp)
	movq	%rax, (%rsi)
	movq	-24(%rsp), %rax
	movq	-32(%rsp), %rcx
	movq	%rcx, (%rax)
	retq
.Lfunc_end35:
	.size	main10, .Lfunc_end35-main10
	.cfi_endproc
                                        # -- End function
	.globl	main11                  # -- Begin function main11
	.p2align	4, 0x90
	.type	main11,@function
main11:                                 # @main11
	.cfi_startproc
# %bb.0:                                # %entry
	incl	aflag(%rip)
	retq
.Lfunc_end36:
	.size	main11, .Lfunc_end36-main11
	.cfi_endproc
                                        # -- End function
	.globl	main12                  # -- Begin function main12
	.p2align	4, 0x90
	.type	main12,@function
main12:                                 # @main12
	.cfi_startproc
# %bb.0:                                # %entry
	incl	dumpflag(%rip)
	incl	nodictflag(%rip)
	retq
.Lfunc_end37:
	.size	main12, .Lfunc_end37-main12
	.cfi_endproc
                                        # -- End function
	.globl	main13                  # -- Begin function main13
	.p2align	4, 0x90
	.type	main13,@function
main13:                                 # @main13
	.cfi_startproc
# %bb.0:                                # %entry
	movq	%rdi, -8(%rsp)
	movq	(%rdi), %rax
	movq	%rax, -16(%rsp)
	movq	(%rax), %rcx
	movsbl	2(%rcx), %ecx
	addl	$-48, %ecx
	movl	%ecx, eflag(%rip)
	movq	%rax, (%rdi)
	retq
.Lfunc_end38:
	.size	main13, .Lfunc_end38-main13
	.cfi_endproc
                                        # -- End function
	.globl	main14                  # -- Begin function main14
	.p2align	4, 0x90
	.type	main14,@function
main14:                                 # @main14
	.cfi_startproc
# %bb.0:                                # %entry
	incl	nodictflag(%rip)
	retq
.Lfunc_end39:
	.size	main14, .Lfunc_end39-main14
	.cfi_endproc
                                        # -- End function
	.globl	main15                  # -- Begin function main15
	.p2align	4, 0x90
	.type	main15,@function
main15:                                 # @main15
	.cfi_startproc
# %bb.0:                                # %entry
	incl	cflag(%rip)
	incl	lflag(%rip)
	incl	nodictflag(%rip)
	retq
.Lfunc_end40:
	.size	main15, .Lfunc_end40-main15
	.cfi_endproc
                                        # -- End function
	.globl	main16                  # -- Begin function main16
	.p2align	4, 0x90
	.type	main16,@function
main16:                                 # @main16
	.cfi_startproc
# %bb.0:                                # %entry
	movq	%rdi, -24(%rsp)
	movq	(%rdi), %rax
	movq	%rax, -32(%rsp)
	movq	%rsi, -8(%rsp)
	movq	(%rsi), %rax
	movq	%rax, -16(%rsp)
	movq	(%rax), %rcx
	movq	%rcx, -32(%rsp)
	movq	%rax, (%rsi)
	movq	-24(%rsp), %rax
	movq	-32(%rsp), %rcx
	movq	%rcx, (%rax)
	retq
.Lfunc_end41:
	.size	main16, .Lfunc_end41-main16
	.cfi_endproc
                                        # -- End function
	.globl	main17                  # -- Begin function main17
	.p2align	4, 0x90
	.type	main17,@function
main17:                                 # @main17
	.cfi_startproc
# %bb.0:                                # %entry
	movq	%rdi, -24(%rsp)
	movq	(%rdi), %rax
	movq	%rax, -32(%rsp)
	movq	%rsi, -8(%rsp)
	movq	(%rsi), %rax
	movq	%rax, -16(%rsp)
	movq	(%rax), %rcx
	movq	%rcx, -32(%rsp)
	movq	%rax, (%rsi)
	movq	-24(%rsp), %rax
	movq	-32(%rsp), %rcx
	movq	%rcx, (%rax)
	retq
.Lfunc_end42:
	.size	main17, .Lfunc_end42-main17
	.cfi_endproc
                                        # -- End function
	.globl	main18                  # -- Begin function main18
	.p2align	4, 0x90
	.type	main18,@function
main18:                                 # @main18
	.cfi_startproc
# %bb.0:                                # %entry
	subq	$24, %rsp
	.cfi_def_cfa_offset 32
	movq	%rdi, 16(%rsp)
	movq	(%rdi), %rdi
	movq	%rdi, 8(%rsp)
	callq	atoi
	movl	%eax, contextsize(%rip)
	movq	16(%rsp), %rax
	movq	8(%rsp), %rcx
	movq	%rcx, (%rax)
	addq	$24, %rsp
	retq
.Lfunc_end43:
	.size	main18, .Lfunc_end43-main18
	.cfi_endproc
                                        # -- End function
	.globl	main19                  # -- Begin function main19
	.p2align	4, 0x90
	.type	main19,@function
main19:                                 # @main19
	.cfi_startproc
# %bb.0:                                # %entry
	incl	lflag(%rip)
	retq
.Lfunc_end44:
	.size	main19, .Lfunc_end44-main19
	.cfi_endproc
                                        # -- End function
	.globl	main20                  # -- Begin function main20
	.p2align	4, 0x90
	.type	main20,@function
main20:                                 # @main20
	.cfi_startproc
# %bb.0:                                # %entry
	incl	sflag(%rip)
	retq
.Lfunc_end45:
	.size	main20, .Lfunc_end45-main20
	.cfi_endproc
                                        # -- End function
	.globl	main21                  # -- Begin function main21
	.p2align	4, 0x90
	.type	main21,@function
main21:                                 # @main21
	.cfi_startproc
# %bb.0:                                # %entry
	movq	%rdi, -24(%rsp)
	movq	(%rdi), %rax
	movq	%rax, -32(%rsp)
	movq	%rsi, -8(%rsp)
	movq	(%rsi), %rax
	movq	%rax, -16(%rsp)
	movq	(%rax), %rcx
	movq	%rcx, -32(%rsp)
	movq	%rax, (%rsi)
	movq	-24(%rsp), %rax
	movq	-32(%rsp), %rcx
	movq	%rcx, (%rax)
	retq
.Lfunc_end46:
	.size	main21, .Lfunc_end46-main21
	.cfi_endproc
                                        # -- End function
	.globl	main22                  # -- Begin function main22
	.p2align	4, 0x90
	.type	main22,@function
main22:                                 # @main22
	.cfi_startproc
# %bb.0:                                # %entry
	subq	$24, %rsp
	.cfi_def_cfa_offset 32
	movq	%rdi, 16(%rsp)
	movq	(%rdi), %rsi
	movq	%rsi, 8(%rsp)
	movl	$hashname, %edi
	callq	strcpy
	movq	16(%rsp), %rax
	movq	8(%rsp), %rcx
	movq	%rcx, (%rax)
	addq	$24, %rsp
	retq
.Lfunc_end47:
	.size	main22, .Lfunc_end47-main22
	.cfi_endproc
                                        # -- End function
	.globl	main23                  # -- Begin function main23
	.p2align	4, 0x90
	.type	main23,@function
main23:                                 # @main23
	.cfi_startproc
# %bb.0:                                # %entry
	subq	$24, %rsp
	.cfi_def_cfa_offset 32
	movq	%rdi, 16(%rsp)
	movq	(%rdi), %rcx
	movq	%rcx, 8(%rsp)
	movl	$hashname, %edi
	movl	$.L.str.1.14, %esi
	movl	$.L.str.2.15, %edx
	xorl	%eax, %eax
	callq	sprintf
	movq	16(%rsp), %rax
	movq	8(%rsp), %rcx
	movq	%rcx, (%rax)
	addq	$24, %rsp
	retq
.Lfunc_end48:
	.size	main23, .Lfunc_end48-main23
	.cfi_endproc
                                        # -- End function
	.globl	main24                  # -- Begin function main24
	.p2align	4, 0x90
	.type	main24,@function
main24:                                 # @main24
	.cfi_startproc
# %bb.0:                                # %entry
	movq	%rdi, -8(%rsp)
	movq	(%rdi), %rax
	movq	%rax, -16(%rsp)
	movq	%rax, LibDict(%rip)
	movq	%rax, (%rdi)
	retq
.Lfunc_end49:
	.size	main24, .Lfunc_end49-main24
	.cfi_endproc
                                        # -- End function
	.globl	main25                  # -- Begin function main25
	.p2align	4, 0x90
	.type	main25,@function
main25:                                 # @main25
	.cfi_startproc
# %bb.0:                                # %entry
	movq	%rdi, -8(%rsp)
	movq	(%rdi), %rax
	movq	%rax, -16(%rsp)
	movb	$0, (%rax)
	movq	-8(%rsp), %rax
	movq	-16(%rsp), %rcx
	movq	%rcx, (%rax)
	retq
.Lfunc_end50:
	.size	main25, .Lfunc_end50-main25
	.cfi_endproc
                                        # -- End function
	.globl	main26                  # -- Begin function main26
	.p2align	4, 0x90
	.type	main26,@function
main26:                                 # @main26
	.cfi_startproc
# %bb.0:                                # %entry
	movq	%rdi, -8(%rsp)
	movq	(%rdi), %rax
	movq	%rax, -16(%rsp)
	leaq	1(%rax), %rcx
	movq	%rcx, LibDict(%rip)
	movq	%rax, (%rdi)
	retq
.Lfunc_end51:
	.size	main26, .Lfunc_end51-main26
	.cfi_endproc
                                        # -- End function
	.globl	main27                  # -- Begin function main27
	.p2align	4, 0x90
	.type	main27,@function
main27:                                 # @main27
	.cfi_startproc
# %bb.0:                                # %entry
	movq	%rdi, -24(%rsp)
	movq	(%rdi), %rax
	movq	%rax, -32(%rsp)
	movq	%rsi, -8(%rsp)
	movq	(%rsi), %rax
	movq	%rax, -16(%rsp)
	movq	(%rax), %rcx
	movq	%rcx, -32(%rsp)
	movq	%rax, (%rsi)
	movq	-24(%rsp), %rax
	movq	-32(%rsp), %rcx
	movq	%rcx, (%rax)
	retq
.Lfunc_end52:
	.size	main27, .Lfunc_end52-main27
	.cfi_endproc
                                        # -- End function
	.globl	main28                  # -- Begin function main28
	.p2align	4, 0x90
	.type	main28,@function
main28:                                 # @main28
	.cfi_startproc
# %bb.0:                                # %entry
	subq	$24, %rsp
	.cfi_def_cfa_offset 32
	movq	%rdi, 16(%rsp)
	movq	(%rdi), %rax
	movq	%rax, 8(%rsp)
	movq	(%rax), %rdi
	callq	atoi
	movl	%eax, minword(%rip)
	movq	16(%rsp), %rax
	movq	8(%rsp), %rcx
	movq	%rcx, (%rax)
	addq	$24, %rsp
	retq
.Lfunc_end53:
	.size	main28, .Lfunc_end53-main28
	.cfi_endproc
                                        # -- End function
	.globl	main29                  # -- Begin function main29
	.p2align	4, 0x90
	.type	main29,@function
main29:                                 # @main29
	.cfi_startproc
# %bb.0:                                # %entry
	subq	$24, %rsp
	.cfi_def_cfa_offset 32
	movq	%rdi, 16(%rsp)
	movq	(%rdi), %rax
	movq	%rax, 8(%rsp)
	movq	(%rax), %rdi
	addq	$2, %rdi
	callq	atoi
	movl	%eax, minword(%rip)
	movq	16(%rsp), %rax
	movq	8(%rsp), %rcx
	movq	%rcx, (%rax)
	addq	$24, %rsp
	retq
.Lfunc_end54:
	.size	main29, .Lfunc_end54-main29
	.cfi_endproc
                                        # -- End function
	.globl	main30                  # -- Begin function main30
	.p2align	4, 0x90
	.type	main30,@function
main30:                                 # @main30
	.cfi_startproc
# %bb.0:                                # %entry
	movq	%rdi, -24(%rsp)
	movl	(%rdi), %eax
	movl	%eax, -28(%rsp)
	movq	%rsi, -8(%rsp)
	movq	(%rsi), %rcx
	addq	$8, %rcx
	movq	%rcx, -16(%rsp)
	decl	%eax
	movl	%eax, -28(%rsp)
	movq	%rcx, (%rsi)
	movq	-24(%rsp), %rax
	movl	-28(%rsp), %ecx
	movl	%ecx, (%rax)
	retq
.Lfunc_end55:
	.size	main30, .Lfunc_end55-main30
	.cfi_endproc
                                        # -- End function
	.globl	main31                  # -- Begin function main31
	.p2align	4, 0x90
	.type	main31,@function
main31:                                 # @main31
	.cfi_startproc
# %bb.0:                                # %entry
	movq	%rdi, -8(%rsp)
	movl	(%rdi), %eax
	incl	%eax
	movl	%eax, -12(%rsp)
	movl	%eax, (%rdi)
	retq
.Lfunc_end56:
	.size	main31, .Lfunc_end56-main31
	.cfi_endproc
                                        # -- End function
	.globl	main32                  # -- Begin function main32
	.p2align	4, 0x90
	.type	main32,@function
main32:                                 # @main32
	.cfi_startproc
# %bb.0:                                # %entry
	subq	$24, %rsp
	.cfi_def_cfa_offset 32
	movq	%rdi, 16(%rsp)
	movl	(%rdi), %eax
	movl	%eax, 12(%rsp)
	movq	stderr(%rip), %rdi
	cmpl	$1, %eax
	movl	$.L.str.129, %eax
	movl	$.L.str.130, %esi
	cmoveq	%rax, %rsi
	xorl	%eax, %eax
	callq	fprintf
	movl	$1, %edi
	callq	exit
	movq	16(%rsp), %rax
	movl	12(%rsp), %ecx
	movl	%ecx, (%rax)
	addq	$24, %rsp
	retq
.Lfunc_end57:
	.size	main32, .Lfunc_end57-main32
	.cfi_endproc
                                        # -- End function
	.globl	linit                   # -- Begin function linit
	.p2align	4, 0x90
	.type	linit,@function
linit:                                  # @linit
	.cfi_startproc
# %bb.0:                                # %entry
	pushq	%rbp
	.cfi_def_cfa_offset 16
	.cfi_offset %rbp, -16
	movq	%rsp, %rbp
	.cfi_def_cfa_register %rbp
	pushq	%r15
	pushq	%r14
	pushq	%r13
	pushq	%r12
	pushq	%rbx
	subq	$104, %rsp
	.cfi_offset %rbx, -56
	.cfi_offset %r12, -48
	.cfi_offset %r13, -40
	.cfi_offset %r14, -32
	.cfi_offset %r15, -24
	movl	$222222332, -132(%rbp)  # imm = 0xD3ED7FC
	movl	$555555665, -128(%rbp)  # imm = 0x211D1B51
	movl	$444444554, -124(%rbp)  # imm = 0x1A7DAF8A
	movl	$222222332, %edi        # imm = 0xD3ED7FC
	movl	$555555665, %esi        # imm = 0x211D1B51
	movl	$444444554, %edx        # imm = 0x1A7DAF8A
	callq	guardMe
	movl	$222222331, -120(%rbp)  # imm = 0xD3ED7FB
	movl	$555555664, -116(%rbp)  # imm = 0x211D1B50
	movl	$444444553, -112(%rbp)  # imm = 0x1A7DAF89
	movl	$222222331, %edi        # imm = 0xD3ED7FB
	movl	$555555664, %esi        # imm = 0x211D1B50
	movl	$444444553, %edx        # imm = 0x1A7DAF89
	callq	guardMe
	movl	$222222330, -108(%rbp)  # imm = 0xD3ED7FA
	movl	$555555663, -104(%rbp)  # imm = 0x211D1B4F
	movl	$444444552, -100(%rbp)  # imm = 0x1A7DAF88
	movl	$222222330, %edi        # imm = 0xD3ED7FA
	movl	$555555663, %esi        # imm = 0x211D1B4F
	movl	$444444552, %edx        # imm = 0x1A7DAF88
	callq	guardMe
	cmpl	$0, inited(%rip)
	je	.LBB58_2
# %bb.1:                                # %if.then
	movl	$0, -44(%rbp)
.LBB58_33:                              # %return
	movl	-44(%rbp), %eax
	addq	$104, %rsp
	popq	%rbx
	popq	%r12
	popq	%r13
	popq	%r14
	popq	%r15
	popq	%rbp
	retq
.LBB58_2:                               # %if.end
	movl	$hashname, %edi
	xorl	%esi, %esi
	xorl	%eax, %eax
	callq	open
	movl	%eax, -64(%rbp)
	testl	%eax, %eax
	js	.LBB58_3
# %bb.4:                                # %if.end4
	movl	-64(%rbp), %edi
	movl	$hashheader, %esi
	movl	$3928, %edx             # imm = 0xF58
	xorl	%eax, %eax
	callq	read
	movl	%eax, hashsize(%rip)
	movslq	hashsize(%rip), %rax
	cmpq	$3927, %rax             # imm = 0xF57
	ja	.LBB58_10
# %bb.5:                                # %if.then8
	cmpl	$0, hashsize(%rip)
	js	.LBB58_6
# %bb.7:                                # %if.else
	cmpl	$0, hashsize(%rip)
	je	.LBB58_8
# %bb.9:                                # %if.else17
	callq	linit3
	movl	$-1, -44(%rbp)
	jmp	.LBB58_33
.LBB58_3:                               # %if.then2
	leaq	-44(%rbp), %rdi
	callq	linit0
	jmp	.LBB58_33
.LBB58_10:                              # %if.else21
	movzwl	hashheader(%rip), %eax
	cmpl	$38402, %eax            # imm = 0x9602
	je	.LBB58_12
# %bb.11:                               # %if.then25
	leaq	-44(%rbp), %rdi
	callq	linit4
	jmp	.LBB58_33
.LBB58_12:                              # %if.else28
	movzwl	hashheader+3924(%rip), %eax
	cmpl	$38402, %eax            # imm = 0x9602
	je	.LBB58_14
# %bb.13:                               # %if.then32
	leaq	-44(%rbp), %rdi
	callq	linit5
	jmp	.LBB58_33
.LBB58_6:                               # %if.then11
	callq	linit1
	movl	$-1, -44(%rbp)
	jmp	.LBB58_33
.LBB58_14:                              # %if.else35
	movzwl	hashheader+2(%rip), %eax
	cmpl	$3, %eax
	jne	.LBB58_17
# %bb.15:                               # %lor.lhs.false
	movzwl	hashheader+4(%rip), %eax
	cmpl	$100, %eax
	jne	.LBB58_17
# %bb.16:                               # %lor.lhs.false42
	movzwl	hashheader+6(%rip), %eax
	cmpl	$10, %eax
	je	.LBB58_18
.LBB58_17:                              # %if.then46
	leaq	-44(%rbp), %rdi
	callq	linit6
	jmp	.LBB58_33
.LBB58_8:                               # %if.then15
	callq	linit2
	movl	$-1, -44(%rbp)
	jmp	.LBB58_33
.LBB58_18:                              # %if.end54
	cmpl	$0, nodictflag(%rip)
	je	.LBB58_22
# %bb.19:                               # %if.then56
	movl	$1, hashsize(%rip)
	movl	$1, %edi
	movl	$24, %esi
	callq	calloc
	movq	%rax, hashtbl(%rip)
	testq	%rax, %rax
	je	.LBB58_20
# %bb.21:                               # %if.end62
	callq	linit8
	jmp	.LBB58_23
.LBB58_22:                              # %if.else68
	callq	linit9
.LBB58_23:                              # %if.end73
	movl	hashheader+24(%rip), %eax
	movl	%eax, numsflags(%rip)
	movl	hashheader+28(%rip), %eax
	movl	%eax, numpflags(%rip)
	movslq	numsflags(%rip), %rax
	movslq	numpflags(%rip), %rdi
	addq	%rax, %rdi
	shlq	$8, %rdi
	callq	malloc
	movq	%rax, sflaglist(%rip)
	cmpq	$0, hashtbl(%rip)
	je	.LBB58_26
# %bb.24:                               # %lor.lhs.false79
	cmpq	$0, hashstrings(%rip)
	je	.LBB58_26
# %bb.25:                               # %lor.lhs.false82
	cmpq	$0, sflaglist(%rip)
	je	.LBB58_26
# %bb.27:                               # %if.end87
	movslq	numsflags(%rip), %rax
	shlq	$8, %rax
	addq	sflaglist(%rip), %rax
	movq	%rax, pflaglist(%rip)
	cmpl	$0, nodictflag(%rip)
	je	.LBB58_30
# %bb.28:                               # %if.then89
	movl	-64(%rbp), %edi
	movq	hashstrings(%rip), %rsi
	movl	hashheader+16(%rip), %edx
	xorl	%eax, %eax
	callq	read
	cmpl	hashheader+16(%rip), %eax
	je	.LBB58_34
# %bb.29:                               # %if.then93
	leaq	-44(%rbp), %rdi
	callq	linit11
	jmp	.LBB58_33
.LBB58_26:                              # %if.then85
	leaq	-44(%rbp), %rdi
	callq	linit10
	jmp	.LBB58_33
.LBB58_20:                              # %if.then60
	leaq	-44(%rbp), %rdi
	callq	linit7
	jmp	.LBB58_33
.LBB58_30:                              # %if.else102
	movl	-64(%rbp), %edi
	movq	hashstrings(%rip), %rsi
	movl	hashheader+12(%rip), %edx
	xorl	%eax, %eax
	callq	read
	cmpl	hashheader+12(%rip), %eax
	jne	.LBB58_32
# %bb.31:                               # %lor.lhs.false106
	movl	-64(%rbp), %edi
	movq	hashtbl(%rip), %rsi
	movl	hashheader+20(%rip), %eax
	shlq	$3, %rax
	leaq	(%rax,%rax,2), %rdx
	xorl	%eax, %eax
	callq	read
	cltq
	movslq	hashheader+20(%rip), %rcx
	shlq	$3, %rcx
	leaq	(%rcx,%rcx,2), %rcx
	cmpq	%rcx, %rax
	je	.LBB58_35
.LBB58_32:                              # %if.then115
	leaq	-44(%rbp), %rdi
	callq	linit13
	jmp	.LBB58_33
.LBB58_34:                              # %if.end95
	leaq	-64(%rbp), %rdi
	callq	linit12
.LBB58_35:                              # %if.end118
	movl	-64(%rbp), %edi
	movq	sflaglist(%rip), %rsi
	movl	numsflags(%rip), %edx
	addl	numpflags(%rip), %edx
	shlq	$8, %rdx
	xorl	%eax, %eax
	callq	read
	cltq
	movslq	numsflags(%rip), %rcx
	movslq	numpflags(%rip), %rdx
	addq	%rcx, %rdx
	shlq	$8, %rdx
	cmpq	%rdx, %rax
	je	.LBB58_37
# %bb.36:                               # %if.then129
	leaq	-44(%rbp), %rdi
	callq	linit14
	jmp	.LBB58_33
.LBB58_37:                              # %if.end131
	movl	-64(%rbp), %edi
	xorl	%eax, %eax
	callq	close
	cmpl	$0, nodictflag(%rip)
	jne	.LBB58_47
# %bb.38:                               # %if.then134
	leaq	-96(%rbp), %rbx
	leaq	-48(%rbp), %rsi
	movq	%rbx, %rdi
	callq	linit15
	addl	$-1, -48(%rbp)
	jns	.LBB58_40
	jmp	.LBB58_47
.LBB58_46:                              # %for.inc
                                        #   in Loop: Header=BB58_40 Depth=1
	movq	%rbx, %rdi
	callq	linit20
	addl	$-1, -48(%rbp)
	js	.LBB58_47
.LBB58_40:                              # %for.body
                                        # =>This Inner Loop Header: Depth=1
	movq	-96(%rbp), %rax
	cmpq	$-1, 8(%rax)
	je	.LBB58_41
# %bb.42:                               # %if.else142
                                        #   in Loop: Header=BB58_40 Depth=1
	movq	%rbx, %rdi
	callq	linit17
	jmp	.LBB58_43
.LBB58_41:                              # %if.then140
                                        #   in Loop: Header=BB58_40 Depth=1
	movq	%rbx, %rdi
	callq	linit16
.LBB58_43:                              # %if.end146
                                        #   in Loop: Header=BB58_40 Depth=1
	movq	-96(%rbp), %rax
	cmpq	$-1, (%rax)
	je	.LBB58_44
# %bb.45:                               # %if.else152
                                        #   in Loop: Header=BB58_40 Depth=1
	movq	%rbx, %rdi
	callq	linit19
	jmp	.LBB58_46
.LBB58_44:                              # %if.then150
                                        #   in Loop: Header=BB58_40 Depth=1
	movq	%rbx, %rdi
	callq	linit18
	jmp	.LBB58_46
.LBB58_47:                              # %if.end158
	leaq	-72(%rbp), %rbx
	leaq	-48(%rbp), %rsi
	movq	%rbx, %rdi
	callq	linit21
	addl	$-1, -48(%rbp)
	jns	.LBB58_49
	jmp	.LBB58_56
.LBB58_55:                              # %for.inc181
                                        #   in Loop: Header=BB58_49 Depth=1
	movq	%rbx, %rdi
	callq	linit26
	addl	$-1, -48(%rbp)
	js	.LBB58_56
.LBB58_49:                              # %for.body164
                                        # =>This Inner Loop Header: Depth=1
	movq	-72(%rbp), %rax
	cmpw	$0, 18(%rax)
	je	.LBB58_51
# %bb.50:                               # %if.then166
                                        #   in Loop: Header=BB58_49 Depth=1
	movq	%rbx, %rdi
	callq	linit22
	jmp	.LBB58_52
.LBB58_51:                              # %if.else170
                                        #   in Loop: Header=BB58_49 Depth=1
	movq	%rbx, %rdi
	callq	linit23
.LBB58_52:                              # %if.end172
                                        #   in Loop: Header=BB58_49 Depth=1
	movq	-72(%rbp), %rax
	cmpw	$0, 20(%rax)
	je	.LBB58_54
# %bb.53:                               # %if.then174
                                        #   in Loop: Header=BB58_49 Depth=1
	movq	%rbx, %rdi
	callq	linit24
	jmp	.LBB58_55
.LBB58_54:                              # %if.else178
                                        #   in Loop: Header=BB58_49 Depth=1
	movq	%rbx, %rdi
	callq	linit25
	jmp	.LBB58_55
.LBB58_56:                              # %for.end183
	leaq	-72(%rbp), %r15
	leaq	-48(%rbp), %r14
	movq	%r15, %rdi
	movq	%r14, %rsi
	callq	linit27
	leaq	-56(%rbp), %rbx
	movl	$128, %r13d
	leaq	-80(%rbp), %r12
	cmpl	$0, -48(%rbp)
	jg	.LBB58_58
	jmp	.LBB58_78
.LBB58_77:                              # %for.inc261
                                        #   in Loop: Header=BB58_58 Depth=1
	movq	%r15, %rdi
	movq	%r14, %rsi
	callq	linit34
	cmpl	$0, -48(%rbp)
	jle	.LBB58_78
.LBB58_58:                              # %for.body187
                                        # =>This Loop Header: Depth=1
                                        #     Child Loop BB58_68 Depth 2
                                        #       Child Loop BB58_69 Depth 3
	movq	-72(%rbp), %rax
	cmpw	$0, 20(%rax)
	je	.LBB58_59
# %bb.67:                               # %if.else193
                                        #   in Loop: Header=BB58_58 Depth=1
	movq	%rbx, %rdi
	movq	%r12, %rsi
	movq	%r15, %rdx
	callq	linit28
	jmp	.LBB58_68
.LBB58_75:                              # %if.else213
                                        #   in Loop: Header=BB58_68 Depth=2
	movq	%rbx, %rdi
	movq	%r12, %rsi
	callq	linit30
.LBB58_68:                              # %while.cond
                                        #   Parent Loop BB58_58 Depth=1
                                        # =>  This Loop Header: Depth=2
                                        #       Child Loop BB58_69 Depth 3
	movl	$0, -60(%rbp)
	jmp	.LBB58_69
.LBB58_74:                              # %if.then209
                                        #   in Loop: Header=BB58_69 Depth=3
	movq	%rbx, %rdi
	callq	linit29
	movl	$1, -60(%rbp)
.LBB58_69:                              # %while.cond
                                        #   Parent Loop BB58_58 Depth=1
                                        #     Parent Loop BB58_68 Depth=2
                                        # =>    This Inner Loop Header: Depth=3
	movq	-56(%rbp), %rax
	cmpl	$0, 8(%rax)
	je	.LBB58_71
# %bb.70:                               #   in Loop: Header=BB58_69 Depth=3
	xorl	%eax, %eax
	testb	%al, %al
	jne	.LBB58_73
	jmp	.LBB58_60
.LBB58_71:                              # %land.rhs
                                        #   in Loop: Header=BB58_69 Depth=3
	movq	-56(%rbp), %rax
	cmpq	$0, (%rax)
	setne	%al
	testb	%al, %al
	je	.LBB58_60
.LBB58_73:                              # %while.body
                                        #   in Loop: Header=BB58_69 Depth=3
	movq	-80(%rbp), %rax
	movq	-72(%rbp), %rcx
	cmpq	8(%rcx), %rax
	jne	.LBB58_75
	jmp	.LBB58_74
.LBB58_59:                              # %if.then192
                                        #   in Loop: Header=BB58_58 Depth=1
	movq	$0, -80(%rbp)
	movq	$sflagindex, -56(%rbp)
	movl	$1, -60(%rbp)
.LBB58_60:                              # %if.end220
                                        #   in Loop: Header=BB58_58 Depth=1
	movq	-56(%rbp), %rax
	cmpl	$0, 8(%rax)
	jne	.LBB58_62
# %bb.61:                               # %if.then224
                                        #   in Loop: Header=BB58_58 Depth=1
	movq	%rbx, %rdi
	movq	%r15, %rsi
	callq	linit31
.LBB58_62:                              # %if.end226
                                        #   in Loop: Header=BB58_58 Depth=1
	movq	-56(%rbp), %rax
	addl	$1, 8(%rax)
	cmpl	$0, -60(%rbp)
	jne	.LBB58_77
# %bb.63:                               # %land.lhs.true
                                        #   in Loop: Header=BB58_58 Depth=1
	movq	-56(%rbp), %rax
	cmpl	$4, 8(%rax)
	jl	.LBB58_77
# %bb.64:                               # %land.lhs.true232
                                        #   in Loop: Header=BB58_58 Depth=1
	movq	-72(%rbp), %rax
	movq	8(%rax), %rdi
	movq	-56(%rbp), %rax
	movq	(%rax), %rax
	movq	8(%rax), %rsi
	callq	strcmp
	testl	%eax, %eax
	je	.LBB58_77
# %bb.65:                               # %if.then240
                                        #   in Loop: Header=BB58_58 Depth=1
	movq	-56(%rbp), %rax
	movq	(%rax), %rax
	movq	$-256, %rcx
	addq	%rcx, %rax
	movq	%rax, -72(%rbp)
	movl	numsflags(%rip), %ecx
	subq	sflaglist(%rip), %rax
	shrq	$8, %rax
	subl	%eax, %ecx
	movl	%ecx, -48(%rbp)
	movl	hashheader+36(%rip), %edi
	addl	%r13d, %edi
	movl	$16, %esi
	callq	calloc
	movq	-56(%rbp), %rcx
	movq	%rax, (%rcx)
	movq	-56(%rbp), %rax
	cmpq	$0, (%rax)
	je	.LBB58_66
# %bb.76:                               # %if.end258
                                        #   in Loop: Header=BB58_58 Depth=1
	movq	%rbx, %rdi
	callq	linit33
	jmp	.LBB58_77
.LBB58_78:                              # %for.end264
	leaq	-72(%rbp), %r15
	leaq	-48(%rbp), %r14
	movq	%r15, %rdi
	movq	%r14, %rsi
	callq	linit35
	leaq	-56(%rbp), %rbx
	movq	$-256, %r13
	leaq	-80(%rbp), %r12
	cmpl	$0, -48(%rbp)
	jg	.LBB58_80
	jmp	.LBB58_100
.LBB58_99:                              # %for.inc353
                                        #   in Loop: Header=BB58_80 Depth=1
	movq	%r15, %rdi
	movq	%r14, %rsi
	callq	linit42
	cmpl	$0, -48(%rbp)
	jle	.LBB58_100
.LBB58_80:                              # %for.body268
                                        # =>This Loop Header: Depth=1
                                        #     Child Loop BB58_90 Depth 2
                                        #       Child Loop BB58_91 Depth 3
	movq	-72(%rbp), %rax
	cmpw	$0, 20(%rax)
	je	.LBB58_81
# %bb.89:                               # %if.else274
                                        #   in Loop: Header=BB58_80 Depth=1
	movq	%rbx, %rdi
	movq	%r12, %rsi
	movq	%r15, %rdx
	callq	linit36
	jmp	.LBB58_90
.LBB58_97:                              # %if.else297
                                        #   in Loop: Header=BB58_90 Depth=2
	movq	%rbx, %rdi
	movq	%r12, %rsi
	callq	linit38
.LBB58_90:                              # %while.cond279
                                        #   Parent Loop BB58_80 Depth=1
                                        # =>  This Loop Header: Depth=2
                                        #       Child Loop BB58_91 Depth 3
	movl	$0, -60(%rbp)
	jmp	.LBB58_91
.LBB58_96:                              # %if.then293
                                        #   in Loop: Header=BB58_91 Depth=3
	movq	%rbx, %rdi
	callq	linit37
	movl	$1, -60(%rbp)
.LBB58_91:                              # %while.cond279
                                        #   Parent Loop BB58_80 Depth=1
                                        #     Parent Loop BB58_90 Depth=2
                                        # =>    This Inner Loop Header: Depth=3
	movq	-56(%rbp), %rax
	cmpl	$0, 8(%rax)
	je	.LBB58_93
# %bb.92:                               #   in Loop: Header=BB58_91 Depth=3
	xorl	%eax, %eax
	testb	%al, %al
	jne	.LBB58_95
	jmp	.LBB58_82
.LBB58_93:                              # %land.rhs283
                                        #   in Loop: Header=BB58_91 Depth=3
	movq	-56(%rbp), %rax
	cmpq	$0, (%rax)
	setne	%al
	testb	%al, %al
	je	.LBB58_82
.LBB58_95:                              # %while.body289
                                        #   in Loop: Header=BB58_91 Depth=3
	movq	-80(%rbp), %rax
	cmpb	$0, (%rax)
	jne	.LBB58_97
	jmp	.LBB58_96
.LBB58_81:                              # %if.then273
                                        #   in Loop: Header=BB58_80 Depth=1
	movq	$0, -80(%rbp)
	movq	$pflagindex, -56(%rbp)
	movl	$1, -60(%rbp)
.LBB58_82:                              # %if.end305
                                        #   in Loop: Header=BB58_80 Depth=1
	movq	-56(%rbp), %rax
	cmpl	$0, 8(%rax)
	jne	.LBB58_84
# %bb.83:                               # %if.then309
                                        #   in Loop: Header=BB58_80 Depth=1
	movq	%rbx, %rdi
	movq	%r15, %rsi
	callq	linit39
.LBB58_84:                              # %if.end312
                                        #   in Loop: Header=BB58_80 Depth=1
	movq	-56(%rbp), %rax
	addl	$1, 8(%rax)
	cmpl	$0, -60(%rbp)
	jne	.LBB58_99
# %bb.85:                               # %land.lhs.true316
                                        #   in Loop: Header=BB58_80 Depth=1
	movq	-56(%rbp), %rax
	cmpl	$4, 8(%rax)
	jl	.LBB58_99
# %bb.86:                               # %land.lhs.true320
                                        #   in Loop: Header=BB58_80 Depth=1
	movq	-72(%rbp), %rax
	movq	8(%rax), %rdi
	movq	-56(%rbp), %rax
	movq	(%rax), %rax
	movq	8(%rax), %rsi
	callq	strcmp
	testl	%eax, %eax
	je	.LBB58_99
# %bb.87:                               # %if.then328
                                        #   in Loop: Header=BB58_80 Depth=1
	movq	-56(%rbp), %rax
	movq	(%rax), %rax
	addq	%r13, %rax
	movq	%rax, -72(%rbp)
	movl	numpflags(%rip), %ecx
	subq	pflaglist(%rip), %rax
	shrq	$8, %rax
	subl	%eax, %ecx
	movl	%ecx, -48(%rbp)
	movslq	hashheader+36(%rip), %rdi
	subq	$-128, %rdi
	movl	$16, %esi
	callq	calloc
	movq	-56(%rbp), %rcx
	movq	%rax, (%rcx)
	movq	-56(%rbp), %rax
	cmpq	$0, (%rax)
	je	.LBB58_88
# %bb.98:                               # %if.end350
                                        #   in Loop: Header=BB58_80 Depth=1
	movq	%rbx, %rdi
	callq	linit41
	jmp	.LBB58_99
.LBB58_100:                             # %for.end356
	cmpl	$0, hashheader+40(%rip)
	je	.LBB58_101
# %bb.103:                              # %if.else360
	movslq	hashheader+40(%rip), %rax
	shlq	$3, %rax
	leaq	(%rax,%rax,2), %rdi
	callq	malloc
	movq	%rax, chartypes(%rip)
	testq	%rax, %rax
	je	.LBB58_104
# %bb.105:                              # %if.end368
	leaq	-84(%rbp), %rbx
	leaq	-48(%rbp), %r14
	movq	%rbx, %rdi
	movq	%r14, %rsi
	callq	linit44
	jmp	.LBB58_106
.LBB58_110:                             # %for.inc417
                                        #   in Loop: Header=BB58_106 Depth=1
	movq	%rbx, %rdi
	callq	linit47
	movq	%r14, %rdi
	callq	linit48
.LBB58_106:                             # %for.cond369
                                        # =>This Loop Header: Depth=1
                                        #     Child Loop BB58_108 Depth 2
	movl	-48(%rbp), %eax
	cmpl	hashheader+40(%rip), %eax
	jge	.LBB58_102
# %bb.107:                              # %for.body372
                                        #   in Loop: Header=BB58_106 Depth=1
	movq	%r14, %rdi
	movq	%rbx, %rsi
	callq	linit45
	jmp	.LBB58_108
.LBB58_109:                             # %while.body407
                                        #   in Loop: Header=BB58_108 Depth=2
	movq	%rbx, %rdi
	callq	linit46
.LBB58_108:                             # %while.cond401
                                        #   Parent Loop BB58_106 Depth=1
                                        # =>  This Inner Loop Header: Depth=2
	movslq	-84(%rbp), %rax
	movq	hashstrings(%rip), %rcx
	cmpb	$0, (%rcx,%rax)
	jne	.LBB58_109
	jmp	.LBB58_110
.LBB58_101:                             # %if.then359
	movq	$0, chartypes(%rip)
.LBB58_102:                             # %if.end420
	leaq	-44(%rbp), %rdi
	callq	linit49
	jmp	.LBB58_33
.LBB58_104:                             # %if.then366
	leaq	-44(%rbp), %rdi
	callq	linit43
	jmp	.LBB58_33
.LBB58_66:                              # %if.then256
	callq	linit32
	movl	$-1, -44(%rbp)
	jmp	.LBB58_33
.LBB58_88:                              # %if.then348
	callq	linit40
	movl	$-1, -44(%rbp)
	jmp	.LBB58_33
.Lfunc_end58:
	.size	linit, .Lfunc_end58-linit
	.cfi_endproc
                                        # -- End function
	.globl	findfiletype            # -- Begin function findfiletype
	.p2align	4, 0x90
	.type	findfiletype,@function
findfiletype:                           # @findfiletype
	.cfi_startproc
# %bb.0:                                # %entry
	pushq	%rbp
	.cfi_def_cfa_offset 16
	.cfi_offset %rbp, -16
	movq	%rsp, %rbp
	.cfi_def_cfa_register %rbp
	pushq	%r15
	pushq	%r14
	pushq	%rbx
	subq	$72, %rsp
	.cfi_offset %rbx, -40
	.cfi_offset %r14, -32
	.cfi_offset %r15, -24
	movq	%rdx, %r14
	movl	%esi, %r15d
	movq	%rdi, %rbx
	movl	$222222487, -84(%rbp)   # imm = 0xD3ED897
	movl	$555555820, -80(%rbp)   # imm = 0x211D1BEC
	movl	$444444709, -76(%rbp)   # imm = 0x1A7DB025
	movl	$222222487, %edi        # imm = 0xD3ED897
	movl	$555555820, %esi        # imm = 0x211D1BEC
	movl	$444444709, %edx        # imm = 0x1A7DB025
	callq	guardMe
	movq	%rbx, -72(%rbp)
	movl	%r15d, -60(%rbp)
	movq	%r14, -48(%rbp)
	movq	%rbx, %rdi
	callq	strlen
	movl	%eax, -36(%rbp)
	cmpl	$0, -60(%rbp)
	je	.LBB59_8
# %bb.1:                                # %if.then
	movl	$0, -28(%rbp)
	leaq	-28(%rbp), %rbx
	jmp	.LBB59_2
	.p2align	4, 0x90
.LBB59_7:                               # %for.inc
                                        #   in Loop: Header=BB59_2 Depth=1
	movq	%rbx, %rdi
	callq	findfiletype2
.LBB59_2:                               # %for.cond
                                        # =>This Inner Loop Header: Depth=1
	movl	-28(%rbp), %eax
	cmpl	hashheader+40(%rip), %eax
	jge	.LBB59_8
# %bb.3:                                # %for.body
                                        #   in Loop: Header=BB59_2 Depth=1
	movq	-72(%rbp), %rdi
	movslq	-28(%rbp), %rax
	movq	chartypes(%rip), %rcx
	leaq	(%rax,%rax,2), %rax
	movq	(%rcx,%rax,8), %rsi
	callq	strcmp
	testl	%eax, %eax
	jne	.LBB59_7
# %bb.4:                                # %if.then6
	cmpq	$0, -48(%rbp)
	je	.LBB59_6
# %bb.5:                                # %if.then9
	leaq	-48(%rbp), %rdi
	leaq	-28(%rbp), %rsi
	callq	findfiletype0
.LBB59_6:                               # %if.end
	leaq	-32(%rbp), %rdi
	leaq	-28(%rbp), %rsi
	callq	findfiletype1
	jmp	.LBB59_20
.LBB59_8:                               # %if.end17
	movl	$0, -28(%rbp)
	leaq	-56(%rbp), %rbx
	leaq	-28(%rbp), %r14
	leaq	-40(%rbp), %r15
	jmp	.LBB59_9
	.p2align	4, 0x90
.LBB59_18:                              # %for.inc52
                                        #   in Loop: Header=BB59_9 Depth=1
	movq	%r14, %rdi
	callq	findfiletype7
.LBB59_9:                               # %for.cond18
                                        # =>This Loop Header: Depth=1
                                        #     Child Loop BB59_11 Depth 2
	movl	-28(%rbp), %eax
	cmpl	hashheader+40(%rip), %eax
	jge	.LBB59_19
# %bb.10:                               # %for.body21
                                        #   in Loop: Header=BB59_9 Depth=1
	movq	%rbx, %rdi
	movq	%r14, %rsi
	callq	findfiletype3
	jmp	.LBB59_11
	.p2align	4, 0x90
.LBB59_17:                              # %for.inc50
                                        #   in Loop: Header=BB59_11 Depth=2
	movq	%rbx, %rdi
	movq	%r15, %rsi
	callq	findfiletype6
.LBB59_11:                              # %for.cond24
                                        #   Parent Loop BB59_9 Depth=1
                                        # =>  This Inner Loop Header: Depth=2
	movq	-56(%rbp), %rax
	cmpb	$0, (%rax)
	je	.LBB59_18
# %bb.12:                               # %for.body28
                                        #   in Loop: Header=BB59_11 Depth=2
	movq	-56(%rbp), %rdi
	callq	strlen
	movl	%eax, -40(%rbp)
	cmpl	%eax, -36(%rbp)
	jl	.LBB59_17
# %bb.13:                               # %land.lhs.true
                                        #   in Loop: Header=BB59_11 Depth=2
	movslq	-36(%rbp), %rdi
	movslq	-40(%rbp), %rax
	subq	%rax, %rdi
	addq	-72(%rbp), %rdi
	movq	-56(%rbp), %rsi
	callq	strcmp
	testl	%eax, %eax
	jne	.LBB59_17
# %bb.14:                               # %if.then38
	cmpq	$0, -48(%rbp)
	je	.LBB59_16
# %bb.15:                               # %if.then41
	leaq	-48(%rbp), %rdi
	leaq	-28(%rbp), %rsi
	callq	findfiletype4
.LBB59_16:                              # %if.end48
	leaq	-32(%rbp), %rdi
	leaq	-28(%rbp), %rsi
	callq	findfiletype5
.LBB59_20:                              # %return
	movl	-32(%rbp), %eax
	addq	$72, %rsp
	popq	%rbx
	popq	%r14
	popq	%r15
	popq	%rbp
	retq
.LBB59_19:                              # %for.end54
	movl	$-1, -32(%rbp)
	jmp	.LBB59_20
.Lfunc_end59:
	.size	findfiletype, .Lfunc_end59-findfiletype
	.cfi_endproc
                                        # -- End function
	.globl	main33                  # -- Begin function main33
	.p2align	4, 0x90
	.type	main33,@function
main33:                                 # @main33
	.cfi_startproc
# %bb.0:                                # %entry
	subq	$24, %rsp
	.cfi_def_cfa_offset 32
	movq	%rdi, 16(%rsp)
	movq	(%rdi), %rdx
	movq	%rdx, 8(%rsp)
	movq	stderr(%rip), %rdi
	movl	$.L.str.131, %esi
	xorl	%eax, %eax
	callq	fprintf
	movl	$1, %edi
	callq	exit
	movq	16(%rsp), %rax
	movq	8(%rsp), %rcx
	movq	%rcx, (%rax)
	addq	$24, %rsp
	retq
.Lfunc_end60:
	.size	main33, .Lfunc_end60-main33
	.cfi_endproc
                                        # -- End function
	.globl	main34                  # -- Begin function main34
	.p2align	4, 0x90
	.type	main34,@function
main34:                                 # @main34
	.cfi_startproc
# %bb.0:                                # %entry
	movl	prefstringchar(%rip), %eax
	movl	%eax, defdupchar(%rip)
	retq
.Lfunc_end61:
	.size	main34, .Lfunc_end61-main34
	.cfi_endproc
                                        # -- End function
	.globl	main35                  # -- Begin function main35
	.p2align	4, 0x90
	.type	main35,@function
main35:                                 # @main35
	.cfi_startproc
# %bb.0:                                # %entry
	movsbl	hashheader+66(%rip), %eax
	movl	%eax, compoundflag(%rip)
	retq
.Lfunc_end62:
	.size	main35, .Lfunc_end62-main35
	.cfi_endproc
                                        # -- End function
	.globl	main36                  # -- Begin function main36
	.p2align	4, 0x90
	.type	main36,@function
main36:                                 # @main36
	.cfi_startproc
# %bb.0:                                # %entry
	movsbl	hashheader+67(%rip), %eax
	movl	%eax, tryhardflag(%rip)
	retq
.Lfunc_end63:
	.size	main36, .Lfunc_end63-main36
	.cfi_endproc
                                        # -- End function
	.p2align	4, 0x90         # -- Begin function initckch
	.type	initckch,@function
initckch:                               # @initckch
	.cfi_startproc
# %bb.0:                                # %entry
	pushq	%rbp
	.cfi_def_cfa_offset 16
	.cfi_offset %rbp, -16
	movq	%rsp, %rbp
	.cfi_def_cfa_register %rbp
	pushq	%r15
	pushq	%r14
	pushq	%r12
	pushq	%rbx
	subq	$16, %rsp
	.cfi_offset %rbx, -48
	.cfi_offset %r12, -40
	.cfi_offset %r14, -32
	.cfi_offset %r15, -24
	movq	%rdi, -48(%rbp)
	movb	$0, -33(%rbp)
	movl	$128, %ebx
	jmp	.LBB64_1
	.p2align	4, 0x90
.LBB64_8:                               # %for.inc
                                        #   in Loop: Header=BB64_1 Depth=1
	addb	$1, -33(%rbp)
.LBB64_1:                               # %for.cond
                                        # =>This Inner Loop Header: Depth=1
	movzbl	-33(%rbp), %eax
	movl	hashheader+36(%rip), %ecx
	addl	%ebx, %ecx
	movzbl	%cl, %ecx
	cmpl	%ecx, %eax
	jge	.LBB64_9
# %bb.2:                                # %for.body
                                        #   in Loop: Header=BB64_1 Depth=1
	movzbl	-33(%rbp), %eax
	cmpb	$0, hashheader+982(%rax)
	je	.LBB64_5
# %bb.3:                                # %if.then
                                        #   in Loop: Header=BB64_1 Depth=1
	movzbl	-33(%rbp), %eax
	cmpb	$0, hashheader+1438(%rax)
	jne	.LBB64_8
# %bb.4:                                # %if.then7
                                        #   in Loop: Header=BB64_1 Depth=1
	movzbl	-33(%rbp), %edi
	callq	initckch0
	jmp	.LBB64_7
	.p2align	4, 0x90
.LBB64_5:                               # %if.else
                                        #   in Loop: Header=BB64_1 Depth=1
	movzbl	-33(%rbp), %eax
	cmpb	$0, hashheader+1666(%rax)
	je	.LBB64_8
# %bb.6:                                # %if.then13
                                        #   in Loop: Header=BB64_1 Depth=1
	movzbl	-33(%rbp), %eax
	movslq	Trynum(%rip), %rcx
	movb	%al, Try(%rcx)
.LBB64_7:                               # %for.inc
                                        #   in Loop: Header=BB64_1 Depth=1
	addl	$1, Trynum(%rip)
	jmp	.LBB64_8
.LBB64_9:                               # %for.end
	cmpq	$0, -48(%rbp)
	je	.LBB64_33
# %bb.10:                               # %if.then22
	leaq	-33(%rbp), %r15
	leaq	-48(%rbp), %r14
	leaq	-37(%rbp), %r12
	jmp	.LBB64_11
	.p2align	4, 0x90
.LBB64_32:                              # %if.then128
                                        #   in Loop: Header=BB64_11 Depth=1
	movq	%r15, %rdi
	callq	initckch2
.LBB64_11:                              # %while.cond
                                        # =>This Inner Loop Header: Depth=1
	cmpl	$127, Trynum(%rip)
	jg	.LBB64_12
# %bb.13:                               # %land.rhs
                                        #   in Loop: Header=BB64_11 Depth=1
	movq	-48(%rbp), %rax
	cmpb	$0, (%rax)
	setne	%al
	testb	%al, %al
	jne	.LBB64_15
	jmp	.LBB64_33
	.p2align	4, 0x90
.LBB64_12:                              #   in Loop: Header=BB64_11 Depth=1
	xorl	%eax, %eax
	testb	%al, %al
	je	.LBB64_33
.LBB64_15:                              # %while.body
                                        #   in Loop: Header=BB64_11 Depth=1
	movq	-48(%rbp), %rax
	cmpb	$110, (%rax)
	je	.LBB64_18
# %bb.16:                               # %land.lhs.true
                                        #   in Loop: Header=BB64_11 Depth=1
	movq	-48(%rbp), %rax
	cmpb	$92, (%rax)
	je	.LBB64_18
# %bb.17:                               # %if.then34
                                        #   in Loop: Header=BB64_11 Depth=1
	movq	%r15, %rdi
	movq	%r14, %rsi
	callq	initckch1
	jmp	.LBB64_31
	.p2align	4, 0x90
.LBB64_18:                              # %if.else35
                                        #   in Loop: Header=BB64_11 Depth=1
	movq	-48(%rbp), %rax
	leaq	1(%rax), %rcx
	movq	%rcx, -48(%rbp)
	movl	$0, -37(%rbp)
	movsbq	1(%rax), %rbx
	callq	__ctype_b_loc
	movq	(%rax), %rax
	movzwl	(%rax,%rbx,2), %eax
	testb	$8, %ah
	je	.LBB64_22
# %bb.19:                               # %if.then47
                                        #   in Loop: Header=BB64_11 Depth=1
	movq	-48(%rbp), %rax
	movzbl	(%rax), %ecx
	movb	%cl, -37(%rbp)
	movsbq	1(%rax), %rbx
	callq	__ctype_b_loc
	movq	(%rax), %rax
	movzwl	(%rax,%rbx,2), %eax
	testb	$8, %ah
	je	.LBB64_22
# %bb.20:                               # %if.then58
                                        #   in Loop: Header=BB64_11 Depth=1
	movq	-48(%rbp), %rax
	movzbl	1(%rax), %ecx
	movb	%cl, -36(%rbp)
	movsbq	2(%rax), %rbx
	callq	__ctype_b_loc
	movq	(%rax), %rax
	movzwl	(%rax,%rbx,2), %eax
	testb	$8, %ah
	je	.LBB64_22
# %bb.21:                               # %if.then69
                                        #   in Loop: Header=BB64_11 Depth=1
	movq	-48(%rbp), %rax
	movzbl	2(%rax), %eax
	movb	%al, -35(%rbp)
	.p2align	4, 0x90
.LBB64_22:                              # %if.end74
                                        #   in Loop: Header=BB64_11 Depth=1
	movq	-48(%rbp), %rax
	cmpb	$110, -1(%rax)
	jne	.LBB64_24
# %bb.23:                               # %if.then79
                                        #   in Loop: Header=BB64_11 Depth=1
	movq	%r12, %rdi
	callq	strlen
	addq	%rax, -48(%rbp)
	movq	%r12, %rdi
	callq	atoi
	jmp	.LBB64_30
	.p2align	4, 0x90
.LBB64_24:                              # %if.else84
                                        #   in Loop: Header=BB64_11 Depth=1
	movq	%r12, %rdi
	callq	strlen
	addq	%rax, -48(%rbp)
	movb	$0, -33(%rbp)
	cmpb	$0, -37(%rbp)
	je	.LBB64_26
# %bb.25:                               # %if.then90
                                        #   in Loop: Header=BB64_11 Depth=1
	movzbl	-37(%rbp), %eax
	addl	$-48, %eax
	movb	%al, -33(%rbp)
.LBB64_26:                              # %if.end94
                                        #   in Loop: Header=BB64_11 Depth=1
	cmpb	$0, -36(%rbp)
	je	.LBB64_28
# %bb.27:                               # %if.then97
                                        #   in Loop: Header=BB64_11 Depth=1
	shlb	$3, -33(%rbp)
	movzbl	-36(%rbp), %eax
	movzbl	-33(%rbp), %ecx
	leal	(%rcx,%rax), %eax
	addl	$-48, %eax
	movb	%al, -33(%rbp)
.LBB64_28:                              # %if.end106
                                        #   in Loop: Header=BB64_11 Depth=1
	cmpb	$0, -35(%rbp)
	je	.LBB64_31
# %bb.29:                               # %if.then109
                                        #   in Loop: Header=BB64_11 Depth=1
	shlb	$3, -33(%rbp)
	movzbl	-35(%rbp), %eax
	movzbl	-33(%rbp), %ecx
	leal	(%rcx,%rax), %eax
	addl	$-48, %eax
.LBB64_30:                              # %if.end121
                                        #   in Loop: Header=BB64_11 Depth=1
	movb	%al, -33(%rbp)
.LBB64_31:                              # %if.end121
                                        #   in Loop: Header=BB64_11 Depth=1
	movzbl	-33(%rbp), %eax
	andl	$127, %eax
	movb	%al, -33(%rbp)
	movzbl	-33(%rbp), %eax
	cmpb	$0, hashheader+982(%rax)
	jne	.LBB64_11
	jmp	.LBB64_32
.LBB64_33:                              # %if.end139
	addq	$16, %rsp
	popq	%rbx
	popq	%r12
	popq	%r14
	popq	%r15
	popq	%rbp
	retq
.Lfunc_end64:
	.size	initckch, .Lfunc_end64-initckch
	.cfi_endproc
                                        # -- End function
	.globl	main37                  # -- Begin function main37
	.p2align	4, 0x90
	.type	main37,@function
main37:                                 # @main37
	.cfi_startproc
# %bb.0:                                # %entry
	movq	%rdi, -8(%rsp)
	movq	(%rdi), %rax
	movq	%rax, -16(%rsp)
	movb	$0, (%rax)
	movq	-8(%rsp), %rax
	movq	-16(%rsp), %rcx
	movq	%rcx, (%rax)
	retq
.Lfunc_end65:
	.size	main37, .Lfunc_end65-main37
	.cfi_endproc
                                        # -- End function
	.globl	main38                  # -- Begin function main38
	.p2align	4, 0x90
	.type	main38,@function
main38:                                 # @main38
	.cfi_startproc
# %bb.0:                                # %entry
	subq	$24, %rsp
	.cfi_def_cfa_offset 32
	movq	%rdi, 16(%rsp)
	movq	(%rdi), %rdi
	movq	%rdi, 8(%rsp)
	movq	LibDict(%rip), %rsi
	callq	treeinit
	movq	16(%rsp), %rax
	movq	8(%rsp), %rcx
	movq	%rcx, (%rax)
	addq	$24, %rsp
	retq
.Lfunc_end66:
	.size	main38, .Lfunc_end66-main38
	.cfi_endproc
                                        # -- End function
	.globl	main39                  # -- Begin function main39
	.p2align	4, 0x90
	.type	main39,@function
main39:                                 # @main39
	.cfi_startproc
# %bb.0:                                # %entry
	pushq	%rax
	.cfi_def_cfa_offset 16
	callq	askmode
	callq	treeoutput
	xorl	%edi, %edi
	callq	exit
	popq	%rax
	retq
.Lfunc_end67:
	.size	main39, .Lfunc_end67-main39
	.cfi_endproc
                                        # -- End function
	.globl	main40                  # -- Begin function main40
	.p2align	4, 0x90
	.type	main40,@function
main40:                                 # @main40
	.cfi_startproc
# %bb.0:                                # %entry
	pushq	%rax
	.cfi_def_cfa_offset 16
	movl	eflag(%rip), %edi
	callq	expandmode
	xorl	%edi, %edi
	callq	exit
	popq	%rax
	retq
.Lfunc_end68:
	.size	main40, .Lfunc_end68-main40
	.cfi_endproc
                                        # -- End function
	.globl	main41                  # -- Begin function main41
	.p2align	4, 0x90
	.type	main41,@function
main41:                                 # @main41
	.cfi_startproc
# %bb.0:                                # %entry
	pushq	%rax
	.cfi_def_cfa_offset 16
	callq	dumpmode
	xorl	%edi, %edi
	callq	exit
	popq	%rax
	retq
.Lfunc_end69:
	.size	main41, .Lfunc_end69-main41
	.cfi_endproc
                                        # -- End function
	.globl	main42                  # -- Begin function main42
	.p2align	4, 0x90
	.type	main42,@function
main42:                                 # @main42
	.cfi_startproc
# %bb.0:                                # %entry
	pushq	%rax
	.cfi_def_cfa_offset 16
	movq	stdin(%rip), %rax
	movq	%rax, infile(%rip)
	movq	stdout(%rip), %rax
	movq	%rax, outfile(%rip)
	callq	checkfile
	xorl	%edi, %edi
	callq	exit
	popq	%rax
	retq
.Lfunc_end70:
	.size	main42, .Lfunc_end70-main42
	.cfi_endproc
                                        # -- End function
	.globl	main43                  # -- Begin function main43
	.p2align	4, 0x90
	.type	main43,@function
main43:                                 # @main43
	.cfi_startproc
# %bb.0:                                # %entry
	subq	$24, %rsp
	.cfi_def_cfa_offset 32
	movq	%rdi, 16(%rsp)
	movq	(%rdi), %rax
	leaq	8(%rax), %rcx
	movq	%rcx, 8(%rsp)
	movq	(%rax), %rdi
	callq	dofile
	movq	16(%rsp), %rax
	movq	8(%rsp), %rcx
	movq	%rcx, (%rax)
	addq	$24, %rsp
	retq
.Lfunc_end71:
	.size	main43, .Lfunc_end71-main43
	.cfi_endproc
                                        # -- End function
	.p2align	4, 0x90         # -- Begin function dofile
	.type	dofile,@function
dofile:                                 # @dofile
	.cfi_startproc
# %bb.0:                                # %entry
	pushq	%rbp
	.cfi_def_cfa_offset 16
	.cfi_offset %rbp, -16
	movq	%rsp, %rbp
	.cfi_def_cfa_register %rbp
	pushq	%rbx
	subq	$216, %rsp
	.cfi_offset %rbx, -24
	movq	%rdi, %rbx
	movl	$222222280, -72(%rbp)   # imm = 0xD3ED7C8
	movl	$555555613, -68(%rbp)   # imm = 0x211D1B1D
	movl	$444444502, -64(%rbp)   # imm = 0x1A7DAF56
	movl	$222222280, %edi        # imm = 0xD3ED7C8
	movl	$555555613, %esi        # imm = 0x211D1B1D
	movl	$444444502, %edx        # imm = 0x1A7DAF56
	callq	guardMe
	movl	$222222279, -60(%rbp)   # imm = 0xD3ED7C7
	movl	$555555612, -56(%rbp)   # imm = 0x211D1B1C
	movl	$444444501, -52(%rbp)   # imm = 0x1A7DAF55
	movl	$222222279, %edi        # imm = 0xD3ED7C7
	movl	$555555612, %esi        # imm = 0x211D1B1C
	movl	$444444501, %edx        # imm = 0x1A7DAF55
	callq	guardMe
	movl	$222222278, -48(%rbp)   # imm = 0xD3ED7C6
	movl	$555555611, -44(%rbp)   # imm = 0x211D1B1B
	movl	$444444500, -40(%rbp)   # imm = 0x1A7DAF54
	movl	$222222278, %edi        # imm = 0xD3ED7C6
	movl	$555555611, %esi        # imm = 0x211D1B1B
	movl	$444444500, %edx        # imm = 0x1A7DAF54
	callq	guardMe
	movl	$222222277, -36(%rbp)   # imm = 0xD3ED7C5
	movl	$555555610, -32(%rbp)   # imm = 0x211D1B1A
	movl	$444444499, -28(%rbp)   # imm = 0x1A7DAF53
	movl	$222222277, %edi        # imm = 0xD3ED7C5
	movl	$555555610, %esi        # imm = 0x211D1B1A
	movl	$444444499, %edx        # imm = 0x1A7DAF53
	callq	guardMe
	movq	%rbx, -16(%rbp)
	movq	%rbx, currentfile(%rip)
	movl	deftflag(%rip), %eax
	movl	%eax, tflag(%rip)
	testl	%eax, %eax
	js	.LBB72_1
# %bb.5:                                # %if.end
	cmpl	$0, prefstringchar(%rip)
	jns	.LBB72_8
	jmp	.LBB72_6
.LBB72_1:                               # %if.then
	movq	-16(%rbp), %rdi
	movl	$46, %esi
	callq	rindex
	movq	%rax, -24(%rbp)
	testq	%rax, %rax
	je	.LBB72_2
# %bb.3:                                # %land.rhs
	movq	-24(%rbp), %rdi
	movl	$.L.str.176, %esi
	callq	strcmp
	testl	%eax, %eax
	sete	%al
	jmp	.LBB72_4
.LBB72_2:
	xorl	%eax, %eax
.LBB72_4:                               # %land.end
	movzbl	%al, %eax
	movl	%eax, tflag(%rip)
	cmpl	$0, prefstringchar(%rip)
	jns	.LBB72_8
.LBB72_6:                               # %if.then5
	xorl	%eax, %eax
	cmpl	$0, deftflag(%rip)
	movq	-16(%rbp), %rdi
	movl	$tflag, %edx
	cmovnsq	%rax, %rdx
	xorl	%esi, %esi
	callq	findfiletype
	movl	%eax, defdupchar(%rip)
	testl	%eax, %eax
	jns	.LBB72_8
# %bb.7:                                # %if.then9
	movl	$0, defdupchar(%rip)
.LBB72_8:                               # %if.end11
	movq	-16(%rbp), %rdi
	movl	$.L.str.177, %esi
	callq	fopen
	movq	%rax, infile(%rip)
	testq	%rax, %rax
	je	.LBB72_9
# %bb.10:                               # %if.end17
	movq	-16(%rbp), %rdi
	movl	$2, %esi
	xorl	%eax, %eax
	callq	access
	movl	%eax, %ecx
	shrl	$31, %ecx
	movl	%ecx, readonly(%rip)
	testl	%eax, %eax
	jns	.LBB72_12
# %bb.11:                               # %if.then20
	leaq	-16(%rbp), %rdi
	callq	dofile1
.LBB72_12:                              # %if.end23
	movq	infile(%rip), %rdi
	callq	fileno
	leaq	-216(%rbp), %rsi
	movl	%eax, %edi
	callq	fstat
	movl	$tempfile, %edi
	movl	$.L.str.115, %esi
	callq	strcpy
	movl	$tempfile, %edi
	callq	mktemp
	testq	%rax, %rax
	je	.LBB72_15
# %bb.13:                               # %lor.lhs.false
	cmpb	$0, tempfile(%rip)
	je	.LBB72_15
# %bb.14:                               # %lor.lhs.false33
	movl	$tempfile, %edi
	movl	$.L.str.180, %esi
	callq	fopen
	movq	%rax, outfile(%rip)
	testq	%rax, %rax
	je	.LBB72_15
# %bb.16:                               # %if.end44
	movl	-192(%rbp), %esi
	movl	$tempfile, %edi
	callq	chmod
	movl	$0, quit(%rip)
	movl	$0, changes(%rip)
	callq	checkfile
	movq	infile(%rip), %rdi
	callq	fclose
	movq	outfile(%rip), %rdi
	callq	fclose
	cmpl	$0, cflag(%rip)
	jne	.LBB72_18
# %bb.17:                               # %if.then49
	callq	treeoutput
.LBB72_18:                              # %if.end50
	cmpl	$0, changes(%rip)
	je	.LBB72_21
# %bb.19:                               # %land.lhs.true
	cmpl	$0, readonly(%rip)
	jne	.LBB72_21
# %bb.20:                               # %if.then53
	leaq	-216(%rbp), %rdi
	leaq	-16(%rbp), %rsi
	callq	dofile3
.LBB72_21:                              # %if.end54
	movl	$tempfile, %edi
	xorl	%eax, %eax
	callq	unlink
	jmp	.LBB72_22
.LBB72_15:                              # %if.then37
	callq	dofile2
	jmp	.LBB72_22
.LBB72_9:                               # %if.then14
	leaq	-16(%rbp), %rdi
	callq	dofile0
.LBB72_22:                              # %return
	addq	$216, %rsp
	popq	%rbx
	popq	%rbp
	retq
.Lfunc_end72:
	.size	dofile, .Lfunc_end72-dofile
	.cfi_endproc
                                        # -- End function
	.globl	dofile0                 # -- Begin function dofile0
	.p2align	4, 0x90
	.type	dofile0,@function
dofile0:                                # @dofile0
	.cfi_startproc
# %bb.0:                                # %entry
	subq	$24, %rsp
	.cfi_def_cfa_offset 32
	movq	%rdi, 16(%rsp)
	movq	(%rdi), %rdx
	movq	%rdx, 8(%rsp)
	movq	stderr(%rip), %rdi
	movl	$.L.str.178, %esi
	xorl	%eax, %eax
	callq	fprintf
	movl	$2, %edi
	xorl	%eax, %eax
	callq	sleep
	movq	16(%rsp), %rax
	movq	8(%rsp), %rcx
	movq	%rcx, (%rax)
	addq	$24, %rsp
	retq
.Lfunc_end73:
	.size	dofile0, .Lfunc_end73-dofile0
	.cfi_endproc
                                        # -- End function
	.globl	dofile1                 # -- Begin function dofile1
	.p2align	4, 0x90
	.type	dofile1,@function
dofile1:                                # @dofile1
	.cfi_startproc
# %bb.0:                                # %entry
	subq	$24, %rsp
	.cfi_def_cfa_offset 32
	movq	%rdi, 16(%rsp)
	movq	(%rdi), %rdx
	movq	%rdx, 8(%rsp)
	movq	stderr(%rip), %rdi
	movl	$.L.str.179, %esi
	xorl	%eax, %eax
	callq	fprintf
	movl	$2, %edi
	xorl	%eax, %eax
	callq	sleep
	movq	16(%rsp), %rax
	movq	8(%rsp), %rcx
	movq	%rcx, (%rax)
	addq	$24, %rsp
	retq
.Lfunc_end74:
	.size	dofile1, .Lfunc_end74-dofile1
	.cfi_endproc
                                        # -- End function
	.globl	dofile2                 # -- Begin function dofile2
	.p2align	4, 0x90
	.type	dofile2,@function
dofile2:                                # @dofile2
	.cfi_startproc
# %bb.0:                                # %entry
	pushq	%rax
	.cfi_def_cfa_offset 16
	movq	stderr(%rip), %rdi
	movl	$tempfile, %eax
	cmpb	$0, tempfile(%rip)
	movl	$.L.str.182, %edx
	cmovneq	%rax, %rdx
	movl	$.L.str.181, %esi
	xorl	%eax, %eax
	callq	fprintf
	movl	$2, %edi
	xorl	%eax, %eax
	callq	sleep
	popq	%rax
	retq
.Lfunc_end75:
	.size	dofile2, .Lfunc_end75-dofile2
	.cfi_endproc
                                        # -- End function
	.globl	checkfile               # -- Begin function checkfile
	.p2align	4, 0x90
	.type	checkfile,@function
checkfile:                              # @checkfile
	.cfi_startproc
# %bb.0:                                # %entry
	pushq	%rbp
	.cfi_def_cfa_offset 16
	.cfi_offset %rbp, -16
	movq	%rsp, %rbp
	.cfi_def_cfa_register %rbp
	pushq	%r15
	pushq	%r14
	pushq	%rbx
	subq	$72, %rsp
	.cfi_offset %rbx, -40
	.cfi_offset %r14, -32
	.cfi_offset %r15, -24
	movl	$222222267, -84(%rbp)   # imm = 0xD3ED7BB
	movl	$555555600, -80(%rbp)   # imm = 0x211D1B10
	movl	$444444489, -76(%rbp)   # imm = 0x1A7DAF49
	movl	$222222267, %edi        # imm = 0xD3ED7BB
	movl	$555555600, %esi        # imm = 0x211D1B10
	movl	$444444489, %edx        # imm = 0x1A7DAF49
	callq	guardMe
	movl	$222222266, -72(%rbp)   # imm = 0xD3ED7BA
	movl	$555555599, -68(%rbp)   # imm = 0x211D1B0F
	movl	$444444488, -64(%rbp)   # imm = 0x1A7DAF48
	movl	$222222266, %edi        # imm = 0xD3ED7BA
	movl	$555555599, %esi        # imm = 0x211D1B0F
	movl	$444444488, %edx        # imm = 0x1A7DAF48
	callq	guardMe
	movl	$222222265, -60(%rbp)   # imm = 0xD3ED7B9
	movl	$555555598, -56(%rbp)   # imm = 0x211D1B0E
	movl	$444444487, -52(%rbp)   # imm = 0x1A7DAF47
	movl	$222222265, %edi        # imm = 0xD3ED7B9
	movl	$555555598, %esi        # imm = 0x211D1B0E
	movl	$444444487, %edx        # imm = 0x1A7DAF47
	callq	guardMe
	movl	$222222264, -48(%rbp)   # imm = 0xD3ED7B8
	movl	$555555597, -44(%rbp)   # imm = 0x211D1B0D
	movl	$444444486, -40(%rbp)   # imm = 0x1A7DAF46
	movl	$222222264, %edi        # imm = 0xD3ED7B8
	movl	$555555597, %esi        # imm = 0x211D1B0D
	movl	$444444486, %edx        # imm = 0x1A7DAF46
	callq	guardMe
	movl	$0, -32(%rbp)
	leaq	-32(%rbp), %rbx
	jmp	.LBB76_1
	.p2align	4, 0x90
.LBB76_2:                               # %for.inc
                                        #   in Loop: Header=BB76_1 Depth=1
	movq	%rbx, %rdi
	callq	checkfile0
	movq	%rbx, %rdi
	callq	checkfile1
.LBB76_1:                               # %for.cond
                                        # =>This Inner Loop Header: Depth=1
	movl	-32(%rbp), %eax
	cmpl	contextsize(%rip), %eax
	jl	.LBB76_2
# %bb.3:                                # %for.end
	leaq	-32(%rbp), %rbx
	leaq	-28(%rbp), %r14
	leaq	-36(%rbp), %r15
	jmp	.LBB76_4
	.p2align	4, 0x90
.LBB76_21:                              # %if.end60
                                        #   in Loop: Header=BB76_4 Depth=1
	callq	checkfile7
.LBB76_4:                               # %for.cond2
                                        # =>This Loop Header: Depth=1
                                        #     Child Loop BB76_6 Depth 2
                                        #     Child Loop BB76_13 Depth 2
	movq	%rbx, %rdi
	callq	checkfile2
	addl	$-1, -32(%rbp)
	jle	.LBB76_7
	.p2align	4, 0x90
.LBB76_6:                               # %for.body5
                                        #   Parent Loop BB76_4 Depth=1
                                        # =>  This Inner Loop Header: Depth=2
	movq	%rbx, %rdi
	callq	checkfile3
	addl	$-1, -32(%rbp)
	jg	.LBB76_6
.LBB76_7:                               # %for.end11
                                        #   in Loop: Header=BB76_4 Depth=1
	cmpl	$0, quit(%rip)
	jne	.LBB76_8
# %bb.10:                               # %if.end
                                        #   in Loop: Header=BB76_4 Depth=1
	movq	infile(%rip), %rdx
	movl	$contextbufs, %edi
	movl	$4096, %esi             # imm = 0x1000
	callq	fgets
	testq	%rax, %rax
	je	.LBB76_22
# %bb.11:                               # %if.end18
                                        #   in Loop: Header=BB76_4 Depth=1
	movl	$contextbufs, %edi
	callq	strlen
	movl	%eax, -36(%rbp)
	cmpl	$4095, %eax             # imm = 0xFFF
	jne	.LBB76_21
# %bb.12:                               # %if.then23
                                        #   in Loop: Header=BB76_4 Depth=1
	movq	%r14, %rdi
	movq	%r15, %rsi
	callq	checkfile5
	jmp	.LBB76_13
	.p2align	4, 0x90
.LBB76_20:                              # %if.end52
                                        #   in Loop: Header=BB76_13 Depth=2
	movq	%r15, %rdi
	movq	%r14, %rsi
	callq	checkfile6
.LBB76_13:                              # %while.cond28
                                        #   Parent Loop BB76_4 Depth=1
                                        # =>  This Inner Loop Header: Depth=2
	movslq	-36(%rbp), %rax
	cmpq	$8190, %rax             # imm = 0x1FFE
	ja	.LBB76_14
# %bb.15:                               # %land.rhs
                                        #   in Loop: Header=BB76_13 Depth=2
	movzbl	-28(%rbp), %ecx
	movb	$1, %al
	cmpb	$0, hashheader+982(%rcx)
	jne	.LBB76_18
# %bb.16:                               # %lor.lhs.false
                                        #   in Loop: Header=BB76_13 Depth=2
	movzbl	-28(%rbp), %ecx
	cmpb	$0, hashheader+1666(%rcx)
	jne	.LBB76_18
# %bb.17:                               # %lor.rhs
                                        #   in Loop: Header=BB76_13 Depth=2
	movzbl	-28(%rbp), %eax
	cmpb	$0, hashheader+1894(%rax)
	setne	%al
	testb	%al, %al
	jne	.LBB76_19
	jmp	.LBB76_21
	.p2align	4, 0x90
.LBB76_14:                              #   in Loop: Header=BB76_13 Depth=2
	xorl	%eax, %eax
.LBB76_18:                              # %land.end
                                        #   in Loop: Header=BB76_13 Depth=2
	testb	%al, %al
	je	.LBB76_21
.LBB76_19:                              # %while.body47
                                        #   in Loop: Header=BB76_13 Depth=2
	movq	infile(%rip), %rdi
	callq	_IO_getc
	movl	%eax, -28(%rbp)
	cmpl	$-1, %eax
	jne	.LBB76_20
	jmp	.LBB76_21
	.p2align	4, 0x90
.LBB76_9:                               # %while.body
                                        #   in Loop: Header=BB76_8 Depth=1
	callq	checkfile4
.LBB76_8:                               # %while.cond
                                        # =>This Inner Loop Header: Depth=1
	movq	infile(%rip), %rdx
	movl	$contextbufs, %edi
	movl	$8192, %esi             # imm = 0x2000
	callq	fgets
	testq	%rax, %rax
	jne	.LBB76_9
.LBB76_22:                              # %for.end61
	addq	$72, %rsp
	popq	%rbx
	popq	%r14
	popq	%r15
	popq	%rbp
	retq
.Lfunc_end76:
	.size	checkfile, .Lfunc_end76-checkfile
	.cfi_endproc
                                        # -- End function
	.globl	treeoutput              # -- Begin function treeoutput
	.p2align	4, 0x90
	.type	treeoutput,@function
treeoutput:                             # @treeoutput
	.cfi_startproc
# %bb.0:                                # %entry
	pushq	%rbp
	.cfi_def_cfa_offset 16
	.cfi_offset %rbp, -16
	movq	%rsp, %rbp
	.cfi_def_cfa_register %rbp
	pushq	%r15
	pushq	%r14
	pushq	%r12
	pushq	%rbx
	subq	$64, %rsp
	.cfi_offset %rbx, -48
	.cfi_offset %r12, -40
	.cfi_offset %r14, -32
	.cfi_offset %r15, -24
	movl	$222222508, -92(%rbp)   # imm = 0xD3ED8AC
	movl	$555555841, -88(%rbp)   # imm = 0x211D1C01
	movl	$444444730, -84(%rbp)   # imm = 0x1A7DB03A
	movl	$222222508, %edi        # imm = 0xD3ED8AC
	movl	$555555841, %esi        # imm = 0x211D1C01
	movl	$444444730, %edx        # imm = 0x1A7DB03A
	callq	guardMe
	cmpl	$0, newwords(%rip)
	je	.LBB77_62
# %bb.1:                                # %if.end
	movl	$personaldict, %edi
	movl	$.L.str.14.442, %esi
	callq	fopen
	movq	%rax, dictf(%rip)
	testq	%rax, %rax
	je	.LBB77_2
# %bb.3:                                # %if.end4
	movl	$0, -60(%rbp)
	cmpl	$1000, hcount(%rip)     # imm = 0x3E8
	jl	.LBB77_5
# %bb.4:                                # %if.then6
	movq	$0, -72(%rbp)
	cmpq	$0, -72(%rbp)
	je	.LBB77_24
.LBB77_41:                              # %if.end105
	leaq	-40(%rbp), %r14
	leaq	-80(%rbp), %r15
	leaq	-48(%rbp), %rdx
	leaq	-72(%rbp), %rcx
	movq	%r14, %rdi
	movq	%r15, %rsi
	callq	treeoutput20
	leaq	-56(%rbp), %rbx
	movl	$201326592, %r12d       # imm = 0xC000000
	jmp	.LBB77_42
	.p2align	4, 0x90
.LBB77_50:                              # %for.inc135
                                        #   in Loop: Header=BB77_42 Depth=1
	movq	%r14, %rdi
	callq	treeoutput25
.LBB77_42:                              # %for.cond108
                                        # =>This Loop Header: Depth=1
                                        #     Child Loop BB77_45 Depth 2
                                        #       Child Loop BB77_47 Depth 3
	movq	-40(%rbp), %rax
	cmpq	-48(%rbp), %rax
	jae	.LBB77_51
# %bb.43:                               # %for.body111
                                        #   in Loop: Header=BB77_42 Depth=1
	movq	%rbx, %rdi
	movq	%r14, %rsi
	callq	treeoutput21
	cmpq	$0, -56(%rbp)
	jne	.LBB77_45
	jmp	.LBB77_50
	.p2align	4, 0x90
.LBB77_49:                              # %for.inc132
                                        #   in Loop: Header=BB77_45 Depth=2
	movq	%rbx, %rdi
	callq	treeoutput24
	cmpq	$0, -56(%rbp)
	je	.LBB77_50
.LBB77_45:                              # %for.body115
                                        #   Parent Loop BB77_42 Depth=1
                                        # =>  This Loop Header: Depth=2
                                        #       Child Loop BB77_47 Depth 3
	movq	-56(%rbp), %rax
	movq	16(%rax), %rax
	andq	%r12, %rax
	cmpq	$201326592, %rax        # imm = 0xC000000
	jne	.LBB77_49
# %bb.46:                               # %if.then121
                                        #   in Loop: Header=BB77_45 Depth=2
	movq	%r15, %rdi
	movq	%rbx, %rsi
	callq	treeoutput22
	jmp	.LBB77_47
	.p2align	4, 0x90
.LBB77_48:                              # %while.body128
                                        #   in Loop: Header=BB77_47 Depth=3
	movq	%rbx, %rdi
	callq	treeoutput23
.LBB77_47:                              # %while.cond123
                                        #   Parent Loop BB77_42 Depth=1
                                        #     Parent Loop BB77_45 Depth=2
                                        # =>    This Inner Loop Header: Depth=3
	movq	-56(%rbp), %rax
	testb	$64, 19(%rax)
	jne	.LBB77_48
	jmp	.LBB77_49
.LBB77_51:                              # %for.end137
	leaq	-48(%rbp), %rdi
	leaq	-40(%rbp), %rbx
	movq	%rbx, %rsi
	callq	treeoutput26
	movl	$201326592, %r15d       # imm = 0xC000000
	movl	$805306368, %r12d       # imm = 0x30000000
	leaq	-80(%rbp), %r14
	jmp	.LBB77_52
	.p2align	4, 0x90
.LBB77_57:                              # %for.inc163
                                        #   in Loop: Header=BB77_52 Depth=1
	movq	%rbx, %rdi
	callq	treeoutput28
.LBB77_52:                              # %for.cond140
                                        # =>This Inner Loop Header: Depth=1
	movq	-40(%rbp), %rax
	cmpq	-48(%rbp), %rax
	jae	.LBB77_58
# %bb.53:                               # %for.body143
                                        #   in Loop: Header=BB77_52 Depth=1
	movq	-40(%rbp), %rax
	movq	16(%rax), %rax
	andq	%r15, %rax
	cmpq	$201326592, %rax        # imm = 0xC000000
	jne	.LBB77_57
# %bb.54:                               # %if.then149
                                        #   in Loop: Header=BB77_52 Depth=1
	movq	-40(%rbp), %rax
	movq	16(%rax), %rax
	andq	%r12, %rax
	cmpq	$805306368, %rax        # imm = 0x30000000
	je	.LBB77_57
# %bb.55:                               # %land.lhs.true155
                                        #   in Loop: Header=BB77_52 Depth=1
	movq	-40(%rbp), %rax
	cmpq	$0, 8(%rax)
	je	.LBB77_57
# %bb.56:                               # %if.then159
                                        #   in Loop: Header=BB77_52 Depth=1
	movq	%r14, %rdi
	movq	%rbx, %rsi
	callq	treeoutput27
	jmp	.LBB77_57
.LBB77_58:                              # %for.end165
	leaq	-80(%rbp), %rbx
	leaq	-60(%rbp), %rsi
	leaq	-72(%rbp), %rdx
	movq	%rbx, %rdi
	callq	treeoutput29
	addl	$-1, -60(%rbp)
	js	.LBB77_61
	.p2align	4, 0x90
.LBB77_60:                              # %for.body170
                                        # =>This Inner Loop Header: Depth=1
	movq	%rbx, %rdi
	callq	treeoutput30
	addl	$-1, -60(%rbp)
	jns	.LBB77_60
.LBB77_61:                              # %for.end172
	leaq	-72(%rbp), %rdi
	callq	treeoutput31
	movl	$0, newwords(%rip)
	callq	treeoutput32
	jmp	.LBB77_62
.LBB77_2:                               # %if.then2
	callq	treeoutput0
	jmp	.LBB77_62
.LBB77_5:                               # %if.else
	leaq	-48(%rbp), %rdi
	leaq	-40(%rbp), %r14
	movq	%r14, %rsi
	callq	treeoutput1
	leaq	-56(%rbp), %rbx
	movl	$201326592, %r12d       # imm = 0xC000000
	leaq	-60(%rbp), %r15
	jmp	.LBB77_6
	.p2align	4, 0x90
.LBB77_14:                              # %for.inc18
                                        #   in Loop: Header=BB77_6 Depth=1
	movq	%r14, %rdi
	callq	treeoutput6
.LBB77_6:                               # %for.cond
                                        # =>This Loop Header: Depth=1
                                        #     Child Loop BB77_9 Depth 2
                                        #       Child Loop BB77_11 Depth 3
	movq	-40(%rbp), %rax
	cmpq	-48(%rbp), %rax
	jae	.LBB77_15
# %bb.7:                                # %for.body
                                        #   in Loop: Header=BB77_6 Depth=1
	movq	%rbx, %rdi
	movq	%r14, %rsi
	callq	treeoutput2
	cmpq	$0, -56(%rbp)
	jne	.LBB77_9
	jmp	.LBB77_14
	.p2align	4, 0x90
.LBB77_13:                              # %for.inc
                                        #   in Loop: Header=BB77_9 Depth=2
	movq	%rbx, %rdi
	callq	treeoutput5
	cmpq	$0, -56(%rbp)
	je	.LBB77_14
.LBB77_9:                               # %for.body10
                                        #   Parent Loop BB77_6 Depth=1
                                        # =>  This Loop Header: Depth=2
                                        #       Child Loop BB77_11 Depth 3
	movq	-56(%rbp), %rax
	movq	16(%rax), %rax
	andq	%r12, %rax
	cmpq	$201326592, %rax        # imm = 0xC000000
	jne	.LBB77_11
# %bb.10:                               # %if.then12
                                        #   in Loop: Header=BB77_9 Depth=2
	movq	%r15, %rdi
	callq	treeoutput3
	jmp	.LBB77_11
	.p2align	4, 0x90
.LBB77_12:                              # %while.body
                                        #   in Loop: Header=BB77_11 Depth=3
	movq	%rbx, %rdi
	callq	treeoutput4
.LBB77_11:                              # %while.cond
                                        #   Parent Loop BB77_6 Depth=1
                                        #     Parent Loop BB77_9 Depth=2
                                        # =>    This Inner Loop Header: Depth=3
	movq	-56(%rbp), %rax
	testb	$64, 19(%rax)
	jne	.LBB77_12
	jmp	.LBB77_13
.LBB77_15:                              # %for.end19
	leaq	-48(%rbp), %rdi
	leaq	-40(%rbp), %r15
	movq	%r15, %rsi
	callq	treeoutput7
	movl	$201326592, %ebx        # imm = 0xC000000
	movl	$805306368, %r12d       # imm = 0x30000000
	leaq	-60(%rbp), %r14
	jmp	.LBB77_16
	.p2align	4, 0x90
.LBB77_21:                              # %for.inc39
                                        #   in Loop: Header=BB77_16 Depth=1
	movq	%r15, %rdi
	callq	treeoutput9
.LBB77_16:                              # %for.cond22
                                        # =>This Inner Loop Header: Depth=1
	movq	-40(%rbp), %rax
	cmpq	-48(%rbp), %rax
	jae	.LBB77_22
# %bb.17:                               # %for.body24
                                        #   in Loop: Header=BB77_16 Depth=1
	movq	-40(%rbp), %rax
	movq	16(%rax), %rax
	andq	%rbx, %rax
	cmpq	$201326592, %rax        # imm = 0xC000000
	jne	.LBB77_21
# %bb.18:                               # %if.then29
                                        #   in Loop: Header=BB77_16 Depth=1
	movq	-40(%rbp), %rax
	movq	16(%rax), %rax
	andq	%r12, %rax
	cmpq	$805306368, %rax        # imm = 0x30000000
	je	.LBB77_21
# %bb.19:                               # %land.lhs.true
                                        #   in Loop: Header=BB77_16 Depth=1
	movq	-40(%rbp), %rax
	cmpq	$0, 8(%rax)
	je	.LBB77_21
# %bb.20:                               # %if.then35
                                        #   in Loop: Header=BB77_16 Depth=1
	movq	%r14, %rdi
	callq	treeoutput8
	jmp	.LBB77_21
.LBB77_22:                              # %for.end41
	leaq	-72(%rbp), %rdi
	leaq	-60(%rbp), %rsi
	callq	treeoutput10
	cmpq	$0, -72(%rbp)
	jne	.LBB77_41
.LBB77_24:                              # %if.then46
	leaq	-48(%rbp), %rdi
	leaq	-40(%rbp), %r14
	movq	%r14, %rsi
	callq	treeoutput11
	leaq	-56(%rbp), %rbx
	movl	$201326592, %r15d       # imm = 0xC000000
	jmp	.LBB77_25
	.p2align	4, 0x90
.LBB77_33:                              # %for.inc75
                                        #   in Loop: Header=BB77_25 Depth=1
	movq	%r14, %rdi
	callq	treeoutput16
.LBB77_25:                              # %for.cond49
                                        # =>This Loop Header: Depth=1
                                        #     Child Loop BB77_28 Depth 2
                                        #       Child Loop BB77_30 Depth 3
	movq	-40(%rbp), %rax
	cmpq	-48(%rbp), %rax
	jae	.LBB77_34
# %bb.26:                               # %for.body52
                                        #   in Loop: Header=BB77_25 Depth=1
	movq	%rbx, %rdi
	movq	%r14, %rsi
	callq	treeoutput12
	cmpq	$0, -56(%rbp)
	jne	.LBB77_28
	jmp	.LBB77_33
	.p2align	4, 0x90
.LBB77_32:                              # %for.inc72
                                        #   in Loop: Header=BB77_28 Depth=2
	movq	%rbx, %rdi
	callq	treeoutput15
	cmpq	$0, -56(%rbp)
	je	.LBB77_33
.LBB77_28:                              # %for.body56
                                        #   Parent Loop BB77_25 Depth=1
                                        # =>  This Loop Header: Depth=2
                                        #       Child Loop BB77_30 Depth 3
	movq	-56(%rbp), %rax
	movq	16(%rax), %rax
	andq	%r15, %rax
	cmpq	$201326592, %rax        # imm = 0xC000000
	jne	.LBB77_32
# %bb.29:                               # %if.then62
                                        #   in Loop: Header=BB77_28 Depth=2
	movq	%rbx, %rdi
	callq	treeoutput13
	jmp	.LBB77_30
	.p2align	4, 0x90
.LBB77_31:                              # %while.body68
                                        #   in Loop: Header=BB77_30 Depth=3
	movq	%rbx, %rdi
	callq	treeoutput14
.LBB77_30:                              # %while.cond63
                                        #   Parent Loop BB77_25 Depth=1
                                        #     Parent Loop BB77_28 Depth=2
                                        # =>    This Inner Loop Header: Depth=3
	movq	-56(%rbp), %rax
	testb	$64, 19(%rax)
	jne	.LBB77_31
	jmp	.LBB77_32
.LBB77_34:                              # %for.end77
	leaq	-48(%rbp), %rdi
	leaq	-40(%rbp), %rbx
	movq	%rbx, %rsi
	callq	treeoutput17
	movl	$201326592, %r14d       # imm = 0xC000000
	movl	$805306368, %r15d       # imm = 0x30000000
	jmp	.LBB77_35
	.p2align	4, 0x90
.LBB77_40:                              # %for.inc102
                                        #   in Loop: Header=BB77_35 Depth=1
	movq	%rbx, %rdi
	callq	treeoutput19
.LBB77_35:                              # %for.cond80
                                        # =>This Inner Loop Header: Depth=1
	movq	-40(%rbp), %rax
	cmpq	-48(%rbp), %rax
	jae	.LBB77_62
# %bb.36:                               # %for.body83
                                        #   in Loop: Header=BB77_35 Depth=1
	movq	-40(%rbp), %rax
	movq	16(%rax), %rax
	andq	%r14, %rax
	cmpq	$201326592, %rax        # imm = 0xC000000
	jne	.LBB77_40
# %bb.37:                               # %if.then89
                                        #   in Loop: Header=BB77_35 Depth=1
	movq	-40(%rbp), %rax
	movq	16(%rax), %rax
	andq	%r15, %rax
	cmpq	$805306368, %rax        # imm = 0x30000000
	je	.LBB77_40
# %bb.38:                               # %land.lhs.true95
                                        #   in Loop: Header=BB77_35 Depth=1
	movq	-40(%rbp), %rax
	cmpq	$0, 8(%rax)
	je	.LBB77_40
# %bb.39:                               # %if.then99
                                        #   in Loop: Header=BB77_35 Depth=1
	movq	%rbx, %rdi
	callq	treeoutput18
	jmp	.LBB77_40
.LBB77_62:                              # %return
	addq	$64, %rsp
	popq	%rbx
	popq	%r12
	popq	%r14
	popq	%r15
	popq	%rbp
	retq
.Lfunc_end77:
	.size	treeoutput, .Lfunc_end77-treeoutput
	.cfi_endproc
                                        # -- End function
	.globl	dofile3                 # -- Begin function dofile3
	.p2align	4, 0x90
	.type	dofile3,@function
dofile3:                                # @dofile3
	.cfi_startproc
# %bb.0:                                # %entry
	pushq	%rbp
	.cfi_def_cfa_offset 16
	pushq	%r15
	.cfi_def_cfa_offset 24
	pushq	%r14
	.cfi_def_cfa_offset 32
	pushq	%r13
	.cfi_def_cfa_offset 40
	pushq	%r12
	.cfi_def_cfa_offset 48
	pushq	%rbx
	.cfi_def_cfa_offset 56
	subq	$200, %rsp
	.cfi_def_cfa_offset 256
	.cfi_offset %rbx, -56
	.cfi_offset %r12, -48
	.cfi_offset %r13, -40
	.cfi_offset %r14, -32
	.cfi_offset %r15, -24
	.cfi_offset %rbp, -16
	movq	%rsi, %r10
	movq	%rdi, 192(%rsp)
	movq	(%rdi), %rax
	movq	%rax, 24(%rsp)          # 8-byte Spill
	movq	8(%rdi), %rax
	movq	%rax, 16(%rsp)          # 8-byte Spill
	movq	16(%rdi), %rax
	movq	%rax, 8(%rsp)           # 8-byte Spill
	movq	40(%rdi), %rax
	movq	%rax, (%rsp)            # 8-byte Spill
	movq	48(%rdi), %r14
	movq	56(%rdi), %r15
	movq	64(%rdi), %r12
	movq	72(%rdi), %r13
	movq	80(%rdi), %r11
	movq	88(%rdi), %r9
	movq	96(%rdi), %r8
	movq	104(%rdi), %rbx
	movq	112(%rdi), %rbp
	movq	120(%rdi), %rsi
	movq	128(%rdi), %rdx
	movq	136(%rdi), %rcx
	movq	24(%rdi), %rax
	movq	32(%rdi), %rdi
	movq	%rdi, 64(%rsp)
	movq	%rax, 56(%rsp)
	movq	%rcx, 168(%rsp)
	movq	%rdx, 160(%rsp)
	movq	%rsi, 152(%rsp)
	movq	%rbp, 144(%rsp)
	movq	%rbx, 136(%rsp)
	movq	%r8, 128(%rsp)
	movq	%r9, 120(%rsp)
	movq	%r11, 112(%rsp)
	movq	%r13, 104(%rsp)
	movq	%r12, 96(%rsp)
	movq	%r15, 88(%rsp)
	movq	%r14, 80(%rsp)
	movq	(%rsp), %rax            # 8-byte Reload
	movq	%rax, 72(%rsp)
	movq	8(%rsp), %rax           # 8-byte Reload
	movq	%rax, 48(%rsp)
	movq	16(%rsp), %rax          # 8-byte Reload
	movq	%rax, 40(%rsp)
	movq	24(%rsp), %rax          # 8-byte Reload
	movq	%rax, 32(%rsp)
	movq	%r10, 184(%rsp)
	movq	(%r10), %rdi
	movq	%rdi, 176(%rsp)
	leaq	32(%rsp), %rsi
	callq	update_file
	movq	184(%rsp), %rax
	movq	176(%rsp), %rcx
	movq	%rcx, (%rax)
	movq	192(%rsp), %rax
	movq	32(%rsp), %rcx
	movq	%rcx, 24(%rsp)          # 8-byte Spill
	movq	40(%rsp), %rcx
	movq	%rcx, 16(%rsp)          # 8-byte Spill
	movq	48(%rsp), %rcx
	movq	%rcx, 8(%rsp)           # 8-byte Spill
	movq	56(%rsp), %rcx
	movq	%rcx, (%rsp)            # 8-byte Spill
	movq	64(%rsp), %r14
	movq	72(%rsp), %r15
	movq	80(%rsp), %r12
	movq	88(%rsp), %r13
	movq	96(%rsp), %r10
	movq	104(%rsp), %r9
	movq	112(%rsp), %rbp
	movq	120(%rsp), %rbx
	movq	128(%rsp), %r8
	movq	136(%rsp), %rdi
	movq	144(%rsp), %rsi
	movq	152(%rsp), %rdx
	movq	160(%rsp), %rcx
	movq	168(%rsp), %r11
	movq	%r11, 136(%rax)
	movq	%rcx, 128(%rax)
	movq	%rdx, 120(%rax)
	movq	%rsi, 112(%rax)
	movq	%rdi, 104(%rax)
	movq	%r8, 96(%rax)
	movq	%rbx, 88(%rax)
	movq	%rbp, 80(%rax)
	movq	%r9, 72(%rax)
	movq	%r10, 64(%rax)
	movq	%r13, 56(%rax)
	movq	%r12, 48(%rax)
	movq	%r15, 40(%rax)
	movq	%r14, 32(%rax)
	movq	(%rsp), %rcx            # 8-byte Reload
	movq	%rcx, 24(%rax)
	movq	8(%rsp), %rcx           # 8-byte Reload
	movq	%rcx, 16(%rax)
	movq	16(%rsp), %rcx          # 8-byte Reload
	movq	%rcx, 8(%rax)
	movq	24(%rsp), %rcx          # 8-byte Reload
	movq	%rcx, (%rax)
	addq	$200, %rsp
	popq	%rbx
	popq	%r12
	popq	%r13
	popq	%r14
	popq	%r15
	popq	%rbp
	retq
.Lfunc_end78:
	.size	dofile3, .Lfunc_end78-dofile3
	.cfi_endproc
                                        # -- End function
	.p2align	4, 0x90         # -- Begin function update_file
	.type	update_file,@function
update_file:                            # @update_file
	.cfi_startproc
# %bb.0:                                # %entry
	pushq	%rbp
	.cfi_def_cfa_offset 16
	.cfi_offset %rbp, -16
	movq	%rsp, %rbp
	.cfi_def_cfa_register %rbp
	pushq	%r14
	pushq	%rbx
	subq	$4176, %rsp             # imm = 0x1050
	.cfi_offset %rbx, -32
	.cfi_offset %r14, -24
	movq	%rsi, %r14
	movq	%rdi, %rbx
	movl	$222222284, -96(%rbp)   # imm = 0xD3ED7CC
	movl	$555555617, -92(%rbp)   # imm = 0x211D1B21
	movl	$444444506, -88(%rbp)   # imm = 0x1A7DAF5A
	movl	$222222284, %edi        # imm = 0xD3ED7CC
	movl	$555555617, %esi        # imm = 0x211D1B21
	movl	$444444506, %edx        # imm = 0x1A7DAF5A
	callq	guardMe
	movl	$222222283, -84(%rbp)   # imm = 0xD3ED7CB
	movl	$555555616, -80(%rbp)   # imm = 0x211D1B20
	movl	$444444505, -76(%rbp)   # imm = 0x1A7DAF59
	movl	$222222283, %edi        # imm = 0xD3ED7CB
	movl	$555555616, %esi        # imm = 0x211D1B20
	movl	$444444505, %edx        # imm = 0x1A7DAF59
	callq	guardMe
	movl	$222222282, -72(%rbp)   # imm = 0xD3ED7CA
	movl	$555555615, -68(%rbp)   # imm = 0x211D1B1F
	movl	$444444504, -64(%rbp)   # imm = 0x1A7DAF58
	movl	$222222282, %edi        # imm = 0xD3ED7CA
	movl	$555555615, %esi        # imm = 0x211D1B1F
	movl	$444444504, %edx        # imm = 0x1A7DAF58
	callq	guardMe
	movl	$222222281, -60(%rbp)   # imm = 0xD3ED7C9
	movl	$555555614, -56(%rbp)   # imm = 0x211D1B1E
	movl	$444444503, -52(%rbp)   # imm = 0x1A7DAF57
	movl	$222222281, %edi        # imm = 0xD3ED7C9
	movl	$555555614, %esi        # imm = 0x211D1B1E
	movl	$444444503, %edx        # imm = 0x1A7DAF57
	callq	guardMe
	movq	%rbx, -24(%rbp)
	movq	%r14, -48(%rbp)
	movl	$tempfile, %edi
	movl	$.L.str.177, %esi
	callq	fopen
	movq	%rax, infile(%rip)
	testq	%rax, %rax
	je	.LBB79_1
# %bb.2:                                # %if.end
	movq	-24(%rbp), %rcx
	leaq	-4192(%rbp), %rbx
	movl	$.L.str.184, %esi
	movl	$4091, %edx             # imm = 0xFFB
	movl	$.L.str.10, %r8d
	xorl	%eax, %eax
	movq	%rbx, %rdi
	callq	sprintf
	movl	$47, %esi
	movq	%rbx, %rdi
	callq	rindex
	movq	%rax, -32(%rbp)
	testq	%rax, %rax
	je	.LBB79_3
# %bb.4:                                # %if.else
	leaq	-32(%rbp), %rdi
	callq	update_file1
	jmp	.LBB79_5
.LBB79_1:                               # %if.then
	callq	update_file0
	jmp	.LBB79_17
.LBB79_3:                               # %if.then7
	movq	%rbx, -32(%rbp)
.LBB79_5:                               # %if.end9
	movq	-24(%rbp), %rdi
	movq	-32(%rbp), %rdx
	subq	%rbx, %rdx
	addq	$255, %rdx
	movq	%rbx, %rsi
	callq	strncmp
	testl	%eax, %eax
	je	.LBB79_7
# %bb.6:                                # %if.then14
	leaq	-4192(%rbp), %rdi
	xorl	%eax, %eax
	callq	unlink
.LBB79_7:                               # %if.end17
	movq	-24(%rbp), %rdi
	leaq	-4192(%rbp), %r14
	xorl	%eax, %eax
	movq	%r14, %rsi
	callq	link
	testl	%eax, %eax
	jne	.LBB79_9
# %bb.8:                                # %if.then21
	leaq	-24(%rbp), %rdi
	callq	update_file2
.LBB79_9:                               # %if.end23
	movq	-24(%rbp), %rdi
	movl	$.L.str.180, %esi
	callq	fopen
	movq	%rax, outfile(%rip)
	testq	%rax, %rax
	je	.LBB79_10
# %bb.11:                               # %if.end29
	leaq	-48(%rbp), %rdi
	leaq	-24(%rbp), %rsi
	callq	update_file4
	leaq	-36(%rbp), %rbx
	jmp	.LBB79_12
	.p2align	4, 0x90
.LBB79_13:                              # %while.body
                                        #   in Loop: Header=BB79_12 Depth=1
	movq	%rbx, %rdi
	callq	update_file5
.LBB79_12:                              # %while.cond
                                        # =>This Inner Loop Header: Depth=1
	movq	infile(%rip), %rdi
	callq	_IO_getc
	movl	%eax, -36(%rbp)
	cmpl	$-1, %eax
	jne	.LBB79_13
# %bb.14:                               # %while.end
	movq	infile(%rip), %rdi
	callq	fclose
	movq	outfile(%rip), %rdi
	callq	fclose
	cmpl	$0, xflag(%rip)
	je	.LBB79_17
# %bb.15:                               # %land.lhs.true
	movq	-24(%rbp), %rdi
	movq	-32(%rbp), %rdx
	subq	%r14, %rdx
	addq	$255, %rdx
	movq	%r14, %rsi
	callq	strncmp
	testl	%eax, %eax
	je	.LBB79_17
# %bb.16:                               # %if.then44
	leaq	-4192(%rbp), %rdi
	xorl	%eax, %eax
	callq	unlink
	jmp	.LBB79_17
.LBB79_10:                              # %if.then26
	leaq	-24(%rbp), %rdi
	callq	update_file3
.LBB79_17:                              # %if.end47
	addq	$4176, %rsp             # imm = 0x1050
	popq	%rbx
	popq	%r14
	popq	%rbp
	retq
.Lfunc_end79:
	.size	update_file, .Lfunc_end79-update_file
	.cfi_endproc
                                        # -- End function
	.globl	update_file0            # -- Begin function update_file0
	.p2align	4, 0x90
	.type	update_file0,@function
update_file0:                           # @update_file0
	.cfi_startproc
# %bb.0:                                # %entry
	pushq	%rax
	.cfi_def_cfa_offset 16
	movq	stderr(%rip), %rdi
	movl	$.L.str.183, %esi
	movl	$tempfile, %edx
	xorl	%eax, %eax
	callq	fprintf
	movl	$2, %edi
	xorl	%eax, %eax
	callq	sleep
	popq	%rax
	retq
.Lfunc_end80:
	.size	update_file0, .Lfunc_end80-update_file0
	.cfi_endproc
                                        # -- End function
	.globl	update_file1            # -- Begin function update_file1
	.p2align	4, 0x90
	.type	update_file1,@function
update_file1:                           # @update_file1
	.cfi_startproc
# %bb.0:                                # %entry
	movq	%rdi, -8(%rsp)
	movq	(%rdi), %rax
	incq	%rax
	movq	%rax, -16(%rsp)
	movq	%rax, (%rdi)
	retq
.Lfunc_end81:
	.size	update_file1, .Lfunc_end81-update_file1
	.cfi_endproc
                                        # -- End function
	.globl	update_file2            # -- Begin function update_file2
	.p2align	4, 0x90
	.type	update_file2,@function
update_file2:                           # @update_file2
	.cfi_startproc
# %bb.0:                                # %entry
	subq	$24, %rsp
	.cfi_def_cfa_offset 32
	movq	%rdi, 16(%rsp)
	movq	(%rdi), %rdi
	movq	%rdi, 8(%rsp)
	xorl	%eax, %eax
	callq	unlink
	movq	16(%rsp), %rax
	movq	8(%rsp), %rcx
	movq	%rcx, (%rax)
	addq	$24, %rsp
	retq
.Lfunc_end82:
	.size	update_file2, .Lfunc_end82-update_file2
	.cfi_endproc
                                        # -- End function
	.globl	update_file3            # -- Begin function update_file3
	.p2align	4, 0x90
	.type	update_file3,@function
update_file3:                           # @update_file3
	.cfi_startproc
# %bb.0:                                # %entry
	subq	$24, %rsp
	.cfi_def_cfa_offset 32
	movq	%rdi, 16(%rsp)
	movq	(%rdi), %rdx
	movq	%rdx, 8(%rsp)
	movq	stderr(%rip), %rdi
	movl	$.L.str.181, %esi
	xorl	%eax, %eax
	callq	fprintf
	movl	$2, %edi
	xorl	%eax, %eax
	callq	sleep
	movq	16(%rsp), %rax
	movq	8(%rsp), %rcx
	movq	%rcx, (%rax)
	addq	$24, %rsp
	retq
.Lfunc_end83:
	.size	update_file3, .Lfunc_end83-update_file3
	.cfi_endproc
                                        # -- End function
	.globl	update_file4            # -- Begin function update_file4
	.p2align	4, 0x90
	.type	update_file4,@function
update_file4:                           # @update_file4
	.cfi_startproc
# %bb.0:                                # %entry
	subq	$40, %rsp
	.cfi_def_cfa_offset 48
	movq	%rdi, 32(%rsp)
	movq	(%rdi), %rax
	movq	%rax, 24(%rsp)
	movq	%rsi, 16(%rsp)
	movq	(%rsi), %rdi
	movq	%rdi, 8(%rsp)
	movl	24(%rax), %esi
	callq	chmod
	movq	16(%rsp), %rax
	movq	8(%rsp), %rcx
	movq	%rcx, (%rax)
	movq	32(%rsp), %rax
	movq	24(%rsp), %rcx
	movq	%rcx, (%rax)
	addq	$40, %rsp
	retq
.Lfunc_end84:
	.size	update_file4, .Lfunc_end84-update_file4
	.cfi_endproc
                                        # -- End function
	.globl	update_file5            # -- Begin function update_file5
	.p2align	4, 0x90
	.type	update_file5,@function
update_file5:                           # @update_file5
	.cfi_startproc
# %bb.0:                                # %entry
	subq	$24, %rsp
	.cfi_def_cfa_offset 32
	movq	%rdi, 16(%rsp)
	movl	(%rdi), %edi
	movl	%edi, 12(%rsp)
	movq	outfile(%rip), %rsi
	callq	_IO_putc
	movq	16(%rsp), %rax
	movl	12(%rsp), %ecx
	movl	%ecx, (%rax)
	addq	$24, %rsp
	retq
.Lfunc_end85:
	.size	update_file5, .Lfunc_end85-update_file5
	.cfi_endproc
                                        # -- End function
	.globl	treeoutput0             # -- Begin function treeoutput0
	.p2align	4, 0x90
	.type	treeoutput0,@function
treeoutput0:                            # @treeoutput0
	.cfi_startproc
# %bb.0:                                # %entry
	pushq	%rax
	.cfi_def_cfa_offset 16
	movq	stderr(%rip), %rdi
	movl	$.L.str.15.443, %esi
	movl	$personaldict, %edx
	xorl	%eax, %eax
	callq	fprintf
	popq	%rax
	retq
.Lfunc_end86:
	.size	treeoutput0, .Lfunc_end86-treeoutput0
	.cfi_endproc
                                        # -- End function
	.globl	treeoutput1             # -- Begin function treeoutput1
	.p2align	4, 0x90
	.type	treeoutput1,@function
treeoutput1:                            # @treeoutput1
	.cfi_startproc
# %bb.0:                                # %entry
	movq	%rdi, -24(%rsp)
	movq	%rsi, -8(%rsp)
	movq	pershtab(%rip), %rax
	movq	%rax, -16(%rsp)
	movslq	pershsize(%rip), %rcx
	leaq	(%rcx,%rcx,2), %rcx
	leaq	(%rax,%rcx,8), %rcx
	movq	%rcx, -32(%rsp)
	movq	%rax, (%rsi)
	movq	-24(%rsp), %rax
	movq	-32(%rsp), %rcx
	movq	%rcx, (%rax)
	retq
.Lfunc_end87:
	.size	treeoutput1, .Lfunc_end87-treeoutput1
	.cfi_endproc
                                        # -- End function
	.globl	treeoutput2             # -- Begin function treeoutput2
	.p2align	4, 0x90
	.type	treeoutput2,@function
treeoutput2:                            # @treeoutput2
	.cfi_startproc
# %bb.0:                                # %entry
	movq	%rdi, -24(%rsp)
	movq	(%rdi), %rax
	movq	%rax, -32(%rsp)
	movq	%rsi, -8(%rsp)
	movq	(%rsi), %rax
	movq	%rax, -16(%rsp)
	movq	%rax, -32(%rsp)
	movq	%rax, (%rsi)
	movq	-24(%rsp), %rax
	movq	-32(%rsp), %rcx
	movq	%rcx, (%rax)
	retq
.Lfunc_end88:
	.size	treeoutput2, .Lfunc_end88-treeoutput2
	.cfi_endproc
                                        # -- End function
	.globl	treeoutput3             # -- Begin function treeoutput3
	.p2align	4, 0x90
	.type	treeoutput3,@function
treeoutput3:                            # @treeoutput3
	.cfi_startproc
# %bb.0:                                # %entry
	movq	%rdi, -8(%rsp)
	movl	(%rdi), %eax
	incl	%eax
	movl	%eax, -12(%rsp)
	movl	%eax, (%rdi)
	retq
.Lfunc_end89:
	.size	treeoutput3, .Lfunc_end89-treeoutput3
	.cfi_endproc
                                        # -- End function
	.globl	treeoutput4             # -- Begin function treeoutput4
	.p2align	4, 0x90
	.type	treeoutput4,@function
treeoutput4:                            # @treeoutput4
	.cfi_startproc
# %bb.0:                                # %entry
	movq	%rdi, -8(%rsp)
	movq	(%rdi), %rax
	movq	%rax, -16(%rsp)
	movq	(%rax), %rax
	movq	%rax, -16(%rsp)
	movq	%rax, (%rdi)
	retq
.Lfunc_end90:
	.size	treeoutput4, .Lfunc_end90-treeoutput4
	.cfi_endproc
                                        # -- End function
	.globl	treeoutput5             # -- Begin function treeoutput5
	.p2align	4, 0x90
	.type	treeoutput5,@function
treeoutput5:                            # @treeoutput5
	.cfi_startproc
# %bb.0:                                # %entry
	movq	%rdi, -8(%rsp)
	movq	(%rdi), %rax
	movq	%rax, -16(%rsp)
	movq	(%rax), %rax
	movq	%rax, -16(%rsp)
	movq	%rax, (%rdi)
	retq
.Lfunc_end91:
	.size	treeoutput5, .Lfunc_end91-treeoutput5
	.cfi_endproc
                                        # -- End function
	.globl	treeoutput6             # -- Begin function treeoutput6
	.p2align	4, 0x90
	.type	treeoutput6,@function
treeoutput6:                            # @treeoutput6
	.cfi_startproc
# %bb.0:                                # %entry
	movq	%rdi, -8(%rsp)
	movq	(%rdi), %rax
	addq	$24, %rax
	movq	%rax, -16(%rsp)
	movq	%rax, (%rdi)
	retq
.Lfunc_end92:
	.size	treeoutput6, .Lfunc_end92-treeoutput6
	.cfi_endproc
                                        # -- End function
	.globl	treeoutput7             # -- Begin function treeoutput7
	.p2align	4, 0x90
	.type	treeoutput7,@function
treeoutput7:                            # @treeoutput7
	.cfi_startproc
# %bb.0:                                # %entry
	movq	%rdi, -24(%rsp)
	movq	%rsi, -8(%rsp)
	movq	hashtbl(%rip), %rax
	movq	%rax, -16(%rsp)
	movslq	hashsize(%rip), %rcx
	leaq	(%rcx,%rcx,2), %rcx
	leaq	(%rax,%rcx,8), %rcx
	movq	%rcx, -32(%rsp)
	movq	%rax, (%rsi)
	movq	-24(%rsp), %rax
	movq	-32(%rsp), %rcx
	movq	%rcx, (%rax)
	retq
.Lfunc_end93:
	.size	treeoutput7, .Lfunc_end93-treeoutput7
	.cfi_endproc
                                        # -- End function
	.globl	treeoutput8             # -- Begin function treeoutput8
	.p2align	4, 0x90
	.type	treeoutput8,@function
treeoutput8:                            # @treeoutput8
	.cfi_startproc
# %bb.0:                                # %entry
	movq	%rdi, -8(%rsp)
	movl	(%rdi), %eax
	incl	%eax
	movl	%eax, -12(%rsp)
	movl	%eax, (%rdi)
	retq
.Lfunc_end94:
	.size	treeoutput8, .Lfunc_end94-treeoutput8
	.cfi_endproc
                                        # -- End function
	.globl	treeoutput9             # -- Begin function treeoutput9
	.p2align	4, 0x90
	.type	treeoutput9,@function
treeoutput9:                            # @treeoutput9
	.cfi_startproc
# %bb.0:                                # %entry
	movq	%rdi, -8(%rsp)
	movq	(%rdi), %rax
	addq	$24, %rax
	movq	%rax, -16(%rsp)
	movq	%rax, (%rdi)
	retq
.Lfunc_end95:
	.size	treeoutput9, .Lfunc_end95-treeoutput9
	.cfi_endproc
                                        # -- End function
	.globl	treeoutput10            # -- Begin function treeoutput10
	.p2align	4, 0x90
	.type	treeoutput10,@function
treeoutput10:                           # @treeoutput10
	.cfi_startproc
# %bb.0:                                # %entry
	subq	$40, %rsp
	.cfi_def_cfa_offset 48
	movq	%rdi, 32(%rsp)
	movq	(%rdi), %rax
	movq	%rax, 16(%rsp)
	movq	%rsi, 24(%rsp)
	movl	(%rsi), %eax
	movl	%eax, 12(%rsp)
	movslq	12(%rsp), %rax
	shlq	$3, %rax
	leaq	(%rax,%rax,2), %rdi
	callq	malloc
	movq	%rax, 16(%rsp)
	movq	24(%rsp), %rax
	movl	12(%rsp), %ecx
	movl	%ecx, (%rax)
	movq	32(%rsp), %rax
	movq	16(%rsp), %rcx
	movq	%rcx, (%rax)
	addq	$40, %rsp
	retq
.Lfunc_end96:
	.size	treeoutput10, .Lfunc_end96-treeoutput10
	.cfi_endproc
                                        # -- End function
	.globl	treeoutput11            # -- Begin function treeoutput11
	.p2align	4, 0x90
	.type	treeoutput11,@function
treeoutput11:                           # @treeoutput11
	.cfi_startproc
# %bb.0:                                # %entry
	movq	%rdi, -24(%rsp)
	movq	%rsi, -8(%rsp)
	movq	pershtab(%rip), %rax
	movq	%rax, -16(%rsp)
	movslq	pershsize(%rip), %rcx
	leaq	(%rcx,%rcx,2), %rcx
	leaq	(%rax,%rcx,8), %rcx
	movq	%rcx, -32(%rsp)
	movq	%rax, (%rsi)
	movq	-24(%rsp), %rax
	movq	-32(%rsp), %rcx
	movq	%rcx, (%rax)
	retq
.Lfunc_end97:
	.size	treeoutput11, .Lfunc_end97-treeoutput11
	.cfi_endproc
                                        # -- End function
	.globl	treeoutput12            # -- Begin function treeoutput12
	.p2align	4, 0x90
	.type	treeoutput12,@function
treeoutput12:                           # @treeoutput12
	.cfi_startproc
# %bb.0:                                # %entry
	movq	%rdi, -24(%rsp)
	movq	(%rdi), %rax
	movq	%rax, -32(%rsp)
	movq	%rsi, -8(%rsp)
	movq	(%rsi), %rax
	movq	%rax, -16(%rsp)
	movq	%rax, -32(%rsp)
	movq	%rax, (%rsi)
	movq	-24(%rsp), %rax
	movq	-32(%rsp), %rcx
	movq	%rcx, (%rax)
	retq
.Lfunc_end98:
	.size	treeoutput12, .Lfunc_end98-treeoutput12
	.cfi_endproc
                                        # -- End function
	.globl	treeoutput13            # -- Begin function treeoutput13
	.p2align	4, 0x90
	.type	treeoutput13,@function
treeoutput13:                           # @treeoutput13
	.cfi_startproc
# %bb.0:                                # %entry
	subq	$24, %rsp
	.cfi_def_cfa_offset 32
	movq	%rdi, 16(%rsp)
	movq	(%rdi), %rsi
	movq	%rsi, 8(%rsp)
	movq	dictf(%rip), %rdi
	movl	$1, %edx
	callq	toutent
	movq	16(%rsp), %rax
	movq	8(%rsp), %rcx
	movq	%rcx, (%rax)
	addq	$24, %rsp
	retq
.Lfunc_end99:
	.size	treeoutput13, .Lfunc_end99-treeoutput13
	.cfi_endproc
                                        # -- End function
	.globl	treeoutput14            # -- Begin function treeoutput14
	.p2align	4, 0x90
	.type	treeoutput14,@function
treeoutput14:                           # @treeoutput14
	.cfi_startproc
# %bb.0:                                # %entry
	movq	%rdi, -8(%rsp)
	movq	(%rdi), %rax
	movq	%rax, -16(%rsp)
	movq	(%rax), %rax
	movq	%rax, -16(%rsp)
	movq	%rax, (%rdi)
	retq
.Lfunc_end100:
	.size	treeoutput14, .Lfunc_end100-treeoutput14
	.cfi_endproc
                                        # -- End function
	.globl	treeoutput15            # -- Begin function treeoutput15
	.p2align	4, 0x90
	.type	treeoutput15,@function
treeoutput15:                           # @treeoutput15
	.cfi_startproc
# %bb.0:                                # %entry
	movq	%rdi, -8(%rsp)
	movq	(%rdi), %rax
	movq	%rax, -16(%rsp)
	movq	(%rax), %rax
	movq	%rax, -16(%rsp)
	movq	%rax, (%rdi)
	retq
.Lfunc_end101:
	.size	treeoutput15, .Lfunc_end101-treeoutput15
	.cfi_endproc
                                        # -- End function
	.globl	treeoutput16            # -- Begin function treeoutput16
	.p2align	4, 0x90
	.type	treeoutput16,@function
treeoutput16:                           # @treeoutput16
	.cfi_startproc
# %bb.0:                                # %entry
	movq	%rdi, -8(%rsp)
	movq	(%rdi), %rax
	addq	$24, %rax
	movq	%rax, -16(%rsp)
	movq	%rax, (%rdi)
	retq
.Lfunc_end102:
	.size	treeoutput16, .Lfunc_end102-treeoutput16
	.cfi_endproc
                                        # -- End function
	.globl	treeoutput17            # -- Begin function treeoutput17
	.p2align	4, 0x90
	.type	treeoutput17,@function
treeoutput17:                           # @treeoutput17
	.cfi_startproc
# %bb.0:                                # %entry
	movq	%rdi, -24(%rsp)
	movq	%rsi, -8(%rsp)
	movq	hashtbl(%rip), %rax
	movq	%rax, -16(%rsp)
	movslq	hashsize(%rip), %rcx
	leaq	(%rcx,%rcx,2), %rcx
	leaq	(%rax,%rcx,8), %rcx
	movq	%rcx, -32(%rsp)
	movq	%rax, (%rsi)
	movq	-24(%rsp), %rax
	movq	-32(%rsp), %rcx
	movq	%rcx, (%rax)
	retq
.Lfunc_end103:
	.size	treeoutput17, .Lfunc_end103-treeoutput17
	.cfi_endproc
                                        # -- End function
	.globl	treeoutput18            # -- Begin function treeoutput18
	.p2align	4, 0x90
	.type	treeoutput18,@function
treeoutput18:                           # @treeoutput18
	.cfi_startproc
# %bb.0:                                # %entry
	subq	$24, %rsp
	.cfi_def_cfa_offset 32
	movq	%rdi, 16(%rsp)
	movq	(%rdi), %rsi
	movq	%rsi, 8(%rsp)
	movq	dictf(%rip), %rdi
	movl	$1, %edx
	callq	toutent
	movq	16(%rsp), %rax
	movq	8(%rsp), %rcx
	movq	%rcx, (%rax)
	addq	$24, %rsp
	retq
.Lfunc_end104:
	.size	treeoutput18, .Lfunc_end104-treeoutput18
	.cfi_endproc
                                        # -- End function
	.globl	treeoutput19            # -- Begin function treeoutput19
	.p2align	4, 0x90
	.type	treeoutput19,@function
treeoutput19:                           # @treeoutput19
	.cfi_startproc
# %bb.0:                                # %entry
	movq	%rdi, -8(%rsp)
	movq	(%rdi), %rax
	addq	$24, %rax
	movq	%rax, -16(%rsp)
	movq	%rax, (%rdi)
	retq
.Lfunc_end105:
	.size	treeoutput19, .Lfunc_end105-treeoutput19
	.cfi_endproc
                                        # -- End function
	.globl	treeoutput20            # -- Begin function treeoutput20
	.p2align	4, 0x90
	.type	treeoutput20,@function
treeoutput20:                           # @treeoutput20
	.cfi_startproc
# %bb.0:                                # %entry
	movq	%rdi, -16(%rsp)
	movq	(%rdi), %rax
	movq	%rax, -48(%rsp)
	movq	%rsi, -24(%rsp)
	movq	(%rsi), %rax
	movq	%rax, -56(%rsp)
	movq	%rdx, -32(%rsp)
	movq	(%rdx), %rax
	movq	%rax, -64(%rsp)
	movq	%rcx, -40(%rsp)
	movq	(%rcx), %rax
	movq	%rax, -8(%rsp)
	movq	%rax, -56(%rsp)
	movq	pershtab(%rip), %rcx
	movq	%rcx, -48(%rsp)
	movslq	pershsize(%rip), %rcx
	leaq	(%rcx,%rcx,2), %rcx
	shlq	$3, %rcx
	addq	pershtab(%rip), %rcx
	movq	%rcx, -64(%rsp)
	movq	-40(%rsp), %rcx
	movq	%rax, (%rcx)
	movq	-32(%rsp), %rax
	movq	-64(%rsp), %rcx
	movq	%rcx, (%rax)
	movq	-24(%rsp), %rax
	movq	-56(%rsp), %rcx
	movq	%rcx, (%rax)
	movq	-16(%rsp), %rax
	movq	-48(%rsp), %rcx
	movq	%rcx, (%rax)
	retq
.Lfunc_end106:
	.size	treeoutput20, .Lfunc_end106-treeoutput20
	.cfi_endproc
                                        # -- End function
	.globl	treeoutput21            # -- Begin function treeoutput21
	.p2align	4, 0x90
	.type	treeoutput21,@function
treeoutput21:                           # @treeoutput21
	.cfi_startproc
# %bb.0:                                # %entry
	movq	%rdi, -24(%rsp)
	movq	(%rdi), %rax
	movq	%rax, -32(%rsp)
	movq	%rsi, -8(%rsp)
	movq	(%rsi), %rax
	movq	%rax, -16(%rsp)
	movq	%rax, -32(%rsp)
	movq	%rax, (%rsi)
	movq	-24(%rsp), %rax
	movq	-32(%rsp), %rcx
	movq	%rcx, (%rax)
	retq
.Lfunc_end107:
	.size	treeoutput21, .Lfunc_end107-treeoutput21
	.cfi_endproc
                                        # -- End function
	.globl	treeoutput22            # -- Begin function treeoutput22
	.p2align	4, 0x90
	.type	treeoutput22,@function
treeoutput22:                           # @treeoutput22
	.cfi_startproc
# %bb.0:                                # %entry
	movq	%rdi, -8(%rsp)
	movq	(%rdi), %rax
	movq	%rax, -32(%rsp)
	movq	%rsi, -16(%rsp)
	movq	(%rsi), %rcx
	movq	%rcx, -24(%rsp)
	leaq	8(%rax), %rdx
	movq	%rdx, -32(%rsp)
	movq	%rcx, (%rax)
	movq	-16(%rsp), %rax
	movq	-24(%rsp), %rcx
	movq	%rcx, (%rax)
	movq	-8(%rsp), %rax
	movq	-32(%rsp), %rcx
	movq	%rcx, (%rax)
	retq
.Lfunc_end108:
	.size	treeoutput22, .Lfunc_end108-treeoutput22
	.cfi_endproc
                                        # -- End function
	.globl	treeoutput23            # -- Begin function treeoutput23
	.p2align	4, 0x90
	.type	treeoutput23,@function
treeoutput23:                           # @treeoutput23
	.cfi_startproc
# %bb.0:                                # %entry
	movq	%rdi, -8(%rsp)
	movq	(%rdi), %rax
	movq	%rax, -16(%rsp)
	movq	(%rax), %rax
	movq	%rax, -16(%rsp)
	movq	%rax, (%rdi)
	retq
.Lfunc_end109:
	.size	treeoutput23, .Lfunc_end109-treeoutput23
	.cfi_endproc
                                        # -- End function
	.globl	treeoutput24            # -- Begin function treeoutput24
	.p2align	4, 0x90
	.type	treeoutput24,@function
treeoutput24:                           # @treeoutput24
	.cfi_startproc
# %bb.0:                                # %entry
	movq	%rdi, -8(%rsp)
	movq	(%rdi), %rax
	movq	%rax, -16(%rsp)
	movq	(%rax), %rax
	movq	%rax, -16(%rsp)
	movq	%rax, (%rdi)
	retq
.Lfunc_end110:
	.size	treeoutput24, .Lfunc_end110-treeoutput24
	.cfi_endproc
                                        # -- End function
	.globl	treeoutput25            # -- Begin function treeoutput25
	.p2align	4, 0x90
	.type	treeoutput25,@function
treeoutput25:                           # @treeoutput25
	.cfi_startproc
# %bb.0:                                # %entry
	movq	%rdi, -8(%rsp)
	movq	(%rdi), %rax
	addq	$24, %rax
	movq	%rax, -16(%rsp)
	movq	%rax, (%rdi)
	retq
.Lfunc_end111:
	.size	treeoutput25, .Lfunc_end111-treeoutput25
	.cfi_endproc
                                        # -- End function
	.globl	treeoutput26            # -- Begin function treeoutput26
	.p2align	4, 0x90
	.type	treeoutput26,@function
treeoutput26:                           # @treeoutput26
	.cfi_startproc
# %bb.0:                                # %entry
	movq	%rdi, -24(%rsp)
	movq	%rsi, -8(%rsp)
	movq	hashtbl(%rip), %rax
	movq	%rax, -16(%rsp)
	movslq	hashsize(%rip), %rcx
	leaq	(%rcx,%rcx,2), %rcx
	leaq	(%rax,%rcx,8), %rcx
	movq	%rcx, -32(%rsp)
	movq	%rax, (%rsi)
	movq	-24(%rsp), %rax
	movq	-32(%rsp), %rcx
	movq	%rcx, (%rax)
	retq
.Lfunc_end112:
	.size	treeoutput26, .Lfunc_end112-treeoutput26
	.cfi_endproc
                                        # -- End function
	.globl	treeoutput27            # -- Begin function treeoutput27
	.p2align	4, 0x90
	.type	treeoutput27,@function
treeoutput27:                           # @treeoutput27
	.cfi_startproc
# %bb.0:                                # %entry
	movq	%rdi, -8(%rsp)
	movq	(%rdi), %rax
	movq	%rax, -32(%rsp)
	movq	%rsi, -16(%rsp)
	movq	(%rsi), %rcx
	movq	%rcx, -24(%rsp)
	leaq	8(%rax), %rdx
	movq	%rdx, -32(%rsp)
	movq	%rcx, (%rax)
	movq	-16(%rsp), %rax
	movq	-24(%rsp), %rcx
	movq	%rcx, (%rax)
	movq	-8(%rsp), %rax
	movq	-32(%rsp), %rcx
	movq	%rcx, (%rax)
	retq
.Lfunc_end113:
	.size	treeoutput27, .Lfunc_end113-treeoutput27
	.cfi_endproc
                                        # -- End function
	.globl	treeoutput28            # -- Begin function treeoutput28
	.p2align	4, 0x90
	.type	treeoutput28,@function
treeoutput28:                           # @treeoutput28
	.cfi_startproc
# %bb.0:                                # %entry
	movq	%rdi, -8(%rsp)
	movq	(%rdi), %rax
	addq	$24, %rax
	movq	%rax, -16(%rsp)
	movq	%rax, (%rdi)
	retq
.Lfunc_end114:
	.size	treeoutput28, .Lfunc_end114-treeoutput28
	.cfi_endproc
                                        # -- End function
	.globl	treeoutput29            # -- Begin function treeoutput29
	.p2align	4, 0x90
	.type	treeoutput29,@function
treeoutput29:                           # @treeoutput29
	.cfi_startproc
# %bb.0:                                # %entry
	subq	$56, %rsp
	.cfi_def_cfa_offset 64
	movq	%rdi, 48(%rsp)
	movq	(%rdi), %rax
	movq	%rax, 16(%rsp)
	movq	%rsi, 40(%rsp)
	movl	(%rsi), %eax
	movl	%eax, 12(%rsp)
	movq	%rdx, 32(%rsp)
	movq	(%rdx), %rdi
	movq	%rdi, 24(%rsp)
	movl	12(%rsp), %esi
	movl	$8, %edx
	movl	$pdictcmp, %ecx
	callq	qsort
	movq	24(%rsp), %rax
	movq	%rax, 16(%rsp)
	movq	32(%rsp), %rcx
	movq	%rax, (%rcx)
	movq	40(%rsp), %rax
	movl	12(%rsp), %ecx
	movl	%ecx, (%rax)
	movq	48(%rsp), %rax
	movq	16(%rsp), %rcx
	movq	%rcx, (%rax)
	addq	$56, %rsp
	retq
.Lfunc_end115:
	.size	treeoutput29, .Lfunc_end115-treeoutput29
	.cfi_endproc
                                        # -- End function
	.globl	treeoutput30            # -- Begin function treeoutput30
	.p2align	4, 0x90
	.type	treeoutput30,@function
treeoutput30:                           # @treeoutput30
	.cfi_startproc
# %bb.0:                                # %entry
	subq	$24, %rsp
	.cfi_def_cfa_offset 32
	movq	%rdi, 16(%rsp)
	movq	(%rdi), %rax
	movq	dictf(%rip), %rdi
	leaq	8(%rax), %rcx
	movq	%rcx, 8(%rsp)
	movq	(%rax), %rsi
	movl	$1, %edx
	callq	toutent
	movq	16(%rsp), %rax
	movq	8(%rsp), %rcx
	movq	%rcx, (%rax)
	addq	$24, %rsp
	retq
.Lfunc_end116:
	.size	treeoutput30, .Lfunc_end116-treeoutput30
	.cfi_endproc
                                        # -- End function
	.globl	treeoutput31            # -- Begin function treeoutput31
	.p2align	4, 0x90
	.type	treeoutput31,@function
treeoutput31:                           # @treeoutput31
	.cfi_startproc
# %bb.0:                                # %entry
	subq	$24, %rsp
	.cfi_def_cfa_offset 32
	movq	%rdi, 16(%rsp)
	movq	(%rdi), %rdi
	movq	%rdi, 8(%rsp)
	callq	free
	movq	16(%rsp), %rax
	movq	8(%rsp), %rcx
	movq	%rcx, (%rax)
	addq	$24, %rsp
	retq
.Lfunc_end117:
	.size	treeoutput31, .Lfunc_end117-treeoutput31
	.cfi_endproc
                                        # -- End function
	.globl	treeoutput32            # -- Begin function treeoutput32
	.p2align	4, 0x90
	.type	treeoutput32,@function
treeoutput32:                           # @treeoutput32
	.cfi_startproc
# %bb.0:                                # %entry
	pushq	%rax
	.cfi_def_cfa_offset 16
	movq	dictf(%rip), %rdi
	callq	fclose
	popq	%rax
	retq
.Lfunc_end118:
	.size	treeoutput32, .Lfunc_end118-treeoutput32
	.cfi_endproc
                                        # -- End function
	.globl	toutent                 # -- Begin function toutent
	.p2align	4, 0x90
	.type	toutent,@function
toutent:                                # @toutent
	.cfi_startproc
# %bb.0:                                # %entry
	pushq	%rbp
	.cfi_def_cfa_offset 16
	.cfi_offset %rbp, -16
	movq	%rsp, %rbp
	.cfi_def_cfa_register %rbp
	pushq	%r15
	pushq	%r14
	pushq	%r13
	pushq	%r12
	pushq	%rbx
	subq	$200, %rsp
	.cfi_offset %rbx, -56
	.cfi_offset %r12, -48
	.cfi_offset %r13, -40
	.cfi_offset %r14, -32
	.cfi_offset %r15, -24
	movl	%edx, %r14d
	movq	%rsi, %rbx
	movq	%rdi, %r15
	movl	$222222478, -108(%rbp)  # imm = 0xD3ED88E
	movl	$555555811, -104(%rbp)  # imm = 0x211D1BE3
	movl	$444444700, -100(%rbp)  # imm = 0x1A7DB01C
	movl	$222222478, %edi        # imm = 0xD3ED88E
	movl	$555555811, %esi        # imm = 0x211D1BE3
	movl	$444444700, %edx        # imm = 0x1A7DB01C
	callq	guardMe
	movl	$222222477, -96(%rbp)   # imm = 0xD3ED88D
	movl	$555555810, -92(%rbp)   # imm = 0x211D1BE2
	movl	$444444699, -88(%rbp)   # imm = 0x1A7DB01B
	movl	$222222477, %edi        # imm = 0xD3ED88D
	movl	$555555810, %esi        # imm = 0x211D1BE2
	movl	$444444699, %edx        # imm = 0x1A7DB01B
	callq	guardMe
	movl	$222222476, -84(%rbp)   # imm = 0xD3ED88C
	movl	$555555809, -80(%rbp)   # imm = 0x211D1BE1
	movl	$444444698, -76(%rbp)   # imm = 0x1A7DB01A
	movl	$222222476, %edi        # imm = 0xD3ED88C
	movl	$555555809, %esi        # imm = 0x211D1BE1
	movl	$444444698, %edx        # imm = 0x1A7DB01A
	callq	guardMe
	movq	%r15, -56(%rbp)
	movq	%rbx, -72(%rbp)
	movl	%r14d, -60(%rbp)
	movq	%rbx, -48(%rbp)
	movq	8(%rbx), %rsi
	leaq	-240(%rbp), %rdi
	movl	$100, %edx
	movl	$1, %ecx
	callq	strtoichar
	testl	%eax, %eax
	je	.LBB119_2
# %bb.1:                                # %if.then
	leaq	-48(%rbp), %rdi
	callq	toutent0
.LBB119_2:                              # %if.end
	movl	$805306368, %r13d       # imm = 0x30000000
	leaq	-240(%rbp), %r14
	leaq	-48(%rbp), %r12
	leaq	-56(%rbp), %r15
	cmpl	$0, -60(%rbp)
	jne	.LBB119_4
	jmp	.LBB119_5
	.p2align	4, 0x90
.LBB119_15:                             # %if.then37
	movq	%r12, %rdi
	callq	toutent2
	cmpl	$0, -60(%rbp)
	je	.LBB119_5
.LBB119_4:                              # %lor.lhs.false
	movq	-48(%rbp), %rax
	testb	$8, 19(%rax)
	je	.LBB119_14
.LBB119_5:                              # %if.then5
	movq	-48(%rbp), %rax
	movq	16(%rax), %rax
	andq	%r13, %rax
	cmpq	$536870911, %rax        # imm = 0x1FFFFFFF
	jg	.LBB119_11
# %bb.6:                                # %if.then5
	testq	%rax, %rax
	je	.LBB119_16
# %bb.7:                                # %if.then5
	cmpq	$268435456, %rax        # imm = 0x10000000
	jne	.LBB119_14
# %bb.8:                                # %sw.bb12
	movq	-48(%rbp), %rax
	testb	$64, 19(%rax)
	je	.LBB119_10
# %bb.9:                                # %lor.lhs.false16
	movq	-48(%rbp), %rax
	cmpq	-72(%rbp), %rax
	je	.LBB119_14
.LBB119_10:                             # %if.then18
	movq	%r14, %rdi
	callq	upcase
	jmp	.LBB119_17
	.p2align	4, 0x90
.LBB119_11:                             # %if.then5
	cmpq	$536870912, %rax        # imm = 0x20000000
	je	.LBB119_18
# %bb.12:                               # %if.then5
	cmpq	$805306368, %rax        # imm = 0x30000000
	jne	.LBB119_14
# %bb.13:                               # %sw.bb30
	movq	%r12, %rdi
	movq	%r15, %rsi
	callq	toutent1
	jmp	.LBB119_14
	.p2align	4, 0x90
.LBB119_16:                             # %sw.bb
	movq	%r14, %rdi
	callq	lowcase
	jmp	.LBB119_17
	.p2align	4, 0x90
.LBB119_18:                             # %sw.bb23
	movq	%r14, %rdi
	callq	lowcase
	movzbl	-240(%rbp), %eax
	movb	hashheader+754(%rax), %al
	movb	%al, -240(%rbp)
.LBB119_17:                             # %if.end32
	movq	-56(%rbp), %rbx
	movl	$1, %esi
	movq	%r14, %rdi
	callq	ichartosstr
	movq	-48(%rbp), %rdx
	movq	%rbx, %rdi
	movq	%rax, %rsi
	callq	toutword
.LBB119_14:                             # %if.end32
	movq	-48(%rbp), %rax
	testb	$64, 19(%rax)
	jne	.LBB119_15
# %bb.19:                               # %for.end
	addq	$200, %rsp
	popq	%rbx
	popq	%r12
	popq	%r13
	popq	%r14
	popq	%r15
	popq	%rbp
	retq
.Lfunc_end119:
	.size	toutent, .Lfunc_end119-toutent
	.cfi_endproc
                                        # -- End function
	.globl	strtoichar              # -- Begin function strtoichar
	.p2align	4, 0x90
	.type	strtoichar,@function
strtoichar:                             # @strtoichar
	.cfi_startproc
# %bb.0:                                # %entry
	pushq	%rbp
	.cfi_def_cfa_offset 16
	.cfi_offset %rbp, -16
	movq	%rsp, %rbp
	.cfi_def_cfa_register %rbp
	pushq	%r15
	pushq	%r14
	pushq	%r12
	pushq	%rbx
	subq	$64, %rsp
	.cfi_offset %rbx, -48
	.cfi_offset %r12, -40
	.cfi_offset %r14, -32
	.cfi_offset %r15, -24
	movl	%ecx, %r14d
	movl	%edx, %r15d
	movq	%rsi, %r12
	movq	%rdi, %rbx
	movl	$222222442, -88(%rbp)   # imm = 0xD3ED86A
	movl	$555555775, -84(%rbp)   # imm = 0x211D1BBF
	movl	$444444664, -80(%rbp)   # imm = 0x1A7DAFF8
	movl	$222222442, %edi        # imm = 0xD3ED86A
	movl	$555555775, %esi        # imm = 0x211D1BBF
	movl	$444444664, %edx        # imm = 0x1A7DAFF8
	callq	guardMe
	movl	$222222441, -76(%rbp)   # imm = 0xD3ED869
	movl	$555555774, -72(%rbp)   # imm = 0x211D1BBE
	movl	$444444663, -68(%rbp)   # imm = 0x1A7DAFF7
	movl	$222222441, %edi        # imm = 0xD3ED869
	movl	$555555774, %esi        # imm = 0x211D1BBE
	movl	$444444663, %edx        # imm = 0x1A7DAFF7
	callq	guardMe
	movq	%rbx, -64(%rbp)
	movq	%r12, -48(%rbp)
	movl	%r15d, -40(%rbp)
	movl	%r14d, -52(%rbp)
	leaq	-40(%rbp), %rdi
	callq	strtoichar0
	leaq	-64(%rbp), %r14
	leaq	-48(%rbp), %rbx
	leaq	-36(%rbp), %r15
	addl	$-1, -40(%rbp)
	jg	.LBB120_3
	jmp	.LBB120_2
	.p2align	4, 0x90
.LBB120_13:                             # %for.inc
	movq	%rbx, %rdi
	movq	%r15, %rsi
	callq	strtoichar3
	addl	$-1, -40(%rbp)
	jle	.LBB120_2
.LBB120_3:                              # %land.rhs
	movq	-48(%rbp), %rax
	cmpb	$0, (%rax)
	setne	%al
	testb	%al, %al
	jne	.LBB120_5
	jmp	.LBB120_14
	.p2align	4, 0x90
.LBB120_2:
	xorl	%eax, %eax
	testb	%al, %al
	je	.LBB120_14
.LBB120_5:                              # %for.body
	movl	$1, -36(%rbp)
	movq	-48(%rbp), %rax
	movzbl	(%rax), %eax
	cmpb	$0, hashheader+1894(%rax)
	je	.LBB120_6
# %bb.7:                                # %land.rhs7
	movq	-48(%rbp), %rdi
	movl	-52(%rbp), %esi
	callq	stringcharlen
	movl	%eax, -36(%rbp)
	movl	$1, %ecx
	testl	%eax, %eax
	jg	.LBB120_9
# %bb.8:                                # %cond.false
	movl	$1, -36(%rbp)
	xorl	%ecx, %ecx
.LBB120_9:                              # %cond.end
	testl	%ecx, %ecx
	setne	%al
	jmp	.LBB120_10
	.p2align	4, 0x90
.LBB120_6:
	xorl	%eax, %eax
.LBB120_10:                             # %land.end11
	movq	%r14, %rdi
	testb	%al, %al
	je	.LBB120_12
# %bb.11:                               # %if.then
	callq	strtoichar1
	jmp	.LBB120_13
	.p2align	4, 0x90
.LBB120_12:                             # %if.else
	movq	%rbx, %rsi
	callq	strtoichar2
	jmp	.LBB120_13
.LBB120_14:                             # %for.end
	movq	-64(%rbp), %rax
	movb	$0, (%rax)
	xorl	%eax, %eax
	cmpl	$0, -40(%rbp)
	setle	%al
	addq	$64, %rsp
	popq	%rbx
	popq	%r12
	popq	%r14
	popq	%r15
	popq	%rbp
	retq
.Lfunc_end120:
	.size	strtoichar, .Lfunc_end120-strtoichar
	.cfi_endproc
                                        # -- End function
	.globl	toutent0                # -- Begin function toutent0
	.p2align	4, 0x90
	.type	toutent0,@function
toutent0:                               # @toutent0
	.cfi_startproc
# %bb.0:                                # %entry
	subq	$24, %rsp
	.cfi_def_cfa_offset 32
	movq	%rdi, 16(%rsp)
	movq	(%rdi), %rax
	movq	%rax, 8(%rsp)
	movq	stderr(%rip), %rdi
	movq	8(%rax), %rdx
	movl	$.L.str.385, %esi
	movl	$694, %ecx              # imm = 0x2B6
	movl	$.L.str.1.386, %r8d
	xorl	%eax, %eax
	callq	fprintf
	movq	16(%rsp), %rax
	movq	8(%rsp), %rcx
	movq	%rcx, (%rax)
	addq	$24, %rsp
	retq
.Lfunc_end121:
	.size	toutent0, .Lfunc_end121-toutent0
	.cfi_endproc
                                        # -- End function
	.globl	lowcase                 # -- Begin function lowcase
	.p2align	4, 0x90
	.type	lowcase,@function
lowcase:                                # @lowcase
	.cfi_startproc
# %bb.0:                                # %entry
	pushq	%rbp
	.cfi_def_cfa_offset 16
	.cfi_offset %rbp, -16
	movq	%rsp, %rbp
	.cfi_def_cfa_register %rbp
	pushq	%rbx
	subq	$72, %rsp
	.cfi_offset %rbx, -24
	movq	%rdi, %rbx
	movl	$222222475, -76(%rbp)   # imm = 0xD3ED88B
	movl	$555555808, -72(%rbp)   # imm = 0x211D1BE0
	movl	$444444697, -68(%rbp)   # imm = 0x1A7DB019
	movl	$222222475, %edi        # imm = 0xD3ED88B
	movl	$555555808, %esi        # imm = 0x211D1BE0
	movl	$444444697, %edx        # imm = 0x1A7DB019
	callq	guardMe
	movl	$222222474, -64(%rbp)   # imm = 0xD3ED88A
	movl	$555555807, -60(%rbp)   # imm = 0x211D1BDF
	movl	$444444696, -56(%rbp)   # imm = 0x1A7DB018
	movl	$222222474, %edi        # imm = 0xD3ED88A
	movl	$555555807, %esi        # imm = 0x211D1BDF
	movl	$444444696, %edx        # imm = 0x1A7DB018
	callq	guardMe
	movl	$222222473, -52(%rbp)   # imm = 0xD3ED889
	movl	$555555806, -48(%rbp)   # imm = 0x211D1BDE
	movl	$444444695, -44(%rbp)   # imm = 0x1A7DB017
	movl	$222222473, %edi        # imm = 0xD3ED889
	movl	$555555806, %esi        # imm = 0x211D1BDE
	movl	$444444695, %edx        # imm = 0x1A7DB017
	callq	guardMe
	movl	$222222472, -40(%rbp)   # imm = 0xD3ED888
	movl	$555555805, -36(%rbp)   # imm = 0x211D1BDD
	movl	$444444694, -32(%rbp)   # imm = 0x1A7DB016
	movl	$222222472, %edi        # imm = 0xD3ED888
	movl	$555555805, %esi        # imm = 0x211D1BDD
	movl	$444444694, %edx        # imm = 0x1A7DB016
	callq	guardMe
	movl	$222222471, -28(%rbp)   # imm = 0xD3ED887
	movl	$555555804, -24(%rbp)   # imm = 0x211D1BDC
	movl	$444444693, -20(%rbp)   # imm = 0x1A7DB015
	movl	$222222471, %edi        # imm = 0xD3ED887
	movl	$555555804, %esi        # imm = 0x211D1BDC
	movl	$444444693, %edx        # imm = 0x1A7DB015
	callq	guardMe
	movq	%rbx, -16(%rbp)
	leaq	-16(%rbp), %rbx
	jmp	.LBB122_1
	.p2align	4, 0x90
.LBB122_2:                              # %while.body
                                        #   in Loop: Header=BB122_1 Depth=1
	movq	%rbx, %rdi
	callq	lowcase0
.LBB122_1:                              # %while.cond
                                        # =>This Inner Loop Header: Depth=1
	movq	-16(%rbp), %rax
	cmpb	$0, (%rax)
	jne	.LBB122_2
# %bb.3:                                # %while.end
	addq	$72, %rsp
	popq	%rbx
	popq	%rbp
	retq
.Lfunc_end122:
	.size	lowcase, .Lfunc_end122-lowcase
	.cfi_endproc
                                        # -- End function
	.globl	ichartosstr             # -- Begin function ichartosstr
	.p2align	4, 0x90
	.type	ichartosstr,@function
ichartosstr:                            # @ichartosstr
	.cfi_startproc
# %bb.0:                                # %entry
	pushq	%rbp
	.cfi_def_cfa_offset 16
	.cfi_offset %rbp, -16
	movq	%rsp, %rbp
	.cfi_def_cfa_register %rbp
	pushq	%r14
	pushq	%rbx
	subq	$48, %rsp
	.cfi_offset %rbx, -32
	.cfi_offset %r14, -24
	movl	%esi, %r14d
	movq	%rdi, %rbx
	movl	$222222480, -44(%rbp)   # imm = 0xD3ED890
	movl	$555555813, -40(%rbp)   # imm = 0x211D1BE5
	movl	$444444702, -36(%rbp)   # imm = 0x1A7DB01E
	movl	$222222480, %edi        # imm = 0xD3ED890
	movl	$555555813, %esi        # imm = 0x211D1BE5
	movl	$444444702, %edx        # imm = 0x1A7DB01E
	callq	guardMe
	movl	$222222479, -32(%rbp)   # imm = 0xD3ED88F
	movl	$555555812, -28(%rbp)   # imm = 0x211D1BE4
	movl	$444444701, -24(%rbp)   # imm = 0x1A7DB01D
	movl	$222222479, %edi        # imm = 0xD3ED88F
	movl	$555555812, %esi        # imm = 0x211D1BE4
	movl	$444444701, %edx        # imm = 0x1A7DB01D
	callq	guardMe
	movq	%rbx, -56(%rbp)
	movl	%r14d, -20(%rbp)
	movl	$ichartosstr.out, %edi
	movl	$184, %edx
	movq	%rbx, %rsi
	movl	%r14d, %ecx
	callq	ichartostr
	testl	%eax, %eax
	je	.LBB123_2
# %bb.1:                                # %if.then
	callq	ichartosstr0
.LBB123_2:                              # %if.end
	movl	$ichartosstr.out, %eax
	addq	$48, %rsp
	popq	%rbx
	popq	%r14
	popq	%rbp
	retq
.Lfunc_end123:
	.size	ichartosstr, .Lfunc_end123-ichartosstr
	.cfi_endproc
                                        # -- End function
	.p2align	4, 0x90         # -- Begin function toutword
	.type	toutword,@function
toutword:                               # @toutword
	.cfi_startproc
# %bb.0:                                # %entry
	pushq	%rbp
	.cfi_def_cfa_offset 16
	.cfi_offset %rbp, -16
	movq	%rsp, %rbp
	.cfi_def_cfa_register %rbp
	pushq	%r15
	pushq	%r14
	pushq	%rbx
	subq	$72, %rsp
	.cfi_offset %rbx, -40
	.cfi_offset %r14, -32
	.cfi_offset %r15, -24
	movq	%rdx, %r14
	movq	%rsi, %r15
	movq	%rdi, %rbx
	movl	$222222483, -92(%rbp)   # imm = 0xD3ED893
	movl	$555555816, -88(%rbp)   # imm = 0x211D1BE8
	movl	$444444705, -84(%rbp)   # imm = 0x1A7DB021
	movl	$222222483, %edi        # imm = 0xD3ED893
	movl	$555555816, %esi        # imm = 0x211D1BE8
	movl	$444444705, %edx        # imm = 0x1A7DB021
	callq	guardMe
	movl	$222222482, -80(%rbp)   # imm = 0xD3ED892
	movl	$555555815, -76(%rbp)   # imm = 0x211D1BE7
	movl	$444444704, -72(%rbp)   # imm = 0x1A7DB020
	movl	$222222482, %edi        # imm = 0xD3ED892
	movl	$555555815, %esi        # imm = 0x211D1BE7
	movl	$444444704, %edx        # imm = 0x1A7DB020
	callq	guardMe
	movl	$222222481, -68(%rbp)   # imm = 0xD3ED891
	movl	$555555814, -64(%rbp)   # imm = 0x211D1BE6
	movl	$444444703, -60(%rbp)   # imm = 0x1A7DB01F
	movl	$222222481, %edi        # imm = 0xD3ED891
	movl	$555555814, %esi        # imm = 0x211D1BE6
	movl	$444444703, %edx        # imm = 0x1A7DB01F
	callq	guardMe
	movq	%rbx, -40(%rbp)
	movq	%r15, -56(%rbp)
	movq	%r14, -48(%rbp)
	movl	$0, has_marker(%rip)
	leaq	-56(%rbp), %rdi
	leaq	-40(%rbp), %r14
	movq	%r14, %rsi
	callq	toutword0
	movl	$0, -28(%rbp)
	leaq	-28(%rbp), %rbx
	cmpl	$25, -28(%rbp)
	jle	.LBB124_2
	jmp	.LBB124_5
	.p2align	4, 0x90
.LBB124_4:                              # %for.inc
                                        #   in Loop: Header=BB124_2 Depth=1
	addl	$1, -28(%rbp)
	cmpl	$25, -28(%rbp)
	jg	.LBB124_5
.LBB124_2:                              # %for.body
                                        # =>This Inner Loop Header: Depth=1
	movq	-48(%rbp), %rax
	movq	16(%rax), %rax
	movzbl	-28(%rbp), %ecx
	btq	%rcx, %rax
	jae	.LBB124_4
# %bb.3:                                # %if.then
                                        #   in Loop: Header=BB124_2 Depth=1
	movq	%rbx, %rdi
	movq	%r14, %rsi
	callq	toutword1
	jmp	.LBB124_4
.LBB124_5:                              # %for.end
	leaq	-40(%rbp), %rdi
	callq	toutword2
	addq	$72, %rsp
	popq	%rbx
	popq	%r14
	popq	%r15
	popq	%rbp
	retq
.Lfunc_end124:
	.size	toutword, .Lfunc_end124-toutword
	.cfi_endproc
                                        # -- End function
	.globl	upcase                  # -- Begin function upcase
	.p2align	4, 0x90
	.type	upcase,@function
upcase:                                 # @upcase
	.cfi_startproc
# %bb.0:                                # %entry
	pushq	%rbp
	.cfi_def_cfa_offset 16
	.cfi_offset %rbp, -16
	movq	%rsp, %rbp
	.cfi_def_cfa_register %rbp
	pushq	%rbx
	subq	$56, %rsp
	.cfi_offset %rbx, -24
	movq	%rdi, %rbx
	movl	$222222456, -52(%rbp)   # imm = 0xD3ED878
	movl	$555555789, -48(%rbp)   # imm = 0x211D1BCD
	movl	$444444678, -44(%rbp)   # imm = 0x1A7DB006
	movl	$222222456, %edi        # imm = 0xD3ED878
	movl	$555555789, %esi        # imm = 0x211D1BCD
	movl	$444444678, %edx        # imm = 0x1A7DB006
	callq	guardMe
	movl	$222222455, -40(%rbp)   # imm = 0xD3ED877
	movl	$555555788, -36(%rbp)   # imm = 0x211D1BCC
	movl	$444444677, -32(%rbp)   # imm = 0x1A7DB005
	movl	$222222455, %edi        # imm = 0xD3ED877
	movl	$555555788, %esi        # imm = 0x211D1BCC
	movl	$444444677, %edx        # imm = 0x1A7DB005
	callq	guardMe
	movl	$222222454, -28(%rbp)   # imm = 0xD3ED876
	movl	$555555787, -24(%rbp)   # imm = 0x211D1BCB
	movl	$444444676, -20(%rbp)   # imm = 0x1A7DB004
	movl	$222222454, %edi        # imm = 0xD3ED876
	movl	$555555787, %esi        # imm = 0x211D1BCB
	movl	$444444676, %edx        # imm = 0x1A7DB004
	callq	guardMe
	movq	%rbx, -16(%rbp)
	leaq	-16(%rbp), %rbx
	jmp	.LBB125_1
	.p2align	4, 0x90
.LBB125_2:                              # %while.body
                                        #   in Loop: Header=BB125_1 Depth=1
	movq	%rbx, %rdi
	callq	upcase0
.LBB125_1:                              # %while.cond
                                        # =>This Inner Loop Header: Depth=1
	movq	-16(%rbp), %rax
	cmpb	$0, (%rax)
	jne	.LBB125_2
# %bb.3:                                # %while.end
	addq	$56, %rsp
	popq	%rbx
	popq	%rbp
	retq
.Lfunc_end125:
	.size	upcase, .Lfunc_end125-upcase
	.cfi_endproc
                                        # -- End function
	.globl	toutent1                # -- Begin function toutent1
	.p2align	4, 0x90
	.type	toutent1,@function
toutent1:                               # @toutent1
	.cfi_startproc
# %bb.0:                                # %entry
	subq	$40, %rsp
	.cfi_def_cfa_offset 48
	movq	%rdi, 32(%rsp)
	movq	(%rdi), %rdx
	movq	%rdx, 24(%rsp)
	movq	%rsi, 16(%rsp)
	movq	(%rsi), %rdi
	movq	%rdi, 8(%rsp)
	movq	8(%rdx), %rsi
	callq	toutword
	movq	16(%rsp), %rax
	movq	8(%rsp), %rcx
	movq	%rcx, (%rax)
	movq	32(%rsp), %rax
	movq	24(%rsp), %rcx
	movq	%rcx, (%rax)
	addq	$40, %rsp
	retq
.Lfunc_end126:
	.size	toutent1, .Lfunc_end126-toutent1
	.cfi_endproc
                                        # -- End function
	.globl	toutent2                # -- Begin function toutent2
	.p2align	4, 0x90
	.type	toutent2,@function
toutent2:                               # @toutent2
	.cfi_startproc
# %bb.0:                                # %entry
	movq	%rdi, -8(%rsp)
	movq	(%rdi), %rax
	movq	%rax, -16(%rsp)
	movq	(%rax), %rax
	movq	%rax, -16(%rsp)
	movq	%rax, (%rdi)
	retq
.Lfunc_end127:
	.size	toutent2, .Lfunc_end127-toutent2
	.cfi_endproc
                                        # -- End function
	.globl	upcase0                 # -- Begin function upcase0
	.p2align	4, 0x90
	.type	upcase0,@function
upcase0:                                # @upcase0
	.cfi_startproc
# %bb.0:                                # %entry
	movq	%rdi, -8(%rsp)
	movq	(%rdi), %rax
	movq	%rax, -16(%rsp)
	movzbl	(%rax), %ecx
	movb	hashheader+754(%rcx), %cl
	movb	%cl, (%rax)
	movq	-16(%rsp), %rax
	incq	%rax
	movq	%rax, -16(%rsp)
	movq	-8(%rsp), %rcx
	movq	%rax, (%rcx)
	retq
.Lfunc_end128:
	.size	upcase0, .Lfunc_end128-upcase0
	.cfi_endproc
                                        # -- End function
	.globl	toutword0               # -- Begin function toutword0
	.p2align	4, 0x90
	.type	toutword0,@function
toutword0:                              # @toutword0
	.cfi_startproc
# %bb.0:                                # %entry
	subq	$40, %rsp
	.cfi_def_cfa_offset 48
	movq	%rdi, 32(%rsp)
	movq	(%rdi), %rdx
	movq	%rdx, 24(%rsp)
	movq	%rsi, 16(%rsp)
	movq	(%rsi), %rdi
	movq	%rdi, 8(%rsp)
	movl	$.L.str.6.402, %esi
	xorl	%eax, %eax
	callq	fprintf
	movq	16(%rsp), %rax
	movq	8(%rsp), %rcx
	movq	%rcx, (%rax)
	movq	32(%rsp), %rax
	movq	24(%rsp), %rcx
	movq	%rcx, (%rax)
	addq	$40, %rsp
	retq
.Lfunc_end129:
	.size	toutword0, .Lfunc_end129-toutword0
	.cfi_endproc
                                        # -- End function
	.globl	toutword1               # -- Begin function toutword1
	.p2align	4, 0x90
	.type	toutword1,@function
toutword1:                              # @toutword1
	.cfi_startproc
# %bb.0:                                # %entry
	subq	$40, %rsp
	.cfi_def_cfa_offset 48
	movq	%rdi, 32(%rsp)
	movl	(%rdi), %eax
	movl	%eax, 12(%rsp)
	movq	%rsi, 24(%rsp)
	movq	(%rsi), %rdi
	movq	%rdi, 16(%rsp)
	addl	$65, %eax
	movl	%eax, %esi
	callq	flagout
	movq	24(%rsp), %rax
	movq	16(%rsp), %rcx
	movq	%rcx, (%rax)
	movq	32(%rsp), %rax
	movl	12(%rsp), %ecx
	movl	%ecx, (%rax)
	addq	$40, %rsp
	retq
.Lfunc_end130:
	.size	toutword1, .Lfunc_end130-toutword1
	.cfi_endproc
                                        # -- End function
	.globl	toutword2               # -- Begin function toutword2
	.p2align	4, 0x90
	.type	toutword2,@function
toutword2:                              # @toutword2
	.cfi_startproc
# %bb.0:                                # %entry
	subq	$24, %rsp
	.cfi_def_cfa_offset 32
	movq	%rdi, 16(%rsp)
	movq	(%rdi), %rdi
	movq	%rdi, 8(%rsp)
	movl	$.L.str.7.403, %esi
	xorl	%eax, %eax
	callq	fprintf
	movq	16(%rsp), %rax
	movq	8(%rsp), %rcx
	movq	%rcx, (%rax)
	addq	$24, %rsp
	retq
.Lfunc_end131:
	.size	toutword2, .Lfunc_end131-toutword2
	.cfi_endproc
                                        # -- End function
	.p2align	4, 0x90         # -- Begin function flagout
	.type	flagout,@function
flagout:                                # @flagout
	.cfi_startproc
# %bb.0:                                # %entry
	pushq	%rbp
	.cfi_def_cfa_offset 16
	.cfi_offset %rbp, -16
	movq	%rsp, %rbp
	.cfi_def_cfa_register %rbp
	subq	$16, %rsp
	movq	%rdi, -16(%rbp)
	movl	%esi, -4(%rbp)
	cmpl	$0, has_marker(%rip)
	jne	.LBB132_2
# %bb.1:                                # %if.then
	leaq	-16(%rbp), %rdi
	callq	flagout0
.LBB132_2:                              # %if.end
	movl	$1, has_marker(%rip)
	leaq	-16(%rbp), %rdi
	leaq	-4(%rbp), %rsi
	callq	flagout1
	addq	$16, %rsp
	popq	%rbp
	retq
.Lfunc_end132:
	.size	flagout, .Lfunc_end132-flagout
	.cfi_endproc
                                        # -- End function
	.globl	flagout0                # -- Begin function flagout0
	.p2align	4, 0x90
	.type	flagout0,@function
flagout0:                               # @flagout0
	.cfi_startproc
# %bb.0:                                # %entry
	subq	$24, %rsp
	.cfi_def_cfa_offset 32
	movq	%rdi, 16(%rsp)
	movq	(%rdi), %rsi
	movq	%rsi, 8(%rsp)
	movsbl	hashheader+68(%rip), %edi
	callq	_IO_putc
	movq	16(%rsp), %rax
	movq	8(%rsp), %rcx
	movq	%rcx, (%rax)
	addq	$24, %rsp
	retq
.Lfunc_end133:
	.size	flagout0, .Lfunc_end133-flagout0
	.cfi_endproc
                                        # -- End function
	.globl	flagout1                # -- Begin function flagout1
	.p2align	4, 0x90
	.type	flagout1,@function
flagout1:                               # @flagout1
	.cfi_startproc
# %bb.0:                                # %entry
	subq	$40, %rsp
	.cfi_def_cfa_offset 48
	movq	%rdi, 32(%rsp)
	movq	(%rdi), %rax
	movq	%rax, 24(%rsp)
	movq	%rsi, 16(%rsp)
	movl	(%rsi), %edi
	movl	%edi, 12(%rsp)
	movq	%rax, %rsi
	callq	_IO_putc
	movq	16(%rsp), %rax
	movl	12(%rsp), %ecx
	movl	%ecx, (%rax)
	movq	32(%rsp), %rax
	movq	24(%rsp), %rcx
	movq	%rcx, (%rax)
	addq	$40, %rsp
	retq
.Lfunc_end134:
	.size	flagout1, .Lfunc_end134-flagout1
	.cfi_endproc
                                        # -- End function
	.globl	ichartostr              # -- Begin function ichartostr
	.p2align	4, 0x90
	.type	ichartostr,@function
ichartostr:                             # @ichartostr
	.cfi_startproc
# %bb.0:                                # %entry
	pushq	%rbp
	.cfi_def_cfa_offset 16
	.cfi_offset %rbp, -16
	movq	%rsp, %rbp
	.cfi_def_cfa_register %rbp
	pushq	%r15
	pushq	%r14
	pushq	%r12
	pushq	%rbx
	subq	$96, %rsp
	.cfi_offset %rbx, -48
	.cfi_offset %r12, -40
	.cfi_offset %r14, -32
	.cfi_offset %r15, -24
	movl	%ecx, %r14d
	movl	%edx, %r15d
	movq	%rsi, %r12
	movq	%rdi, %rbx
	movl	$222222446, -128(%rbp)  # imm = 0xD3ED86E
	movl	$555555779, -124(%rbp)  # imm = 0x211D1BC3
	movl	$444444668, -120(%rbp)  # imm = 0x1A7DAFFC
	movl	$222222446, %edi        # imm = 0xD3ED86E
	movl	$555555779, %esi        # imm = 0x211D1BC3
	movl	$444444668, %edx        # imm = 0x1A7DAFFC
	callq	guardMe
	movl	$222222445, -116(%rbp)  # imm = 0xD3ED86D
	movl	$555555778, -112(%rbp)  # imm = 0x211D1BC2
	movl	$444444667, -108(%rbp)  # imm = 0x1A7DAFFB
	movl	$222222445, %edi        # imm = 0xD3ED86D
	movl	$555555778, %esi        # imm = 0x211D1BC2
	movl	$444444667, %edx        # imm = 0x1A7DAFFB
	callq	guardMe
	movl	$222222444, -104(%rbp)  # imm = 0xD3ED86C
	movl	$555555777, -100(%rbp)  # imm = 0x211D1BC1
	movl	$444444666, -96(%rbp)   # imm = 0x1A7DAFFA
	movl	$222222444, %edi        # imm = 0xD3ED86C
	movl	$555555777, %esi        # imm = 0x211D1BC1
	movl	$444444666, %edx        # imm = 0x1A7DAFFA
	callq	guardMe
	movl	$222222443, -92(%rbp)   # imm = 0xD3ED86B
	movl	$555555776, -88(%rbp)   # imm = 0x211D1BC0
	movl	$444444665, -84(%rbp)   # imm = 0x1A7DAFF9
	movl	$222222443, %edi        # imm = 0xD3ED86B
	movl	$555555776, %esi        # imm = 0x211D1BC0
	movl	$444444665, %edx        # imm = 0x1A7DAFF9
	callq	guardMe
	movq	%rbx, -56(%rbp)
	movq	%r12, -80(%rbp)
	movl	%r15d, -44(%rbp)
	movl	%r14d, -60(%rbp)
	leaq	-56(%rbp), %r14
	leaq	-36(%rbp), %rbx
	leaq	-72(%rbp), %r15
	leaq	-40(%rbp), %r12
	addl	$-1, -44(%rbp)
	jg	.LBB135_3
	jmp	.LBB135_2
	.p2align	4, 0x90
.LBB135_15:                             # %while.end
	movq	%r14, %rdi
	callq	ichartostr4
	addl	$-1, -44(%rbp)
	jg	.LBB135_3
.LBB135_2:
	xorl	%eax, %eax
	testb	%al, %al
	je	.LBB135_16
.LBB135_5:                              # %while.body
	cmpl	$127, -36(%rbp)
	jg	.LBB135_7
# %bb.6:                                # %if.then
	movq	%r14, %rdi
	movq	%rbx, %rsi
	callq	ichartostr0
	addl	$-1, -44(%rbp)
	jle	.LBB135_2
.LBB135_3:                              # %land.rhs
	movq	-80(%rbp), %rax
	leaq	1(%rax), %rcx
	movq	%rcx, -80(%rbp)
	movzbl	(%rax), %ecx
	testl	%ecx, %ecx
	setne	%al
	movl	%ecx, -36(%rbp)
	testb	%al, %al
	jne	.LBB135_5
	jmp	.LBB135_16
	.p2align	4, 0x90
.LBB135_7:                              # %if.else
	addl	$-128, -36(%rbp)
	cmpl	$0, -60(%rbp)
	jne	.LBB135_13
# %bb.8:                                # %if.then7
	movq	%r12, %rdi
	callq	ichartostr1
	.p2align	4, 0x90
.LBB135_9:                              # %for.cond
                                        # =>This Inner Loop Header: Depth=1
	addl	$-1, -40(%rbp)
	js	.LBB135_13
# %bb.10:                               # %for.body
                                        #   in Loop: Header=BB135_9 Depth=1
	movslq	-40(%rbp), %rax
	movl	hashheader+3524(,%rax,4), %eax
	cmpl	defdupchar(%rip), %eax
	jne	.LBB135_9
# %bb.11:                               # %land.lhs.true
                                        #   in Loop: Header=BB135_9 Depth=1
	movslq	-40(%rbp), %rax
	movl	hashheader+3124(,%rax,4), %eax
	cmpl	-36(%rbp), %eax
	jne	.LBB135_9
# %bb.12:                               # %if.then17
	movq	%rbx, %rdi
	movq	%r12, %rsi
	callq	ichartostr2
	.p2align	4, 0x90
.LBB135_13:                             # %if.end18
	movq	%r15, %rdi
	movq	%rbx, %rsi
	callq	ichartostr3
	.p2align	4, 0x90
.LBB135_14:                             # %while.cond21
                                        # =>This Inner Loop Header: Depth=1
	movq	-72(%rbp), %rax
	leaq	1(%rax), %rcx
	movq	%rcx, -72(%rbp)
	movzbl	(%rax), %eax
	movq	-56(%rbp), %rcx
	leaq	1(%rcx), %rdx
	movq	%rdx, -56(%rbp)
	movb	%al, (%rcx)
	testb	%al, %al
	jne	.LBB135_14
	jmp	.LBB135_15
.LBB135_16:                             # %while.end30
	movq	-56(%rbp), %rax
	movb	$0, (%rax)
	xorl	%eax, %eax
	cmpl	$0, -44(%rbp)
	setle	%al
	addq	$96, %rsp
	popq	%rbx
	popq	%r12
	popq	%r14
	popq	%r15
	popq	%rbp
	retq
.Lfunc_end135:
	.size	ichartostr, .Lfunc_end135-ichartostr
	.cfi_endproc
                                        # -- End function
	.globl	ichartosstr0            # -- Begin function ichartosstr0
	.p2align	4, 0x90
	.type	ichartosstr0,@function
ichartosstr0:                           # @ichartosstr0
	.cfi_startproc
# %bb.0:                                # %entry
	pushq	%rax
	.cfi_def_cfa_offset 16
	movq	stderr(%rip), %rdi
	movl	$.L.str.385, %esi
	movl	$ichartosstr.out, %edx
	movl	$952, %ecx              # imm = 0x3B8
	movl	$.L.str.1.386, %r8d
	xorl	%eax, %eax
	callq	fprintf
	popq	%rax
	retq
.Lfunc_end136:
	.size	ichartosstr0, .Lfunc_end136-ichartosstr0
	.cfi_endproc
                                        # -- End function
	.globl	ichartostr0             # -- Begin function ichartostr0
	.p2align	4, 0x90
	.type	ichartostr0,@function
ichartostr0:                            # @ichartostr0
	.cfi_startproc
# %bb.0:                                # %entry
	movq	%rdi, -8(%rsp)
	movq	(%rdi), %rax
	movq	%rax, -24(%rsp)
	movq	%rsi, -16(%rsp)
	movl	(%rsi), %ecx
	movl	%ecx, -28(%rsp)
	movb	-28(%rsp), %cl
	leaq	1(%rax), %rdx
	movq	%rdx, -24(%rsp)
	movb	%cl, (%rax)
	movq	-16(%rsp), %rax
	movl	-28(%rsp), %ecx
	movl	%ecx, (%rax)
	movq	-8(%rsp), %rax
	movq	-24(%rsp), %rcx
	movq	%rcx, (%rax)
	retq
.Lfunc_end137:
	.size	ichartostr0, .Lfunc_end137-ichartostr0
	.cfi_endproc
                                        # -- End function
	.globl	ichartostr1             # -- Begin function ichartostr1
	.p2align	4, 0x90
	.type	ichartostr1,@function
ichartostr1:                            # @ichartostr1
	.cfi_startproc
# %bb.0:                                # %entry
	movq	%rdi, -8(%rsp)
	movl	hashheader+36(%rip), %eax
	movl	%eax, -12(%rsp)
	movl	%eax, (%rdi)
	retq
.Lfunc_end138:
	.size	ichartostr1, .Lfunc_end138-ichartostr1
	.cfi_endproc
                                        # -- End function
	.globl	ichartostr2             # -- Begin function ichartostr2
	.p2align	4, 0x90
	.type	ichartostr2,@function
ichartostr2:                            # @ichartostr2
	.cfi_startproc
# %bb.0:                                # %entry
	movq	%rdi, -24(%rsp)
	movl	(%rdi), %eax
	movl	%eax, -28(%rsp)
	movq	%rsi, -8(%rsp)
	movl	(%rsi), %eax
	movl	%eax, -12(%rsp)
	movl	%eax, -28(%rsp)
	movl	%eax, (%rsi)
	movq	-24(%rsp), %rax
	movl	-28(%rsp), %ecx
	movl	%ecx, (%rax)
	retq
.Lfunc_end139:
	.size	ichartostr2, .Lfunc_end139-ichartostr2
	.cfi_endproc
                                        # -- End function
	.globl	ichartostr3             # -- Begin function ichartostr3
	.p2align	4, 0x90
	.type	ichartostr3,@function
ichartostr3:                            # @ichartostr3
	.cfi_startproc
# %bb.0:                                # %entry
	movq	%rdi, -16(%rsp)
	movq	(%rdi), %rax
	movq	%rax, -24(%rsp)
	movq	%rsi, -8(%rsp)
	movl	(%rsi), %eax
	movl	%eax, -28(%rsp)
	movl	-28(%rsp), %eax
	leaq	(%rax,%rax,4), %rcx
	leaq	hashheader+2022(%rax,%rcx,2), %rcx
	movq	%rcx, -24(%rsp)
	movl	%eax, (%rsi)
	movq	-16(%rsp), %rax
	movq	-24(%rsp), %rcx
	movq	%rcx, (%rax)
	retq
.Lfunc_end140:
	.size	ichartostr3, .Lfunc_end140-ichartostr3
	.cfi_endproc
                                        # -- End function
	.globl	ichartostr4             # -- Begin function ichartostr4
	.p2align	4, 0x90
	.type	ichartostr4,@function
ichartostr4:                            # @ichartostr4
	.cfi_startproc
# %bb.0:                                # %entry
	movq	%rdi, -8(%rsp)
	movq	(%rdi), %rax
	decq	%rax
	movq	%rax, -16(%rsp)
	movq	%rax, (%rdi)
	retq
.Lfunc_end141:
	.size	ichartostr4, .Lfunc_end141-ichartostr4
	.cfi_endproc
                                        # -- End function
	.globl	lowcase0                # -- Begin function lowcase0
	.p2align	4, 0x90
	.type	lowcase0,@function
lowcase0:                               # @lowcase0
	.cfi_startproc
# %bb.0:                                # %entry
	movq	%rdi, -8(%rsp)
	movq	(%rdi), %rax
	movq	%rax, -16(%rsp)
	movzbl	(%rax), %ecx
	movb	hashheader+526(%rcx), %cl
	movb	%cl, (%rax)
	movq	-16(%rsp), %rax
	incq	%rax
	movq	%rax, -16(%rsp)
	movq	-8(%rsp), %rcx
	movq	%rax, (%rcx)
	retq
.Lfunc_end142:
	.size	lowcase0, .Lfunc_end142-lowcase0
	.cfi_endproc
                                        # -- End function
	.globl	strtoichar0             # -- Begin function strtoichar0
	.p2align	4, 0x90
	.type	strtoichar0,@function
strtoichar0:                            # @strtoichar0
	.cfi_startproc
# %bb.0:                                # %entry
	movq	%rdi, -8(%rsp)
	movl	(%rdi), %eax
	movl	%eax, -12(%rsp)
	movl	%eax, (%rdi)
	retq
.Lfunc_end143:
	.size	strtoichar0, .Lfunc_end143-strtoichar0
	.cfi_endproc
                                        # -- End function
	.globl	stringcharlen           # -- Begin function stringcharlen
	.p2align	4, 0x90
	.type	stringcharlen,@function
stringcharlen:                          # @stringcharlen
	.cfi_startproc
# %bb.0:                                # %entry
	pushq	%rbp
	.cfi_def_cfa_offset 16
	.cfi_offset %rbp, -16
	movq	%rsp, %rbp
	.cfi_def_cfa_register %rbp
	pushq	%r15
	pushq	%r14
	pushq	%r13
	pushq	%r12
	pushq	%rbx
	subq	$72, %rsp
	.cfi_offset %rbx, -56
	.cfi_offset %r12, -48
	.cfi_offset %r13, -40
	.cfi_offset %r14, -32
	.cfi_offset %r15, -24
	movl	%esi, %ebx
	movq	%rdi, %r14
	movl	$222222457, -104(%rbp)  # imm = 0xD3ED879
	movl	$555555790, -100(%rbp)  # imm = 0x211D1BCE
	movl	$444444679, -96(%rbp)   # imm = 0x1A7DB007
	movl	$222222457, %edi        # imm = 0xD3ED879
	movl	$555555790, %esi        # imm = 0x211D1BCE
	movl	$444444679, %edx        # imm = 0x1A7DB007
	callq	guardMe
	movq	%r14, -88(%rbp)
	movl	%ebx, -92(%rbp)
	movl	$0, -76(%rbp)
	movl	hashheader+36(%rip), %eax
	addl	$-1, %eax
	movl	%eax, -72(%rbp)
	xorl	%eax, %eax
	testl	%ebx, %ebx
	jne	.LBB144_2
# %bb.1:                                # %cond.false
	movl	defdupchar(%rip), %eax
.LBB144_2:                              # %cond.end
	movl	%eax, -68(%rbp)
	leaq	-64(%rbp), %r15
	leaq	-76(%rbp), %r12
	leaq	-44(%rbp), %rbx
	leaq	-72(%rbp), %r13
	leaq	-56(%rbp), %r14
	jmp	.LBB144_3
	.p2align	4, 0x90
.LBB144_13:                             # %if.then34
                                        #   in Loop: Header=BB144_3 Depth=1
	movq	%r13, %rdi
	movq	%rbx, %rsi
	callq	stringcharlen4
.LBB144_3:                              # %while.cond
                                        # =>This Loop Header: Depth=1
                                        #     Child Loop BB144_5 Depth 2
	movl	-76(%rbp), %eax
	cmpl	-72(%rbp), %eax
	jg	.LBB144_19
# %bb.4:                                # %while.body
                                        #   in Loop: Header=BB144_3 Depth=1
	leaq	-88(%rbp), %rdi
	movq	%r15, %rsi
	movq	%r12, %rdx
	movq	%rbx, %rcx
	movq	%r13, %r8
	movq	%r14, %r9
	callq	stringcharlen0
	jmp	.LBB144_5
	.p2align	4, 0x90
.LBB144_7:                              # %if.end
                                        #   in Loop: Header=BB144_5 Depth=2
	movq	%r14, %rdi
	callq	stringcharlen1
.LBB144_5:                              # %while.cond2
                                        #   Parent Loop BB144_3 Depth=1
                                        # =>  This Inner Loop Header: Depth=2
	movq	-56(%rbp), %rax
	cmpb	$0, (%rax)
	je	.LBB144_8
# %bb.6:                                # %while.body4
                                        #   in Loop: Header=BB144_5 Depth=2
	movq	-64(%rbp), %rax
	leaq	1(%rax), %rcx
	movq	%rcx, -64(%rbp)
	movzbl	(%rax), %eax
	movq	-56(%rbp), %rcx
	movzbl	(%rcx), %ecx
	xorl	%eax, %ecx
	testb	$127, %cl
	je	.LBB144_7
.LBB144_8:                              # %while.end
                                        #   in Loop: Header=BB144_3 Depth=1
	movq	-56(%rbp), %rax
	cmpb	$0, (%rax)
	jne	.LBB144_12
# %bb.9:                                # %if.then12
                                        #   in Loop: Header=BB144_3 Depth=1
	movslq	-44(%rbp), %rax
	movl	hashheader+3524(,%rax,4), %eax
	cmpl	-68(%rbp), %eax
	je	.LBB144_10
# %bb.11:                               # %if.else
                                        #   in Loop: Header=BB144_3 Depth=1
	movq	%r14, %rdi
	callq	stringcharlen3
.LBB144_12:                             # %if.end26
                                        #   in Loop: Header=BB144_3 Depth=1
	movq	-64(%rbp), %rax
	leaq	-1(%rax), %rcx
	movq	%rcx, -64(%rbp)
	movzbl	-1(%rax), %eax
	andl	$127, %eax
	movq	-56(%rbp), %rcx
	movzbl	(%rcx), %ecx
	andl	$127, %ecx
	cmpl	%ecx, %eax
	jl	.LBB144_13
# %bb.14:                               # %if.else36
                                        #   in Loop: Header=BB144_3 Depth=1
	movq	-64(%rbp), %rax
	movzbl	(%rax), %eax
	andl	$127, %eax
	movq	-56(%rbp), %rcx
	movzbl	(%rcx), %ecx
	andl	$127, %ecx
	cmpl	%ecx, %eax
	jle	.LBB144_16
# %bb.15:                               # %if.then43
                                        #   in Loop: Header=BB144_3 Depth=1
	movq	%r12, %rdi
	movq	%rbx, %rsi
	callq	stringcharlen5
	jmp	.LBB144_3
	.p2align	4, 0x90
.LBB144_16:                             # %if.else45
                                        #   in Loop: Header=BB144_3 Depth=1
	movl	-68(%rbp), %eax
	movslq	-44(%rbp), %rcx
	cmpl	hashheader+3524(,%rcx,4), %eax
	jge	.LBB144_18
# %bb.17:                               # %if.then50
                                        #   in Loop: Header=BB144_3 Depth=1
	movq	%r13, %rdi
	movq	%rbx, %rsi
	callq	stringcharlen6
	jmp	.LBB144_3
.LBB144_18:                             # %if.else52
                                        #   in Loop: Header=BB144_3 Depth=1
	movq	%r12, %rdi
	movq	%rbx, %rsi
	callq	stringcharlen7
	jmp	.LBB144_3
.LBB144_19:                             # %while.end57
	leaq	-80(%rbp), %rdi
	callq	stringcharlen8
	jmp	.LBB144_20
.LBB144_10:                             # %if.then17
	leaq	-80(%rbp), %rdi
	leaq	-56(%rbp), %rsi
	leaq	-44(%rbp), %rdx
	callq	stringcharlen2
.LBB144_20:                             # %return
	movl	-80(%rbp), %eax
	addq	$72, %rsp
	popq	%rbx
	popq	%r12
	popq	%r13
	popq	%r14
	popq	%r15
	popq	%rbp
	retq
.Lfunc_end144:
	.size	stringcharlen, .Lfunc_end144-stringcharlen
	.cfi_endproc
                                        # -- End function
	.globl	strtoichar1             # -- Begin function strtoichar1
	.p2align	4, 0x90
	.type	strtoichar1,@function
strtoichar1:                            # @strtoichar1
	.cfi_startproc
# %bb.0:                                # %entry
	movq	%rdi, -8(%rsp)
	movq	(%rdi), %rax
	movl	$128, %ecx
	addl	laststringch(%rip), %ecx
	leaq	1(%rax), %rdx
	movq	%rdx, -16(%rsp)
	movb	%cl, (%rax)
	movq	-8(%rsp), %rax
	movq	-16(%rsp), %rcx
	movq	%rcx, (%rax)
	retq
.Lfunc_end145:
	.size	strtoichar1, .Lfunc_end145-strtoichar1
	.cfi_endproc
                                        # -- End function
	.globl	strtoichar2             # -- Begin function strtoichar2
	.p2align	4, 0x90
	.type	strtoichar2,@function
strtoichar2:                            # @strtoichar2
	.cfi_startproc
# %bb.0:                                # %entry
	movq	%rdi, -8(%rsp)
	movq	(%rdi), %rax
	movq	%rax, -32(%rsp)
	movq	%rsi, -16(%rsp)
	movq	(%rsi), %rcx
	movq	%rcx, -24(%rsp)
	movzbl	(%rcx), %ecx
	andl	$127, %ecx
	leaq	1(%rax), %rdx
	movq	%rdx, -32(%rsp)
	movb	%cl, (%rax)
	movq	-16(%rsp), %rax
	movq	-24(%rsp), %rcx
	movq	%rcx, (%rax)
	movq	-8(%rsp), %rax
	movq	-32(%rsp), %rcx
	movq	%rcx, (%rax)
	retq
.Lfunc_end146:
	.size	strtoichar2, .Lfunc_end146-strtoichar2
	.cfi_endproc
                                        # -- End function
	.globl	strtoichar3             # -- Begin function strtoichar3
	.p2align	4, 0x90
	.type	strtoichar3,@function
strtoichar3:                            # @strtoichar3
	.cfi_startproc
# %bb.0:                                # %entry
	movq	%rdi, -16(%rsp)
	movq	(%rdi), %rax
	movq	%rax, -24(%rsp)
	movq	%rsi, -8(%rsp)
	movl	(%rsi), %ecx
	movl	%ecx, -28(%rsp)
	movslq	-28(%rsp), %rcx
	addq	%rcx, %rax
	movq	%rax, -24(%rsp)
	movl	%ecx, (%rsi)
	movq	-16(%rsp), %rax
	movq	-24(%rsp), %rcx
	movq	%rcx, (%rax)
	retq
.Lfunc_end147:
	.size	strtoichar3, .Lfunc_end147-strtoichar3
	.cfi_endproc
                                        # -- End function
	.globl	stringcharlen0          # -- Begin function stringcharlen0
	.p2align	4, 0x90
	.type	stringcharlen0,@function
stringcharlen0:                         # @stringcharlen0
	.cfi_startproc
# %bb.0:                                # %entry
	movq	%rdi, -24(%rsp)
	movq	(%rdi), %rax
	movq	%rax, -64(%rsp)
	movq	%rsi, -32(%rsp)
	movq	(%rsi), %rax
	movq	%rax, -72(%rsp)
	movq	%rdx, -40(%rsp)
	movl	(%rdx), %eax
	movl	%eax, -76(%rsp)
	movq	%rcx, -48(%rsp)
	movl	(%rcx), %ecx
	movl	%ecx, -84(%rsp)
	movq	%r8, -56(%rsp)
	movl	(%r8), %ecx
	movl	%ecx, -80(%rsp)
	movq	%r9, -8(%rsp)
	addl	%ecx, %eax
	sarl	%eax
	movl	%eax, -84(%rsp)
	movslq	-84(%rsp), %rax
	leaq	(%rax,%rax,4), %rcx
	leaq	hashheader+2022(%rax,%rcx,2), %rax
	movq	%rax, -16(%rsp)
	movq	-64(%rsp), %rcx
	movq	%rcx, -72(%rsp)
	movq	%rax, (%r9)
	movq	-56(%rsp), %rax
	movl	-80(%rsp), %ecx
	movl	%ecx, (%rax)
	movq	-24(%rsp), %rax
	movq	-64(%rsp), %rcx
	movq	%rcx, (%rax)
	movq	-32(%rsp), %rax
	movq	-72(%rsp), %rcx
	movq	%rcx, (%rax)
	movq	-40(%rsp), %rax
	movl	-76(%rsp), %ecx
	movl	%ecx, (%rax)
	movq	-48(%rsp), %rax
	movl	-84(%rsp), %ecx
	movl	%ecx, (%rax)
	retq
.Lfunc_end148:
	.size	stringcharlen0, .Lfunc_end148-stringcharlen0
	.cfi_endproc
                                        # -- End function
	.globl	stringcharlen1          # -- Begin function stringcharlen1
	.p2align	4, 0x90
	.type	stringcharlen1,@function
stringcharlen1:                         # @stringcharlen1
	.cfi_startproc
# %bb.0:                                # %entry
	movq	%rdi, -8(%rsp)
	movq	(%rdi), %rax
	incq	%rax
	movq	%rax, -16(%rsp)
	movq	%rax, (%rdi)
	retq
.Lfunc_end149:
	.size	stringcharlen1, .Lfunc_end149-stringcharlen1
	.cfi_endproc
                                        # -- End function
	.globl	stringcharlen2          # -- Begin function stringcharlen2
	.p2align	4, 0x90
	.type	stringcharlen2,@function
stringcharlen2:                         # @stringcharlen2
	.cfi_startproc
# %bb.0:                                # %entry
	movq	%rdi, -16(%rsp)
	movl	(%rdi), %eax
	movl	%eax, -40(%rsp)
	movq	%rsi, -24(%rsp)
	movq	(%rsi), %rax
	movq	%rax, -32(%rsp)
	movq	%rdx, -8(%rsp)
	movl	(%rdx), %eax
	movl	%eax, -36(%rsp)
	movslq	-36(%rsp), %rax
	movl	hashheader+3124(,%rax,4), %ecx
	movl	%ecx, laststringch(%rip)
	movl	-32(%rsp), %ecx
	leal	(%rax,%rax,4), %esi
	leal	(%rax,%rsi,2), %esi
	movl	$hashheader+2022, %edi
	addl	%esi, %edi
	subl	%edi, %ecx
	movl	%ecx, -40(%rsp)
	movl	%eax, (%rdx)
	movq	-24(%rsp), %rax
	movq	-32(%rsp), %rcx
	movq	%rcx, (%rax)
	movq	-16(%rsp), %rax
	movl	-40(%rsp), %ecx
	movl	%ecx, (%rax)
	retq
.Lfunc_end150:
	.size	stringcharlen2, .Lfunc_end150-stringcharlen2
	.cfi_endproc
                                        # -- End function
	.globl	stringcharlen3          # -- Begin function stringcharlen3
	.p2align	4, 0x90
	.type	stringcharlen3,@function
stringcharlen3:                         # @stringcharlen3
	.cfi_startproc
# %bb.0:                                # %entry
	movq	%rdi, -8(%rsp)
	movq	(%rdi), %rax
	decq	%rax
	movq	%rax, -16(%rsp)
	movq	%rax, (%rdi)
	retq
.Lfunc_end151:
	.size	stringcharlen3, .Lfunc_end151-stringcharlen3
	.cfi_endproc
                                        # -- End function
	.globl	stringcharlen4          # -- Begin function stringcharlen4
	.p2align	4, 0x90
	.type	stringcharlen4,@function
stringcharlen4:                         # @stringcharlen4
	.cfi_startproc
# %bb.0:                                # %entry
	movq	%rdi, -24(%rsp)
	movl	(%rdi), %eax
	movl	%eax, -28(%rsp)
	movq	%rsi, -8(%rsp)
	movl	(%rsi), %eax
	movl	%eax, -12(%rsp)
	leal	-1(%rax), %ecx
	movl	%ecx, -28(%rsp)
	movl	%eax, (%rsi)
	movq	-24(%rsp), %rax
	movl	-28(%rsp), %ecx
	movl	%ecx, (%rax)
	retq
.Lfunc_end152:
	.size	stringcharlen4, .Lfunc_end152-stringcharlen4
	.cfi_endproc
                                        # -- End function
	.globl	stringcharlen5          # -- Begin function stringcharlen5
	.p2align	4, 0x90
	.type	stringcharlen5,@function
stringcharlen5:                         # @stringcharlen5
	.cfi_startproc
# %bb.0:                                # %entry
	movq	%rdi, -24(%rsp)
	movl	(%rdi), %eax
	movl	%eax, -28(%rsp)
	movq	%rsi, -8(%rsp)
	movl	(%rsi), %eax
	movl	%eax, -12(%rsp)
	leal	1(%rax), %ecx
	movl	%ecx, -28(%rsp)
	movl	%eax, (%rsi)
	movq	-24(%rsp), %rax
	movl	-28(%rsp), %ecx
	movl	%ecx, (%rax)
	retq
.Lfunc_end153:
	.size	stringcharlen5, .Lfunc_end153-stringcharlen5
	.cfi_endproc
                                        # -- End function
	.globl	stringcharlen6          # -- Begin function stringcharlen6
	.p2align	4, 0x90
	.type	stringcharlen6,@function
stringcharlen6:                         # @stringcharlen6
	.cfi_startproc
# %bb.0:                                # %entry
	movq	%rdi, -24(%rsp)
	movl	(%rdi), %eax
	movl	%eax, -28(%rsp)
	movq	%rsi, -8(%rsp)
	movl	(%rsi), %eax
	movl	%eax, -12(%rsp)
	leal	-1(%rax), %ecx
	movl	%ecx, -28(%rsp)
	movl	%eax, (%rsi)
	movq	-24(%rsp), %rax
	movl	-28(%rsp), %ecx
	movl	%ecx, (%rax)
	retq
.Lfunc_end154:
	.size	stringcharlen6, .Lfunc_end154-stringcharlen6
	.cfi_endproc
                                        # -- End function
	.globl	stringcharlen7          # -- Begin function stringcharlen7
	.p2align	4, 0x90
	.type	stringcharlen7,@function
stringcharlen7:                         # @stringcharlen7
	.cfi_startproc
# %bb.0:                                # %entry
	movq	%rdi, -24(%rsp)
	movl	(%rdi), %eax
	movl	%eax, -28(%rsp)
	movq	%rsi, -8(%rsp)
	movl	(%rsi), %eax
	movl	%eax, -12(%rsp)
	leal	1(%rax), %ecx
	movl	%ecx, -28(%rsp)
	movl	%eax, (%rsi)
	movq	-24(%rsp), %rax
	movl	-28(%rsp), %ecx
	movl	%ecx, (%rax)
	retq
.Lfunc_end155:
	.size	stringcharlen7, .Lfunc_end155-stringcharlen7
	.cfi_endproc
                                        # -- End function
	.globl	stringcharlen8          # -- Begin function stringcharlen8
	.p2align	4, 0x90
	.type	stringcharlen8,@function
stringcharlen8:                         # @stringcharlen8
	.cfi_startproc
# %bb.0:                                # %entry
	movq	%rdi, -8(%rsp)
	movl	$-1, laststringch(%rip)
	movl	$0, -12(%rsp)
	movl	$0, (%rdi)
	retq
.Lfunc_end156:
	.size	stringcharlen8, .Lfunc_end156-stringcharlen8
	.cfi_endproc
                                        # -- End function
	.p2align	4, 0x90         # -- Begin function pdictcmp
	.type	pdictcmp,@function
pdictcmp:                               # @pdictcmp
	.cfi_startproc
# %bb.0:                                # %entry
	pushq	%rbp
	.cfi_def_cfa_offset 16
	.cfi_offset %rbp, -16
	movq	%rsp, %rbp
	.cfi_def_cfa_register %rbp
	pushq	%r14
	pushq	%rbx
	subq	$80, %rsp
	.cfi_offset %rbx, -32
	.cfi_offset %r14, -24
	movq	%rsi, %r14
	movq	%rdi, %rbx
	movl	$222222513, -76(%rbp)   # imm = 0xD3ED8B1
	movl	$555555846, -72(%rbp)   # imm = 0x211D1C06
	movl	$444444735, -68(%rbp)   # imm = 0x1A7DB03F
	movl	$222222513, %edi        # imm = 0xD3ED8B1
	movl	$555555846, %esi        # imm = 0x211D1C06
	movl	$444444735, %edx        # imm = 0x1A7DB03F
	callq	guardMe
	movl	$222222512, -64(%rbp)   # imm = 0xD3ED8B0
	movl	$555555845, -60(%rbp)   # imm = 0x211D1C05
	movl	$444444734, -56(%rbp)   # imm = 0x1A7DB03E
	movl	$222222512, %edi        # imm = 0xD3ED8B0
	movl	$555555845, %esi        # imm = 0x211D1C05
	movl	$444444734, %edx        # imm = 0x1A7DB03E
	callq	guardMe
	movl	$222222511, -52(%rbp)   # imm = 0xD3ED8AF
	movl	$555555844, -48(%rbp)   # imm = 0x211D1C04
	movl	$444444733, -44(%rbp)   # imm = 0x1A7DB03D
	movl	$222222511, %edi        # imm = 0xD3ED8AF
	movl	$555555844, %esi        # imm = 0x211D1C04
	movl	$444444733, %edx        # imm = 0x1A7DB03D
	callq	guardMe
	movl	$222222510, -40(%rbp)   # imm = 0xD3ED8AE
	movl	$555555843, -36(%rbp)   # imm = 0x211D1C03
	movl	$444444732, -32(%rbp)   # imm = 0x1A7DB03C
	movl	$222222510, %edi        # imm = 0xD3ED8AE
	movl	$555555843, %esi        # imm = 0x211D1C03
	movl	$444444732, %edx        # imm = 0x1A7DB03C
	callq	guardMe
	movl	$222222509, -28(%rbp)   # imm = 0xD3ED8AD
	movl	$555555842, -24(%rbp)   # imm = 0x211D1C02
	movl	$444444731, -20(%rbp)   # imm = 0x1A7DB03B
	movl	$222222509, %edi        # imm = 0xD3ED8AD
	movl	$555555842, %esi        # imm = 0x211D1C02
	movl	$444444731, %edx        # imm = 0x1A7DB03B
	callq	guardMe
	movq	%rbx, -96(%rbp)
	movq	%r14, -88(%rbp)
	movq	(%rbx), %rax
	movq	8(%rax), %rdi
	movq	(%r14), %rax
	movq	8(%rax), %rsi
	movl	$1, %edx
	callq	casecmp
	addq	$80, %rsp
	popq	%rbx
	popq	%r14
	popq	%rbp
	retq
.Lfunc_end157:
	.size	pdictcmp, .Lfunc_end157-pdictcmp
	.cfi_endproc
                                        # -- End function
	.globl	casecmp                 # -- Begin function casecmp
	.p2align	4, 0x90
	.type	casecmp,@function
casecmp:                                # @casecmp
	.cfi_startproc
# %bb.0:                                # %entry
	pushq	%rbp
	.cfi_def_cfa_offset 16
	.cfi_offset %rbp, -16
	movq	%rsp, %rbp
	.cfi_def_cfa_register %rbp
	pushq	%r15
	pushq	%r14
	pushq	%r12
	pushq	%rbx
	subq	$432, %rsp              # imm = 0x1B0
	.cfi_offset %rbx, -48
	.cfi_offset %r12, -40
	.cfi_offset %r14, -32
	.cfi_offset %r15, -24
	movl	%edx, %r15d
	movq	%rsi, %r14
	movq	%rdi, %rbx
	movl	$222222339, -76(%rbp)   # imm = 0xD3ED803
	movl	$555555672, -72(%rbp)   # imm = 0x211D1B58
	movl	$444444561, -68(%rbp)   # imm = 0x1A7DAF91
	movl	$222222339, %edi        # imm = 0xD3ED803
	movl	$555555672, %esi        # imm = 0x211D1B58
	movl	$444444561, %edx        # imm = 0x1A7DAF91
	callq	guardMe
	movq	%rbx, -88(%rbp)
	movq	%r14, -64(%rbp)
	movl	%r15d, -56(%rbp)
	leaq	-464(%rbp), %r14
	movl	$184, %edx
	movq	%r14, %rdi
	movq	%rbx, %rsi
	movl	%r15d, %ecx
	callq	strtoichar
	movq	-64(%rbp), %rsi
	movl	-56(%rbp), %ecx
	leaq	-272(%rbp), %r15
	movl	$184, %edx
	movq	%r15, %rdi
	callq	strtoichar
	movq	%r14, -48(%rbp)
	movq	%r15, -40(%rbp)
	leaq	-40(%rbp), %r12
	leaq	-48(%rbp), %rbx
	jmp	.LBB158_1
	.p2align	4, 0x90
.LBB158_12:                             # %for.inc
                                        #   in Loop: Header=BB158_1 Depth=1
	movq	%r12, %rdi
	movq	%rbx, %rsi
	callq	casecmp3
.LBB158_1:                              # %for.cond
                                        # =>This Inner Loop Header: Depth=1
	movq	-48(%rbp), %rax
	cmpb	$0, (%rax)
	je	.LBB158_13
# %bb.2:                                # %for.body
                                        #   in Loop: Header=BB158_1 Depth=1
	movq	-48(%rbp), %rax
	movzbl	(%rax), %eax
	movq	-40(%rbp), %rcx
	movzbl	(%rcx), %ecx
	cmpl	%ecx, %eax
	je	.LBB158_12
# %bb.3:                                # %if.then
                                        #   in Loop: Header=BB158_1 Depth=1
	movq	-40(%rbp), %rax
	cmpb	$0, (%rax)
	je	.LBB158_4
# %bb.5:                                # %if.else
                                        #   in Loop: Header=BB158_1 Depth=1
	movq	-48(%rbp), %rax
	movzbl	(%rax), %eax
	cmpb	$0, hashheader+1438(%rax)
	je	.LBB158_9
# %bb.6:                                # %if.then17
                                        #   in Loop: Header=BB158_1 Depth=1
	movq	-40(%rbp), %rax
	movzbl	(%rax), %eax
	cmpb	$0, hashheader+1438(%rax)
	jne	.LBB158_8
# %bb.7:                                # %lor.lhs.false
                                        #   in Loop: Header=BB158_1 Depth=1
	movq	-48(%rbp), %rax
	movzbl	(%rax), %eax
	movzbl	hashheader+754(%rax), %eax
	movq	-40(%rbp), %rcx
	movzbl	(%rcx), %ecx
	cmpl	%ecx, %eax
	je	.LBB158_12
	jmp	.LBB158_8
.LBB158_9:                              # %if.else35
                                        #   in Loop: Header=BB158_1 Depth=1
	movq	-40(%rbp), %rax
	movzbl	(%rax), %eax
	cmpb	$0, hashheader+1210(%rax)
	jne	.LBB158_11
# %bb.10:                               # %lor.lhs.false40
                                        #   in Loop: Header=BB158_1 Depth=1
	movq	-48(%rbp), %rax
	movzbl	(%rax), %eax
	movzbl	hashheader+526(%rax), %eax
	movq	-40(%rbp), %rcx
	movzbl	(%rcx), %ecx
	cmpl	%ecx, %eax
	je	.LBB158_12
.LBB158_11:                             # %if.then47
	leaq	-52(%rbp), %rdi
	leaq	-40(%rbp), %rsi
	leaq	-48(%rbp), %rdx
	callq	casecmp2
	jmp	.LBB158_21
.LBB158_13:                             # %for.end
	movq	-40(%rbp), %rax
	cmpb	$0, (%rax)
	je	.LBB158_15
# %bb.14:                               # %if.then63
	leaq	-52(%rbp), %rdi
	leaq	-40(%rbp), %rsi
	callq	casecmp4
	jmp	.LBB158_21
.LBB158_8:                              # %if.then28
	leaq	-52(%rbp), %rdi
	leaq	-40(%rbp), %rsi
	leaq	-48(%rbp), %rdx
	callq	casecmp1
	jmp	.LBB158_21
.LBB158_4:                              # %if.then13
	leaq	-52(%rbp), %rdi
	leaq	-48(%rbp), %rsi
	callq	casecmp0
	jmp	.LBB158_21
.LBB158_15:                             # %if.end68
	movq	%r14, -48(%rbp)
	movq	%r15, -40(%rbp)
	leaq	-40(%rbp), %r14
	leaq	-48(%rbp), %rbx
	jmp	.LBB158_16
	.p2align	4, 0x90
.LBB158_19:                             # %for.inc87
                                        #   in Loop: Header=BB158_16 Depth=1
	movq	%r14, %rdi
	movq	%rbx, %rsi
	callq	casecmp6
.LBB158_16:                             # %for.cond71
                                        # =>This Inner Loop Header: Depth=1
	movq	-48(%rbp), %rax
	cmpb	$0, (%rax)
	je	.LBB158_20
# %bb.17:                               # %for.body73
                                        #   in Loop: Header=BB158_16 Depth=1
	movq	-48(%rbp), %rax
	movzbl	(%rax), %eax
	movq	-40(%rbp), %rcx
	movzbl	(%rcx), %ecx
	cmpl	%ecx, %eax
	je	.LBB158_19
# %bb.18:                               # %if.then78
	leaq	-52(%rbp), %rdi
	leaq	-40(%rbp), %rsi
	leaq	-48(%rbp), %rdx
	callq	casecmp5
	jmp	.LBB158_21
.LBB158_20:                             # %for.end90
	movl	$0, -52(%rbp)
.LBB158_21:                             # %return
	movl	-52(%rbp), %eax
	addq	$432, %rsp              # imm = 0x1B0
	popq	%rbx
	popq	%r12
	popq	%r14
	popq	%r15
	popq	%rbp
	retq
.Lfunc_end158:
	.size	casecmp, .Lfunc_end158-casecmp
	.cfi_endproc
                                        # -- End function
	.globl	casecmp0                # -- Begin function casecmp0
	.p2align	4, 0x90
	.type	casecmp0,@function
casecmp0:                               # @casecmp0
	.cfi_startproc
# %bb.0:                                # %entry
	movq	%rdi, -24(%rsp)
	movl	(%rdi), %eax
	movl	%eax, -28(%rsp)
	movq	%rsi, -8(%rsp)
	movq	(%rsi), %rax
	movq	%rax, -16(%rsp)
	movzbl	(%rax), %ecx
	movzwl	hashheader+70(%rcx,%rcx), %ecx
	movl	%ecx, -28(%rsp)
	movq	%rax, (%rsi)
	movq	-24(%rsp), %rax
	movl	-28(%rsp), %ecx
	movl	%ecx, (%rax)
	retq
.Lfunc_end159:
	.size	casecmp0, .Lfunc_end159-casecmp0
	.cfi_endproc
                                        # -- End function
	.globl	casecmp1                # -- Begin function casecmp1
	.p2align	4, 0x90
	.type	casecmp1,@function
casecmp1:                               # @casecmp1
	.cfi_startproc
# %bb.0:                                # %entry
	movq	%rdi, -24(%rsp)
	movl	(%rdi), %eax
	movl	%eax, -44(%rsp)
	movq	%rsi, -32(%rsp)
	movq	(%rsi), %rax
	movq	%rax, -40(%rsp)
	movq	%rdx, -8(%rsp)
	movq	(%rdx), %rcx
	movq	%rcx, -16(%rsp)
	movzbl	(%rcx), %esi
	movzwl	hashheader+70(%rsi,%rsi), %esi
	movzbl	(%rax), %eax
	movzwl	hashheader+70(%rax,%rax), %eax
	subl	%eax, %esi
	movl	%esi, -44(%rsp)
	movq	%rcx, (%rdx)
	movq	-32(%rsp), %rax
	movq	-40(%rsp), %rcx
	movq	%rcx, (%rax)
	movq	-24(%rsp), %rax
	movl	-44(%rsp), %ecx
	movl	%ecx, (%rax)
	retq
.Lfunc_end160:
	.size	casecmp1, .Lfunc_end160-casecmp1
	.cfi_endproc
                                        # -- End function
	.globl	casecmp2                # -- Begin function casecmp2
	.p2align	4, 0x90
	.type	casecmp2,@function
casecmp2:                               # @casecmp2
	.cfi_startproc
# %bb.0:                                # %entry
	movq	%rdi, -24(%rsp)
	movl	(%rdi), %eax
	movl	%eax, -44(%rsp)
	movq	%rsi, -8(%rsp)
	movq	(%rsi), %rax
	movq	%rax, -16(%rsp)
	movq	%rdx, -32(%rsp)
	movq	(%rdx), %rcx
	movq	%rcx, -40(%rsp)
	movzbl	(%rcx), %ecx
	movzwl	hashheader+70(%rcx,%rcx), %ecx
	movzbl	(%rax), %edx
	movzwl	hashheader+70(%rdx,%rdx), %edx
	subl	%edx, %ecx
	movl	%ecx, -44(%rsp)
	movq	%rax, (%rsi)
	movq	-32(%rsp), %rax
	movq	-40(%rsp), %rcx
	movq	%rcx, (%rax)
	movq	-24(%rsp), %rax
	movl	-44(%rsp), %ecx
	movl	%ecx, (%rax)
	retq
.Lfunc_end161:
	.size	casecmp2, .Lfunc_end161-casecmp2
	.cfi_endproc
                                        # -- End function
	.globl	casecmp3                # -- Begin function casecmp3
	.p2align	4, 0x90
	.type	casecmp3,@function
casecmp3:                               # @casecmp3
	.cfi_startproc
# %bb.0:                                # %entry
	movq	%rdi, -24(%rsp)
	movq	(%rdi), %rax
	movq	%rax, -32(%rsp)
	movq	%rsi, -8(%rsp)
	movq	(%rsi), %rcx
	incq	%rcx
	movq	%rcx, -16(%rsp)
	incq	%rax
	movq	%rax, -32(%rsp)
	movq	%rcx, (%rsi)
	movq	-24(%rsp), %rax
	movq	-32(%rsp), %rcx
	movq	%rcx, (%rax)
	retq
.Lfunc_end162:
	.size	casecmp3, .Lfunc_end162-casecmp3
	.cfi_endproc
                                        # -- End function
	.globl	casecmp4                # -- Begin function casecmp4
	.p2align	4, 0x90
	.type	casecmp4,@function
casecmp4:                               # @casecmp4
	.cfi_startproc
# %bb.0:                                # %entry
	movq	%rdi, -24(%rsp)
	movl	(%rdi), %eax
	movl	%eax, -28(%rsp)
	movq	%rsi, -8(%rsp)
	movq	(%rsi), %rax
	movq	%rax, -16(%rsp)
	movzbl	(%rax), %ecx
	movzwl	hashheader+70(%rcx,%rcx), %ecx
	negl	%ecx
	movl	%ecx, -28(%rsp)
	movq	%rax, (%rsi)
	movq	-24(%rsp), %rax
	movl	-28(%rsp), %ecx
	movl	%ecx, (%rax)
	retq
.Lfunc_end163:
	.size	casecmp4, .Lfunc_end163-casecmp4
	.cfi_endproc
                                        # -- End function
	.globl	casecmp5                # -- Begin function casecmp5
	.p2align	4, 0x90
	.type	casecmp5,@function
casecmp5:                               # @casecmp5
	.cfi_startproc
# %bb.0:                                # %entry
	movq	%rdi, -24(%rsp)
	movl	(%rdi), %eax
	movl	%eax, -44(%rsp)
	movq	%rsi, -32(%rsp)
	movq	(%rsi), %rax
	movq	%rax, -40(%rsp)
	movq	%rdx, -8(%rsp)
	movq	(%rdx), %rcx
	movq	%rcx, -16(%rsp)
	movzbl	(%rcx), %esi
	movzwl	hashheader+70(%rsi,%rsi), %esi
	movzbl	(%rax), %eax
	movzwl	hashheader+70(%rax,%rax), %eax
	subl	%eax, %esi
	movl	%esi, -44(%rsp)
	movq	%rcx, (%rdx)
	movq	-32(%rsp), %rax
	movq	-40(%rsp), %rcx
	movq	%rcx, (%rax)
	movq	-24(%rsp), %rax
	movl	-44(%rsp), %ecx
	movl	%ecx, (%rax)
	retq
.Lfunc_end164:
	.size	casecmp5, .Lfunc_end164-casecmp5
	.cfi_endproc
                                        # -- End function
	.globl	casecmp6                # -- Begin function casecmp6
	.p2align	4, 0x90
	.type	casecmp6,@function
casecmp6:                               # @casecmp6
	.cfi_startproc
# %bb.0:                                # %entry
	movq	%rdi, -24(%rsp)
	movq	(%rdi), %rax
	movq	%rax, -32(%rsp)
	movq	%rsi, -8(%rsp)
	movq	(%rsi), %rcx
	incq	%rcx
	movq	%rcx, -16(%rsp)
	incq	%rax
	movq	%rax, -32(%rsp)
	movq	%rcx, (%rsi)
	movq	-24(%rsp), %rax
	movq	-32(%rsp), %rcx
	movq	%rcx, (%rax)
	retq
.Lfunc_end165:
	.size	casecmp6, .Lfunc_end165-casecmp6
	.cfi_endproc
                                        # -- End function
	.globl	checkfile0              # -- Begin function checkfile0
	.p2align	4, 0x90
	.type	checkfile0,@function
checkfile0:                             # @checkfile0
	.cfi_startproc
# %bb.0:                                # %entry
	movq	%rdi, -8(%rsp)
	movl	(%rdi), %eax
	movl	%eax, -12(%rsp)
	movslq	-12(%rsp), %rax
	movq	%rax, %rcx
	shlq	$13, %rcx
	movb	$0, contextbufs(%rcx)
	movl	%eax, (%rdi)
	retq
.Lfunc_end166:
	.size	checkfile0, .Lfunc_end166-checkfile0
	.cfi_endproc
                                        # -- End function
	.globl	checkfile1              # -- Begin function checkfile1
	.p2align	4, 0x90
	.type	checkfile1,@function
checkfile1:                             # @checkfile1
	.cfi_startproc
# %bb.0:                                # %entry
	movq	%rdi, -8(%rsp)
	movl	(%rdi), %eax
	incl	%eax
	movl	%eax, -12(%rsp)
	movl	%eax, (%rdi)
	retq
.Lfunc_end167:
	.size	checkfile1, .Lfunc_end167-checkfile1
	.cfi_endproc
                                        # -- End function
	.globl	checkfile2              # -- Begin function checkfile2
	.p2align	4, 0x90
	.type	checkfile2,@function
checkfile2:                             # @checkfile2
	.cfi_startproc
# %bb.0:                                # %entry
	movq	%rdi, -8(%rsp)
	movl	contextsize(%rip), %eax
	movl	%eax, -12(%rsp)
	movl	%eax, (%rdi)
	retq
.Lfunc_end168:
	.size	checkfile2, .Lfunc_end168-checkfile2
	.cfi_endproc
                                        # -- End function
	.globl	checkfile3              # -- Begin function checkfile3
	.p2align	4, 0x90
	.type	checkfile3,@function
checkfile3:                             # @checkfile3
	.cfi_startproc
# %bb.0:                                # %entry
	subq	$24, %rsp
	.cfi_def_cfa_offset 32
	movq	%rdi, 16(%rsp)
	movl	(%rdi), %eax
	movl	%eax, 12(%rsp)
	movslq	12(%rsp), %rax
	shlq	$13, %rax
	leaq	contextbufs(%rax), %rdi
	leaq	contextbufs-8192(%rax), %rsi
	callq	strcpy
	movq	16(%rsp), %rax
	movl	12(%rsp), %ecx
	movl	%ecx, (%rax)
	addq	$24, %rsp
	retq
.Lfunc_end169:
	.size	checkfile3, .Lfunc_end169-checkfile3
	.cfi_endproc
                                        # -- End function
	.globl	checkfile4              # -- Begin function checkfile4
	.p2align	4, 0x90
	.type	checkfile4,@function
checkfile4:                             # @checkfile4
	.cfi_startproc
# %bb.0:                                # %entry
	pushq	%rax
	.cfi_def_cfa_offset 16
	movq	outfile(%rip), %rsi
	movl	$contextbufs, %edi
	callq	fputs
	popq	%rax
	retq
.Lfunc_end170:
	.size	checkfile4, .Lfunc_end170-checkfile4
	.cfi_endproc
                                        # -- End function
	.globl	checkfile5              # -- Begin function checkfile5
	.p2align	4, 0x90
	.type	checkfile5,@function
checkfile5:                             # @checkfile5
	.cfi_startproc
# %bb.0:                                # %entry
	movq	%rdi, -16(%rsp)
	movl	(%rdi), %eax
	movl	%eax, -24(%rsp)
	movq	%rsi, -8(%rsp)
	movl	(%rsi), %eax
	movl	%eax, -20(%rsp)
	movslq	-20(%rsp), %rax
	movzbl	contextbufs-1(%rax), %ecx
	movl	%ecx, -24(%rsp)
	movl	%eax, (%rsi)
	movq	-16(%rsp), %rax
	movl	-24(%rsp), %ecx
	movl	%ecx, (%rax)
	retq
.Lfunc_end171:
	.size	checkfile5, .Lfunc_end171-checkfile5
	.cfi_endproc
                                        # -- End function
	.globl	checkfile6              # -- Begin function checkfile6
	.p2align	4, 0x90
	.type	checkfile6,@function
checkfile6:                             # @checkfile6
	.cfi_startproc
# %bb.0:                                # %entry
	movq	%rdi, -16(%rsp)
	movl	(%rdi), %eax
	movl	%eax, -28(%rsp)
	movq	%rsi, -24(%rsp)
	movl	(%rsi), %eax
	movl	%eax, -4(%rsp)
	movslq	-28(%rsp), %rcx
	leal	1(%rcx), %edx
	movl	%edx, -28(%rsp)
	movb	%al, contextbufs(%rcx)
	movslq	-28(%rsp), %rcx
	movb	$0, contextbufs(%rcx)
	movq	-24(%rsp), %rcx
	movl	%eax, (%rcx)
	movq	-16(%rsp), %rax
	movl	-28(%rsp), %ecx
	movl	%ecx, (%rax)
	retq
.Lfunc_end172:
	.size	checkfile6, .Lfunc_end172-checkfile6
	.cfi_endproc
                                        # -- End function
	.globl	checkfile7              # -- Begin function checkfile7
	.p2align	4, 0x90
	.type	checkfile7,@function
checkfile7:                             # @checkfile7
	.cfi_startproc
# %bb.0:                                # %entry
	pushq	%rax
	.cfi_def_cfa_offset 16
	movq	outfile(%rip), %rdi
	callq	checkline
	popq	%rax
	retq
.Lfunc_end173:
	.size	checkfile7, .Lfunc_end173-checkfile7
	.cfi_endproc
                                        # -- End function
	.globl	checkline               # -- Begin function checkline
	.p2align	4, 0x90
	.type	checkline,@function
checkline:                              # @checkline
	.cfi_startproc
# %bb.0:                                # %entry
	pushq	%rbp
	.cfi_def_cfa_offset 16
	.cfi_offset %rbp, -16
	movq	%rsp, %rbp
	.cfi_def_cfa_register %rbp
	pushq	%r15
	pushq	%r14
	pushq	%r13
	pushq	%r12
	pushq	%rbx
	subq	$88, %rsp
	.cfi_offset %rbx, -56
	.cfi_offset %r12, -48
	.cfi_offset %r13, -40
	.cfi_offset %r14, -32
	.cfi_offset %r15, -24
	movq	%rdi, %rbx
	movl	$222222368, -128(%rbp)  # imm = 0xD3ED820
	movl	$555555701, -124(%rbp)  # imm = 0x211D1B75
	movl	$444444590, -120(%rbp)  # imm = 0x1A7DAFAE
	movl	$222222368, %edi        # imm = 0xD3ED820
	movl	$555555701, %esi        # imm = 0x211D1B75
	movl	$444444590, %edx        # imm = 0x1A7DAFAE
	callq	guardMe
	movl	$222222367, -116(%rbp)  # imm = 0xD3ED81F
	movl	$555555700, -112(%rbp)  # imm = 0x211D1B74
	movl	$444444589, -108(%rbp)  # imm = 0x1A7DAFAD
	movl	$222222367, %edi        # imm = 0xD3ED81F
	movl	$555555700, %esi        # imm = 0x211D1B74
	movl	$444444589, %edx        # imm = 0x1A7DAFAD
	callq	guardMe
	movl	$222222366, -104(%rbp)  # imm = 0xD3ED81E
	movl	$555555699, -100(%rbp)  # imm = 0x211D1B73
	movl	$444444588, -96(%rbp)   # imm = 0x1A7DAFAC
	movl	$222222366, %edi        # imm = 0xD3ED81E
	movl	$555555699, %esi        # imm = 0x211D1B73
	movl	$444444588, %edx        # imm = 0x1A7DAFAC
	callq	guardMe
	movl	$222222365, -92(%rbp)   # imm = 0xD3ED81D
	movl	$555555698, -88(%rbp)   # imm = 0x211D1B72
	movl	$444444587, -84(%rbp)   # imm = 0x1A7DAFAB
	movl	$222222365, %edi        # imm = 0xD3ED81D
	movl	$555555698, %esi        # imm = 0x211D1B72
	movl	$444444587, %edx        # imm = 0x1A7DAFAB
	callq	guardMe
	movq	%rbx, -56(%rbp)
	movq	$contextbufs, currentchar(%rip)
	movl	$contextbufs, %edi
	callq	strlen
	addl	$-1, %eax
	movl	%eax, -64(%rbp)
	movslq	-64(%rbp), %rax
	movsbl	contextbufs(%rax), %eax
	xorl	%ecx, %ecx
	cmpl	$10, %eax
	sete	%cl
	movl	%ecx, -48(%rbp)
	jne	.LBB174_2
# %bb.1:                                # %if.then
	leaq	-64(%rbp), %rdi
	callq	checkline0
.LBB174_2:                              # %if.end
	cmpl	$0, tflag(%rip)
	jne	.LBB174_38
# %bb.3:                                # %if.then6
	movq	currentchar(%rip), %rax
	movsbl	(%rax), %eax
	movsbl	hashheader+50(%rip), %ecx
	cmpl	%ecx, %eax
	jne	.LBB174_15
# %bb.4:                                # %land.lhs.true
	movq	currentchar(%rip), %rdi
	addq	$1, %rdi
	movl	$.L.str.284, %esi
	movl	$4, %edx
	callq	strncmp
	testl	%eax, %eax
	je	.LBB174_6
# %bb.5:                                # %lor.lhs.false
	movq	currentchar(%rip), %rdi
	addq	$1, %rdi
	movl	$.L.str.1.285, %esi
	movl	$4, %edx
	callq	strncmp
	testl	%eax, %eax
	jne	.LBB174_15
.LBB174_6:                              # %if.then18
	movl	$currentchar, %edi
	movl	$5, %esi
	jmp	.LBB174_8
	.p2align	4, 0x90
.LBB174_7:                              # %while.body
                                        #   in Loop: Header=BB174_8 Depth=1
	movl	$currentchar, %edi
	movl	$1, %esi
.LBB174_8:                              # %while.cond
                                        # =>This Inner Loop Header: Depth=1
	callq	copyout
	movq	currentchar(%rip), %rax
	cmpb	$0, (%rax)
	je	.LBB174_12
# %bb.9:                                # %land.rhs
                                        #   in Loop: Header=BB174_8 Depth=1
	movq	currentchar(%rip), %rax
	movzbl	(%rax), %eax
	testl	%eax, %eax
	jle	.LBB174_12
# %bb.10:                               # %land.lhs.true24
                                        #   in Loop: Header=BB174_8 Depth=1
	movq	currentchar(%rip), %rax
	movzbl	(%rax), %eax
	cmpl	$127, %eax
	jg	.LBB174_12
# %bb.11:                               # %land.rhs28
                                        #   in Loop: Header=BB174_8 Depth=1
	movq	currentchar(%rip), %rax
	movzbl	(%rax), %ebx
	callq	__ctype_b_loc
	movq	(%rax), %rax
	movzwl	(%rax,%rbx,2), %eax
	shrl	$13, %eax
	andl	$1, %eax
	testb	%al, %al
	jne	.LBB174_7
	jmp	.LBB174_15
	.p2align	4, 0x90
.LBB174_12:                             #   in Loop: Header=BB174_8 Depth=1
	xorl	%eax, %eax
	testb	%al, %al
	jne	.LBB174_7
.LBB174_15:                             # %if.end36
	movq	currentchar(%rip), %rax
	movsbl	(%rax), %eax
	movsbl	hashheader+50(%rip), %ecx
	cmpl	%ecx, %eax
	jne	.LBB174_38
# %bb.16:                               # %land.lhs.true41
	movq	currentchar(%rip), %rdi
	addq	$1, %rdi
	movl	$.L.str.2.286, %esi
	movl	$3, %edx
	callq	strncmp
	testl	%eax, %eax
	je	.LBB174_19
# %bb.17:                               # %lor.lhs.false46
	movq	currentchar(%rip), %rdi
	addq	$1, %rdi
	movl	$.L.str.3.287, %esi
	movl	$3, %edx
	callq	strncmp
	testl	%eax, %eax
	je	.LBB174_19
# %bb.18:                               # %lor.lhs.false51
	movq	currentchar(%rip), %rdi
	addq	$1, %rdi
	movl	$.L.str.4.288, %esi
	movl	$3, %edx
	callq	strncmp
	testl	%eax, %eax
	jne	.LBB174_38
.LBB174_19:                             # %if.then56
	movl	$currentchar, %edi
	movl	$4, %esi
	jmp	.LBB174_21
	.p2align	4, 0x90
.LBB174_20:                             # %while.body78
                                        #   in Loop: Header=BB174_21 Depth=1
	movl	$currentchar, %edi
	movl	$1, %esi
.LBB174_21:                             # %while.cond57
                                        # =>This Inner Loop Header: Depth=1
	callq	copyout
	movq	currentchar(%rip), %rax
	cmpb	$0, (%rax)
	je	.LBB174_25
# %bb.22:                               # %land.rhs60
                                        #   in Loop: Header=BB174_21 Depth=1
	movq	currentchar(%rip), %rax
	movzbl	(%rax), %eax
	testl	%eax, %eax
	jle	.LBB174_25
# %bb.23:                               # %land.lhs.true64
                                        #   in Loop: Header=BB174_21 Depth=1
	movq	currentchar(%rip), %rax
	movzbl	(%rax), %eax
	cmpl	$127, %eax
	jg	.LBB174_25
# %bb.24:                               # %land.rhs68
                                        #   in Loop: Header=BB174_21 Depth=1
	movq	currentchar(%rip), %rax
	movzbl	(%rax), %ebx
	callq	__ctype_b_loc
	movq	(%rax), %rax
	movzwl	(%rax,%rbx,2), %eax
	shrl	$13, %eax
	andl	$1, %eax
	testb	%al, %al
	jne	.LBB174_20
	jmp	.LBB174_29
	.p2align	4, 0x90
.LBB174_25:                             #   in Loop: Header=BB174_21 Depth=1
	xorl	%eax, %eax
	testb	%al, %al
	jne	.LBB174_20
	jmp	.LBB174_29
	.p2align	4, 0x90
.LBB174_28:                             # %while.body101
                                        #   in Loop: Header=BB174_29 Depth=1
	movl	$currentchar, %edi
	movl	$1, %esi
	callq	copyout
.LBB174_29:                             # %while.cond80
                                        # =>This Inner Loop Header: Depth=1
	movq	currentchar(%rip), %rax
	cmpb	$0, (%rax)
	je	.LBB174_33
# %bb.30:                               # %land.rhs83
                                        #   in Loop: Header=BB174_29 Depth=1
	movq	currentchar(%rip), %rax
	movzbl	(%rax), %eax
	testl	%eax, %eax
	jle	.LBB174_35
# %bb.31:                               # %land.lhs.true87
                                        #   in Loop: Header=BB174_29 Depth=1
	movq	currentchar(%rip), %rax
	movzbl	(%rax), %eax
	cmpl	$127, %eax
	jg	.LBB174_35
# %bb.32:                               # %land.rhs91
                                        #   in Loop: Header=BB174_29 Depth=1
	movq	currentchar(%rip), %rax
	movzbl	(%rax), %ebx
	callq	__ctype_b_loc
	movq	(%rax), %rax
	movzwl	(%rax,%rbx,2), %eax
	shrl	$13, %eax
	andl	$1, %eax
	jmp	.LBB174_36
	.p2align	4, 0x90
.LBB174_35:                             #   in Loop: Header=BB174_29 Depth=1
	xorl	%eax, %eax
.LBB174_36:                             # %land.end99
                                        #   in Loop: Header=BB174_29 Depth=1
	xorb	$1, %al
	testb	%al, %al
	jne	.LBB174_28
	jmp	.LBB174_37
	.p2align	4, 0x90
.LBB174_33:                             #   in Loop: Header=BB174_29 Depth=1
	xorl	%eax, %eax
	testb	%al, %al
	jne	.LBB174_28
.LBB174_37:                             # %while.end102
	movq	currentchar(%rip), %rax
	cmpb	$0, (%rax)
	je	.LBB174_105
.LBB174_38:                             # %if.end117
	cmpl	$0, tflag(%rip)
	jne	.LBB174_54
# %bb.39:                               # %land.lhs.true119
	movq	currentchar(%rip), %rax
	movsbl	(%rax), %eax
	movsbl	hashheader+50(%rip), %ecx
	cmpl	%ecx, %eax
	jne	.LBB174_54
# %bb.40:                               # %if.then124
	leaq	-56(%rbp), %r14
	jmp	.LBB174_42
	.p2align	4, 0x90
.LBB174_41:                             # %if.end154
                                        #   in Loop: Header=BB174_42 Depth=1
	callq	checkline3
.LBB174_42:                             # %while.cond125
                                        # =>This Inner Loop Header: Depth=1
	movq	currentchar(%rip), %rax
	cmpb	$0, (%rax)
	je	.LBB174_46
# %bb.43:                               # %land.rhs128
                                        #   in Loop: Header=BB174_42 Depth=1
	movq	currentchar(%rip), %rax
	movzbl	(%rax), %eax
	testl	%eax, %eax
	jle	.LBB174_51
# %bb.44:                               # %land.lhs.true132
                                        #   in Loop: Header=BB174_42 Depth=1
	movq	currentchar(%rip), %rax
	movzbl	(%rax), %eax
	cmpl	$127, %eax
	jg	.LBB174_51
# %bb.45:                               # %land.rhs136
                                        #   in Loop: Header=BB174_42 Depth=1
	movq	currentchar(%rip), %rax
	movzbl	(%rax), %ebx
	callq	__ctype_b_loc
	movq	(%rax), %rax
	movzwl	(%rax,%rbx,2), %eax
	shrl	$13, %eax
	andl	$1, %eax
	jmp	.LBB174_52
	.p2align	4, 0x90
.LBB174_51:                             #   in Loop: Header=BB174_42 Depth=1
	xorl	%eax, %eax
.LBB174_52:                             # %land.end144
                                        #   in Loop: Header=BB174_42 Depth=1
	xorb	$1, %al
	testb	%al, %al
	je	.LBB174_53
.LBB174_47:                             # %while.body147
                                        #   in Loop: Header=BB174_42 Depth=1
	cmpl	$0, aflag(%rip)
	jne	.LBB174_41
# %bb.48:                               # %land.lhs.true149
                                        #   in Loop: Header=BB174_42 Depth=1
	cmpl	$0, lflag(%rip)
	jne	.LBB174_41
# %bb.49:                               # %if.then151
                                        #   in Loop: Header=BB174_42 Depth=1
	movq	%r14, %rdi
	callq	checkline2
	jmp	.LBB174_41
	.p2align	4, 0x90
.LBB174_46:                             #   in Loop: Header=BB174_42 Depth=1
	xorl	%eax, %eax
	testb	%al, %al
	jne	.LBB174_47
.LBB174_53:                             # %while.end155
	movq	currentchar(%rip), %rax
	cmpb	$0, (%rax)
	je	.LBB174_101
.LBB174_54:                             # %if.end169
	leaq	-72(%rbp), %rbx
	leaq	-80(%rbp), %r14
	movl	$ctoken+119, %r13d
	leaq	-56(%rbp), %r15
	leaq	-44(%rbp), %r12
	jmp	.LBB174_56
	.p2align	4, 0x90
.LBB174_55:                             # %if.then299
                                        #   in Loop: Header=BB174_56 Depth=1
	movq	%r15, %rdi
	callq	checkline19
.LBB174_56:                             # %for.cond
                                        # =>This Loop Header: Depth=1
                                        #     Child Loop BB174_61 Depth 2
                                        #     Child Loop BB174_89 Depth 2
	movq	currentchar(%rip), %rdi
	callq	skiptoword
	movq	%rax, -72(%rbp)
	cmpq	currentchar(%rip), %rax
	je	.LBB174_58
# %bb.57:                               # %if.then173
                                        #   in Loop: Header=BB174_56 Depth=1
	movq	%rbx, %rdi
	callq	checkline5
